Archive member included to satisfy reference by file (symbol)

F:\Desktop\ch32v307\Application\8_uarts_server\bare_metal\8_uart_server\ETH\User\libwchnet.a(ethernetif.o)
                              ./User/main.o (WCHNET_SetHostname)
F:\Desktop\ch32v307\Application\8_uarts_server\bare_metal\8_uart_server\ETH\User\libwchnet.a(inet.o)
                              F:\Desktop\ch32v307\Application\8_uarts_server\bare_metal\8_uart_server\ETH\User\libwchnet.a(ethernetif.o) (htons)
F:\Desktop\ch32v307\Application\8_uarts_server\bare_metal\8_uart_server\ETH\User\libwchnet.a(ip_frag.o)
                              F:\Desktop\ch32v307\Application\8_uarts_server\bare_metal\8_uart_server\ETH\User\libwchnet.a(ethernetif.o) (ip_reass_tmr)
F:\Desktop\ch32v307\Application\8_uarts_server\bare_metal\8_uart_server\ETH\User\libwchnet.a(init.o)
                              F:\Desktop\ch32v307\Application\8_uarts_server\bare_metal\8_uart_server\ETH\User\libwchnet.a(ethernetif.o) (lwip_init)
F:\Desktop\ch32v307\Application\8_uarts_server\bare_metal\8_uart_server\ETH\User\libwchnet.a(mem.o)
                              F:\Desktop\ch32v307\Application\8_uarts_server\bare_metal\8_uart_server\ETH\User\libwchnet.a(init.o) (mem_init)
F:\Desktop\ch32v307\Application\8_uarts_server\bare_metal\8_uart_server\ETH\User\libwchnet.a(memp.o)
                              F:\Desktop\ch32v307\Application\8_uarts_server\bare_metal\8_uart_server\ETH\User\libwchnet.a(init.o) (memp_init)
F:\Desktop\ch32v307\Application\8_uarts_server\bare_metal\8_uart_server\ETH\User\libwchnet.a(netif.o)
                              F:\Desktop\ch32v307\Application\8_uarts_server\bare_metal\8_uart_server\ETH\User\libwchnet.a(ethernetif.o) (netif_add)
F:\Desktop\ch32v307\Application\8_uarts_server\bare_metal\8_uart_server\ETH\User\libwchnet.a(pbuf.o)
                              F:\Desktop\ch32v307\Application\8_uarts_server\bare_metal\8_uart_server\ETH\User\libwchnet.a(ethernetif.o) (pbuf_header)
F:\Desktop\ch32v307\Application\8_uarts_server\bare_metal\8_uart_server\ETH\User\libwchnet.a(tcp.o)
                              F:\Desktop\ch32v307\Application\8_uarts_server\bare_metal\8_uart_server\ETH\User\libwchnet.a(ethernetif.o) (tcp_tmr)
F:\Desktop\ch32v307\Application\8_uarts_server\bare_metal\8_uart_server\ETH\User\libwchnet.a(tcp_out.o)
                              F:\Desktop\ch32v307\Application\8_uarts_server\bare_metal\8_uart_server\ETH\User\libwchnet.a(tcp.o) (tcp_enqueue)
F:\Desktop\ch32v307\Application\8_uarts_server\bare_metal\8_uart_server\ETH\User\libwchnet.a(eth_driver.o)
                              ./User/main.o (WCH_GetMac)
F:\Desktop\ch32v307\Application\8_uarts_server\bare_metal\8_uart_server\ETH\User\libwchnet.a(ipcheck.o)
                              F:\Desktop\ch32v307\Application\8_uarts_server\bare_metal\8_uart_server\ETH\User\libwchnet.a(ethernetif.o) (IPCheckTmr)
F:\Desktop\ch32v307\Application\8_uarts_server\bare_metal\8_uart_server\ETH\User\libwchnet.a(socket.o)
                              ./User/main.o (WCHNET_Init)
F:\Desktop\ch32v307\Application\8_uarts_server\bare_metal\8_uart_server\ETH\User\libwchnet.a(wchnet_dns.o)
                              F:\Desktop\ch32v307\Application\8_uarts_server\bare_metal\8_uart_server\ETH\User\libwchnet.a(ethernetif.o) (DNSInf)
F:\Desktop\ch32v307\Application\8_uarts_server\bare_metal\8_uart_server\ETH\User\libwchnet.a(etharp.o)
                              F:\Desktop\ch32v307\Application\8_uarts_server\bare_metal\8_uart_server\ETH\User\libwchnet.a(ethernetif.o) (etharp_tmr)
F:\Desktop\ch32v307\Application\8_uarts_server\bare_metal\8_uart_server\ETH\User\libwchnet.a(icmp.o)
                              F:\Desktop\ch32v307\Application\8_uarts_server\bare_metal\8_uart_server\ETH\User\libwchnet.a(ip_frag.o) (icmp_time_exceeded)
F:\Desktop\ch32v307\Application\8_uarts_server\bare_metal\8_uart_server\ETH\User\libwchnet.a(inet_chksum.o)
                              F:\Desktop\ch32v307\Application\8_uarts_server\bare_metal\8_uart_server\ETH\User\libwchnet.a(tcp_out.o) (inet_chksum_pseudo)
F:\Desktop\ch32v307\Application\8_uarts_server\bare_metal\8_uart_server\ETH\User\libwchnet.a(ip.o)
                              F:\Desktop\ch32v307\Application\8_uarts_server\bare_metal\8_uart_server\ETH\User\libwchnet.a(tcp.o) (ip_route)
F:\Desktop\ch32v307\Application\8_uarts_server\bare_metal\8_uart_server\ETH\User\libwchnet.a(ip_addr.o)
                              F:\Desktop\ch32v307\Application\8_uarts_server\bare_metal\8_uart_server\ETH\User\libwchnet.a(socket.o) (ip_addr_isbroadcast)
F:\Desktop\ch32v307\Application\8_uarts_server\bare_metal\8_uart_server\ETH\User\libwchnet.a(raw.o)
                              F:\Desktop\ch32v307\Application\8_uarts_server\bare_metal\8_uart_server\ETH\User\libwchnet.a(ip.o) (raw_input)
F:\Desktop\ch32v307\Application\8_uarts_server\bare_metal\8_uart_server\ETH\User\libwchnet.a(tcp_in.o)
                              F:\Desktop\ch32v307\Application\8_uarts_server\bare_metal\8_uart_server\ETH\User\libwchnet.a(ip.o) (tcp_input)
F:\Desktop\ch32v307\Application\8_uarts_server\bare_metal\8_uart_server\ETH\User\libwchnet.a(udp.o)
                              F:\Desktop\ch32v307\Application\8_uarts_server\bare_metal\8_uart_server\ETH\User\libwchnet.a(ip.o) (udp_input)
F:\Desktop\ch32v307\Application\8_uarts_server\bare_metal\8_uart_server\ETH\User\libwchnet.a(wchnet_dhcp.o)
                              F:\Desktop\ch32v307\Application\8_uarts_server\bare_metal\8_uart_server\ETH\User\libwchnet.a(etharp.o) (dhcp_arp_reply)
d:/mounriver/mounriver_studio/toolchain/risc-v embedded gcc/bin/../lib/gcc/riscv-none-embed/8.2.0\libgcc.a(save-restore.o)
                              F:\Desktop\ch32v307\Application\8_uarts_server\bare_metal\8_uart_server\ETH\User\libwchnet.a(ip_frag.o) (__riscv_save_12)
d:/mounriver/mounriver_studio/toolchain/risc-v embedded gcc/bin/../lib/gcc/riscv-none-embed/8.2.0/../../../../riscv-none-embed/lib\libc_nano.a(lib_a-memcpy.o)
                              F:\Desktop\ch32v307\Application\8_uarts_server\bare_metal\8_uart_server\ETH\User\libwchnet.a(ethernetif.o) (memcpy)
d:/mounriver/mounriver_studio/toolchain/risc-v embedded gcc/bin/../lib/gcc/riscv-none-embed/8.2.0/../../../../riscv-none-embed/lib\libc_nano.a(lib_a-memset.o)
                              ./User/bsp_uart.o (memset)
d:/mounriver/mounriver_studio/toolchain/risc-v embedded gcc/bin/../lib/gcc/riscv-none-embed/8.2.0/../../../../riscv-none-embed/lib\libc_nano.a(lib_a-printf.o)
                              ./User/ch32v30x_it.o (printf)
d:/mounriver/mounriver_studio/toolchain/risc-v embedded gcc/bin/../lib/gcc/riscv-none-embed/8.2.0/../../../../riscv-none-embed/lib\libc_nano.a(lib_a-puts.o)
                              ./User/ch32v30x_it.o (puts)
d:/mounriver/mounriver_studio/toolchain/risc-v embedded gcc/bin/../lib/gcc/riscv-none-embed/8.2.0/../../../../riscv-none-embed/lib\libc_nano.a(lib_a-strcmp.o)
                              F:\Desktop\ch32v307\Application\8_uarts_server\bare_metal\8_uart_server\ETH\User\libwchnet.a(wchnet_dns.o) (strcmp)
d:/mounriver/mounriver_studio/toolchain/risc-v embedded gcc/bin/../lib/gcc/riscv-none-embed/8.2.0/../../../../riscv-none-embed/lib\libc_nano.a(lib_a-strcpy.o)
                              F:\Desktop\ch32v307\Application\8_uarts_server\bare_metal\8_uart_server\ETH\User\libwchnet.a(ethernetif.o) (strcpy)
d:/mounriver/mounriver_studio/toolchain/risc-v embedded gcc/bin/../lib/gcc/riscv-none-embed/8.2.0/../../../../riscv-none-embed/lib\libc_nano.a(lib_a-strlen.o)
                              F:\Desktop\ch32v307\Application\8_uarts_server\bare_metal\8_uart_server\ETH\User\libwchnet.a(wchnet_dns.o) (strlen)
d:/mounriver/mounriver_studio/toolchain/risc-v embedded gcc/bin/../lib/gcc/riscv-none-embed/8.2.0/../../../../riscv-none-embed/lib\libc_nano.a(lib_a-wbuf.o)
                              d:/mounriver/mounriver_studio/toolchain/risc-v embedded gcc/bin/../lib/gcc/riscv-none-embed/8.2.0/../../../../riscv-none-embed/lib\libc_nano.a(lib_a-puts.o) (__swbuf_r)
d:/mounriver/mounriver_studio/toolchain/risc-v embedded gcc/bin/../lib/gcc/riscv-none-embed/8.2.0/../../../../riscv-none-embed/lib\libc_nano.a(lib_a-wsetup.o)
                              d:/mounriver/mounriver_studio/toolchain/risc-v embedded gcc/bin/../lib/gcc/riscv-none-embed/8.2.0/../../../../riscv-none-embed/lib\libc_nano.a(lib_a-puts.o) (__swsetup_r)
d:/mounriver/mounriver_studio/toolchain/risc-v embedded gcc/bin/../lib/gcc/riscv-none-embed/8.2.0/../../../../riscv-none-embed/lib\libc_nano.a(lib_a-fflush.o)
                              d:/mounriver/mounriver_studio/toolchain/risc-v embedded gcc/bin/../lib/gcc/riscv-none-embed/8.2.0/../../../../riscv-none-embed/lib\libc_nano.a(lib_a-wbuf.o) (_fflush_r)
d:/mounriver/mounriver_studio/toolchain/risc-v embedded gcc/bin/../lib/gcc/riscv-none-embed/8.2.0/../../../../riscv-none-embed/lib\libc_nano.a(lib_a-findfp.o)
                              d:/mounriver/mounriver_studio/toolchain/risc-v embedded gcc/bin/../lib/gcc/riscv-none-embed/8.2.0/../../../../riscv-none-embed/lib\libc_nano.a(lib_a-printf.o) (__sinit)
d:/mounriver/mounriver_studio/toolchain/risc-v embedded gcc/bin/../lib/gcc/riscv-none-embed/8.2.0/../../../../riscv-none-embed/lib\libc_nano.a(lib_a-fwalk.o)
                              d:/mounriver/mounriver_studio/toolchain/risc-v embedded gcc/bin/../lib/gcc/riscv-none-embed/8.2.0/../../../../riscv-none-embed/lib\libc_nano.a(lib_a-findfp.o) (_fwalk)
d:/mounriver/mounriver_studio/toolchain/risc-v embedded gcc/bin/../lib/gcc/riscv-none-embed/8.2.0/../../../../riscv-none-embed/lib\libc_nano.a(lib_a-impure.o)
                              d:/mounriver/mounriver_studio/toolchain/risc-v embedded gcc/bin/../lib/gcc/riscv-none-embed/8.2.0/../../../../riscv-none-embed/lib\libc_nano.a(lib_a-fflush.o) (_global_impure_ptr)
d:/mounriver/mounriver_studio/toolchain/risc-v embedded gcc/bin/../lib/gcc/riscv-none-embed/8.2.0/../../../../riscv-none-embed/lib\libc_nano.a(lib_a-makebuf.o)
                              d:/mounriver/mounriver_studio/toolchain/risc-v embedded gcc/bin/../lib/gcc/riscv-none-embed/8.2.0/../../../../riscv-none-embed/lib\libc_nano.a(lib_a-wsetup.o) (__smakebuf_r)
d:/mounriver/mounriver_studio/toolchain/risc-v embedded gcc/bin/../lib/gcc/riscv-none-embed/8.2.0/../../../../riscv-none-embed/lib\libc_nano.a(lib_a-nano-freer.o)
                              d:/mounriver/mounriver_studio/toolchain/risc-v embedded gcc/bin/../lib/gcc/riscv-none-embed/8.2.0/../../../../riscv-none-embed/lib\libc_nano.a(lib_a-wsetup.o) (_free_r)
d:/mounriver/mounriver_studio/toolchain/risc-v embedded gcc/bin/../lib/gcc/riscv-none-embed/8.2.0/../../../../riscv-none-embed/lib\libc_nano.a(lib_a-nano-mallocr.o)
                              d:/mounriver/mounriver_studio/toolchain/risc-v embedded gcc/bin/../lib/gcc/riscv-none-embed/8.2.0/../../../../riscv-none-embed/lib\libc_nano.a(lib_a-findfp.o) (_malloc_r)
d:/mounriver/mounriver_studio/toolchain/risc-v embedded gcc/bin/../lib/gcc/riscv-none-embed/8.2.0/../../../../riscv-none-embed/lib\libc_nano.a(lib_a-nano-vfprintf.o)
                              d:/mounriver/mounriver_studio/toolchain/risc-v embedded gcc/bin/../lib/gcc/riscv-none-embed/8.2.0/../../../../riscv-none-embed/lib\libc_nano.a(lib_a-printf.o) (_vfprintf_r)
d:/mounriver/mounriver_studio/toolchain/risc-v embedded gcc/bin/../lib/gcc/riscv-none-embed/8.2.0/../../../../riscv-none-embed/lib\libc_nano.a(lib_a-nano-vfprintf_i.o)
                              d:/mounriver/mounriver_studio/toolchain/risc-v embedded gcc/bin/../lib/gcc/riscv-none-embed/8.2.0/../../../../riscv-none-embed/lib\libc_nano.a(lib_a-nano-vfprintf.o) (_printf_i)
d:/mounriver/mounriver_studio/toolchain/risc-v embedded gcc/bin/../lib/gcc/riscv-none-embed/8.2.0/../../../../riscv-none-embed/lib\libc_nano.a(lib_a-sbrkr.o)
                              d:/mounriver/mounriver_studio/toolchain/risc-v embedded gcc/bin/../lib/gcc/riscv-none-embed/8.2.0/../../../../riscv-none-embed/lib\libc_nano.a(lib_a-nano-mallocr.o) (_sbrk_r)
d:/mounriver/mounriver_studio/toolchain/risc-v embedded gcc/bin/../lib/gcc/riscv-none-embed/8.2.0/../../../../riscv-none-embed/lib\libc_nano.a(lib_a-stdio.o)
                              d:/mounriver/mounriver_studio/toolchain/risc-v embedded gcc/bin/../lib/gcc/riscv-none-embed/8.2.0/../../../../riscv-none-embed/lib\libc_nano.a(lib_a-findfp.o) (__sread)
d:/mounriver/mounriver_studio/toolchain/risc-v embedded gcc/bin/../lib/gcc/riscv-none-embed/8.2.0/../../../../riscv-none-embed/lib\libc_nano.a(lib_a-writer.o)
                              d:/mounriver/mounriver_studio/toolchain/risc-v embedded gcc/bin/../lib/gcc/riscv-none-embed/8.2.0/../../../../riscv-none-embed/lib\libc_nano.a(lib_a-stdio.o) (_write_r)
d:/mounriver/mounriver_studio/toolchain/risc-v embedded gcc/bin/../lib/gcc/riscv-none-embed/8.2.0/../../../../riscv-none-embed/lib\libc_nano.a(lib_a-closer.o)
                              d:/mounriver/mounriver_studio/toolchain/risc-v embedded gcc/bin/../lib/gcc/riscv-none-embed/8.2.0/../../../../riscv-none-embed/lib\libc_nano.a(lib_a-stdio.o) (_close_r)
d:/mounriver/mounriver_studio/toolchain/risc-v embedded gcc/bin/../lib/gcc/riscv-none-embed/8.2.0/../../../../riscv-none-embed/lib\libc_nano.a(lib_a-fstatr.o)
                              d:/mounriver/mounriver_studio/toolchain/risc-v embedded gcc/bin/../lib/gcc/riscv-none-embed/8.2.0/../../../../riscv-none-embed/lib\libc_nano.a(lib_a-makebuf.o) (_fstat_r)
d:/mounriver/mounriver_studio/toolchain/risc-v embedded gcc/bin/../lib/gcc/riscv-none-embed/8.2.0/../../../../riscv-none-embed/lib\libc_nano.a(lib_a-fvwrite.o)
                              d:/mounriver/mounriver_studio/toolchain/risc-v embedded gcc/bin/../lib/gcc/riscv-none-embed/8.2.0/../../../../riscv-none-embed/lib\libc_nano.a(lib_a-nano-vfprintf.o) (__sfvwrite_r)
d:/mounriver/mounriver_studio/toolchain/risc-v embedded gcc/bin/../lib/gcc/riscv-none-embed/8.2.0/../../../../riscv-none-embed/lib\libc_nano.a(lib_a-isattyr.o)
                              d:/mounriver/mounriver_studio/toolchain/risc-v embedded gcc/bin/../lib/gcc/riscv-none-embed/8.2.0/../../../../riscv-none-embed/lib\libc_nano.a(lib_a-makebuf.o) (_isatty_r)
d:/mounriver/mounriver_studio/toolchain/risc-v embedded gcc/bin/../lib/gcc/riscv-none-embed/8.2.0/../../../../riscv-none-embed/lib\libc_nano.a(lib_a-lseekr.o)
                              d:/mounriver/mounriver_studio/toolchain/risc-v embedded gcc/bin/../lib/gcc/riscv-none-embed/8.2.0/../../../../riscv-none-embed/lib\libc_nano.a(lib_a-stdio.o) (_lseek_r)
d:/mounriver/mounriver_studio/toolchain/risc-v embedded gcc/bin/../lib/gcc/riscv-none-embed/8.2.0/../../../../riscv-none-embed/lib\libc_nano.a(lib_a-memchr.o)
                              d:/mounriver/mounriver_studio/toolchain/risc-v embedded gcc/bin/../lib/gcc/riscv-none-embed/8.2.0/../../../../riscv-none-embed/lib\libc_nano.a(lib_a-nano-vfprintf.o) (memchr)
d:/mounriver/mounriver_studio/toolchain/risc-v embedded gcc/bin/../lib/gcc/riscv-none-embed/8.2.0/../../../../riscv-none-embed/lib\libc_nano.a(lib_a-memmove.o)
                              d:/mounriver/mounriver_studio/toolchain/risc-v embedded gcc/bin/../lib/gcc/riscv-none-embed/8.2.0/../../../../riscv-none-embed/lib\libc_nano.a(lib_a-fvwrite.o) (memmove)
d:/mounriver/mounriver_studio/toolchain/risc-v embedded gcc/bin/../lib/gcc/riscv-none-embed/8.2.0/../../../../riscv-none-embed/lib\libc_nano.a(lib_a-mlock.o)
                              d:/mounriver/mounriver_studio/toolchain/risc-v embedded gcc/bin/../lib/gcc/riscv-none-embed/8.2.0/../../../../riscv-none-embed/lib\libc_nano.a(lib_a-nano-freer.o) (__malloc_lock)
d:/mounriver/mounriver_studio/toolchain/risc-v embedded gcc/bin/../lib/gcc/riscv-none-embed/8.2.0/../../../../riscv-none-embed/lib\libc_nano.a(lib_a-nano-reallocr.o)
                              d:/mounriver/mounriver_studio/toolchain/risc-v embedded gcc/bin/../lib/gcc/riscv-none-embed/8.2.0/../../../../riscv-none-embed/lib\libc_nano.a(lib_a-fvwrite.o) (_realloc_r)
d:/mounriver/mounriver_studio/toolchain/risc-v embedded gcc/bin/../lib/gcc/riscv-none-embed/8.2.0/../../../../riscv-none-embed/lib\libc_nano.a(lib_a-readr.o)
                              d:/mounriver/mounriver_studio/toolchain/risc-v embedded gcc/bin/../lib/gcc/riscv-none-embed/8.2.0/../../../../riscv-none-embed/lib\libc_nano.a(lib_a-stdio.o) (_read_r)
d:/mounriver/mounriver_studio/toolchain/risc-v embedded gcc/bin/../lib/gcc/riscv-none-embed/8.2.0/../../../../riscv-none-embed/lib\libc_nano.a(lib_a-reent.o)
                              d:/mounriver/mounriver_studio/toolchain/risc-v embedded gcc/bin/../lib/gcc/riscv-none-embed/8.2.0/../../../../riscv-none-embed/lib\libc_nano.a(lib_a-sbrkr.o) (errno)
d:/mounriver/mounriver_studio/toolchain/risc-v embedded gcc/bin/../lib/gcc/riscv-none-embed/8.2.0/../../../../riscv-none-embed/lib\libc_nano.a(lib_a-nano-msizer.o)
                              d:/mounriver/mounriver_studio/toolchain/risc-v embedded gcc/bin/../lib/gcc/riscv-none-embed/8.2.0/../../../../riscv-none-embed/lib\libc_nano.a(lib_a-nano-reallocr.o) (_malloc_usable_size_r)
d:/mounriver/mounriver_studio/toolchain/risc-v embedded gcc/bin/../lib/gcc/riscv-none-embed/8.2.0/../../../../riscv-none-embed/lib\libnosys.a(close.o)
                              d:/mounriver/mounriver_studio/toolchain/risc-v embedded gcc/bin/../lib/gcc/riscv-none-embed/8.2.0/../../../../riscv-none-embed/lib\libc_nano.a(lib_a-closer.o) (_close)
d:/mounriver/mounriver_studio/toolchain/risc-v embedded gcc/bin/../lib/gcc/riscv-none-embed/8.2.0/../../../../riscv-none-embed/lib\libnosys.a(fstat.o)
                              d:/mounriver/mounriver_studio/toolchain/risc-v embedded gcc/bin/../lib/gcc/riscv-none-embed/8.2.0/../../../../riscv-none-embed/lib\libc_nano.a(lib_a-fstatr.o) (_fstat)
d:/mounriver/mounriver_studio/toolchain/risc-v embedded gcc/bin/../lib/gcc/riscv-none-embed/8.2.0/../../../../riscv-none-embed/lib\libnosys.a(isatty.o)
                              d:/mounriver/mounriver_studio/toolchain/risc-v embedded gcc/bin/../lib/gcc/riscv-none-embed/8.2.0/../../../../riscv-none-embed/lib\libc_nano.a(lib_a-isattyr.o) (_isatty)
d:/mounriver/mounriver_studio/toolchain/risc-v embedded gcc/bin/../lib/gcc/riscv-none-embed/8.2.0/../../../../riscv-none-embed/lib\libnosys.a(lseek.o)
                              d:/mounriver/mounriver_studio/toolchain/risc-v embedded gcc/bin/../lib/gcc/riscv-none-embed/8.2.0/../../../../riscv-none-embed/lib\libc_nano.a(lib_a-lseekr.o) (_lseek)
d:/mounriver/mounriver_studio/toolchain/risc-v embedded gcc/bin/../lib/gcc/riscv-none-embed/8.2.0/../../../../riscv-none-embed/lib\libnosys.a(read.o)
                              d:/mounriver/mounriver_studio/toolchain/risc-v embedded gcc/bin/../lib/gcc/riscv-none-embed/8.2.0/../../../../riscv-none-embed/lib\libc_nano.a(lib_a-readr.o) (_read)
d:/mounriver/mounriver_studio/toolchain/risc-v embedded gcc/bin/../lib/gcc/riscv-none-embed/8.2.0/../../../../riscv-none-embed/lib\libnosys.a(sbrk.o)
                              d:/mounriver/mounriver_studio/toolchain/risc-v embedded gcc/bin/../lib/gcc/riscv-none-embed/8.2.0/../../../../riscv-none-embed/lib\libc_nano.a(lib_a-sbrkr.o) (_sbrk)

Allocating common symbols
Common symbol       size              file

errno               0x4               d:/mounriver/mounriver_studio/toolchain/risc-v embedded gcc/bin/../lib/gcc/riscv-none-embed/8.2.0/../../../../riscv-none-embed/lib\libc_nano.a(lib_a-reent.o)

Discarded input sections

 .text          0x0000000000000000        0x0 ./User/bsp_uart.o
 .data          0x0000000000000000        0x0 ./User/bsp_uart.o
 .bss           0x0000000000000000        0x0 ./User/bsp_uart.o
 .text          0x0000000000000000        0x0 ./User/ch32v30x_it.o
 .data          0x0000000000000000        0x0 ./User/ch32v30x_it.o
 .bss           0x0000000000000000        0x0 ./User/ch32v30x_it.o
 .sbss.LTime    0x0000000000000000        0x4 ./User/ch32v30x_it.o
 .text          0x0000000000000000        0x0 ./User/main.o
 .data          0x0000000000000000        0x0 ./User/main.o
 .bss           0x0000000000000000        0x0 ./User/main.o
 .text          0x0000000000000000        0x0 ./User/system_ch32v30x.o
 .data          0x0000000000000000        0x0 ./User/system_ch32v30x.o
 .bss           0x0000000000000000        0x0 ./User/system_ch32v30x.o
 .text.SystemCoreClockUpdate
                0x0000000000000000       0xce ./User/system_ch32v30x.o
 .data.AHBPrescTable
                0x0000000000000000       0x10 ./User/system_ch32v30x.o
 .text          0x0000000000000000        0x0 ./Startup/startup_ch32v30x.o
 .data          0x0000000000000000        0x0 ./Startup/startup_ch32v30x.o
 .bss           0x0000000000000000        0x0 ./Startup/startup_ch32v30x.o
 .text          0x0000000000000000        0x0 ./Peripheral/src/ch32v30x_adc.o
 .data          0x0000000000000000        0x0 ./Peripheral/src/ch32v30x_adc.o
 .bss           0x0000000000000000        0x0 ./Peripheral/src/ch32v30x_adc.o
 .text.ADC_DeInit
                0x0000000000000000       0x5a ./Peripheral/src/ch32v30x_adc.o
 .text.ADC_Init
                0x0000000000000000       0x56 ./Peripheral/src/ch32v30x_adc.o
 .text.ADC_StructInit
                0x0000000000000000       0x1a ./Peripheral/src/ch32v30x_adc.o
 .text.ADC_Cmd  0x0000000000000000       0x10 ./Peripheral/src/ch32v30x_adc.o
 .text.ADC_DMACmd
                0x0000000000000000       0x12 ./Peripheral/src/ch32v30x_adc.o
 .text.ADC_ITConfig
                0x0000000000000000       0x16 ./Peripheral/src/ch32v30x_adc.o
 .text.ADC_ResetCalibration
                0x0000000000000000        0xa ./Peripheral/src/ch32v30x_adc.o
 .text.ADC_GetResetCalibrationStatus
                0x0000000000000000        0x8 ./Peripheral/src/ch32v30x_adc.o
 .text.ADC_StartCalibration
                0x0000000000000000        0xa ./Peripheral/src/ch32v30x_adc.o
 .text.ADC_GetCalibrationStatus
                0x0000000000000000        0x8 ./Peripheral/src/ch32v30x_adc.o
 .text.ADC_SoftwareStartConvCmd
                0x0000000000000000       0x18 ./Peripheral/src/ch32v30x_adc.o
 .text.ADC_GetSoftwareStartConvStatus
                0x0000000000000000        0x8 ./Peripheral/src/ch32v30x_adc.o
 .text.ADC_DiscModeChannelCountConfig
                0x0000000000000000       0x12 ./Peripheral/src/ch32v30x_adc.o
 .text.ADC_DiscModeCmd
                0x0000000000000000       0x1a ./Peripheral/src/ch32v30x_adc.o
 .text.ADC_RegularChannelConfig
                0x0000000000000000       0xb8 ./Peripheral/src/ch32v30x_adc.o
 .text.ADC_ExternalTrigConvCmd
                0x0000000000000000       0x18 ./Peripheral/src/ch32v30x_adc.o
 .text.ADC_GetConversionValue
                0x0000000000000000        0x8 ./Peripheral/src/ch32v30x_adc.o
 .text.ADC_GetDualModeConversionValue
                0x0000000000000000        0xa ./Peripheral/src/ch32v30x_adc.o
 .text.ADC_AutoInjectedConvCmd
                0x0000000000000000       0x12 ./Peripheral/src/ch32v30x_adc.o
 .text.ADC_InjectedDiscModeCmd
                0x0000000000000000       0x14 ./Peripheral/src/ch32v30x_adc.o
 .text.ADC_ExternalTrigInjectedConvConfig
                0x0000000000000000        0xe ./Peripheral/src/ch32v30x_adc.o
 .text.ADC_ExternalTrigInjectedConvCmd
                0x0000000000000000       0x14 ./Peripheral/src/ch32v30x_adc.o
 .text.ADC_SoftwareStartInjectedConvCmd
                0x0000000000000000       0x18 ./Peripheral/src/ch32v30x_adc.o
 .text.ADC_GetSoftwareStartInjectedConvCmdStatus
                0x0000000000000000        0x8 ./Peripheral/src/ch32v30x_adc.o
 .text.ADC_InjectedChannelConfig
                0x0000000000000000       0x7a ./Peripheral/src/ch32v30x_adc.o
 .text.ADC_InjectedSequencerLengthConfig
                0x0000000000000000       0x14 ./Peripheral/src/ch32v30x_adc.o
 .text.ADC_SetInjectedOffset
                0x0000000000000000       0x14 ./Peripheral/src/ch32v30x_adc.o
 .text.ADC_GetInjectedConversionValue
                0x0000000000000000       0x1c ./Peripheral/src/ch32v30x_adc.o
 .text.ADC_AnalogWatchdogCmd
                0x0000000000000000       0x12 ./Peripheral/src/ch32v30x_adc.o
 .text.ADC_AnalogWatchdogThresholdsConfig
                0x0000000000000000        0x6 ./Peripheral/src/ch32v30x_adc.o
 .text.ADC_AnalogWatchdogSingleChannelConfig
                0x0000000000000000        0xa ./Peripheral/src/ch32v30x_adc.o
 .text.ADC_TempSensorVrefintCmd
                0x0000000000000000       0x20 ./Peripheral/src/ch32v30x_adc.o
 .text.ADC_GetFlagStatus
                0x0000000000000000        0xa ./Peripheral/src/ch32v30x_adc.o
 .text.ADC_ClearFlag
                0x0000000000000000        0x8 ./Peripheral/src/ch32v30x_adc.o
 .text.ADC_GetITStatus
                0x0000000000000000       0x1c ./Peripheral/src/ch32v30x_adc.o
 .text.ADC_ClearITPendingBit
                0x0000000000000000        0xa ./Peripheral/src/ch32v30x_adc.o
 .text.TempSensor_Volt_To_Temper
                0x0000000000000000       0x2a ./Peripheral/src/ch32v30x_adc.o
 .text.ADC_BufferCmd
                0x0000000000000000       0x18 ./Peripheral/src/ch32v30x_adc.o
 .text.Get_CalibrationValue
                0x0000000000000000      0x156 ./Peripheral/src/ch32v30x_adc.o
 .comment       0x0000000000000000       0x34 ./Peripheral/src/ch32v30x_adc.o
 .text          0x0000000000000000        0x0 ./Peripheral/src/ch32v30x_bkp.o
 .data          0x0000000000000000        0x0 ./Peripheral/src/ch32v30x_bkp.o
 .bss           0x0000000000000000        0x0 ./Peripheral/src/ch32v30x_bkp.o
 .text.BKP_DeInit
                0x0000000000000000       0x24 ./Peripheral/src/ch32v30x_bkp.o
 .text.BKP_TamperPinLevelConfig
                0x0000000000000000       0x20 ./Peripheral/src/ch32v30x_bkp.o
 .text.BKP_TamperPinCmd
                0x0000000000000000       0x20 ./Peripheral/src/ch32v30x_bkp.o
 .text.BKP_ITConfig
                0x0000000000000000       0x20 ./Peripheral/src/ch32v30x_bkp.o
 .text.BKP_RTCOutputConfig
                0x0000000000000000       0x18 ./Peripheral/src/ch32v30x_bkp.o
 .text.BKP_SetRTCCalibrationValue
                0x0000000000000000       0x18 ./Peripheral/src/ch32v30x_bkp.o
 .text.BKP_WriteBackupRegister
                0x0000000000000000       0x1c ./Peripheral/src/ch32v30x_bkp.o
 .text.BKP_ReadBackupRegister
                0x0000000000000000       0x1c ./Peripheral/src/ch32v30x_bkp.o
 .text.BKP_GetFlagStatus
                0x0000000000000000        0xe ./Peripheral/src/ch32v30x_bkp.o
 .text.BKP_ClearFlag
                0x0000000000000000       0x12 ./Peripheral/src/ch32v30x_bkp.o
 .text.BKP_GetITStatus
                0x0000000000000000        0xe ./Peripheral/src/ch32v30x_bkp.o
 .text.BKP_ClearITPendingBit
                0x0000000000000000       0x12 ./Peripheral/src/ch32v30x_bkp.o
 .comment       0x0000000000000000       0x34 ./Peripheral/src/ch32v30x_bkp.o
 .text          0x0000000000000000        0x0 ./Peripheral/src/ch32v30x_can.o
 .data          0x0000000000000000        0x0 ./Peripheral/src/ch32v30x_can.o
 .bss           0x0000000000000000        0x0 ./Peripheral/src/ch32v30x_can.o
 .text.CAN_DeInit
                0x0000000000000000       0x4c ./Peripheral/src/ch32v30x_can.o
 .text.CAN_Init
                0x0000000000000000       0xe8 ./Peripheral/src/ch32v30x_can.o
 .text.CAN_FilterInit
                0x0000000000000000       0xee ./Peripheral/src/ch32v30x_can.o
 .text.CAN_StructInit
                0x0000000000000000       0x24 ./Peripheral/src/ch32v30x_can.o
 .text.CAN_SlaveStartBank
                0x0000000000000000       0x38 ./Peripheral/src/ch32v30x_can.o
 .text.CAN_DBGFreeze
                0x0000000000000000       0x14 ./Peripheral/src/ch32v30x_can.o
 .text.CAN_TTComModeCmd
                0x0000000000000000       0x58 ./Peripheral/src/ch32v30x_can.o
 .text.CAN_Transmit
                0x0000000000000000       0xbc ./Peripheral/src/ch32v30x_can.o
 .text.CAN_TransmitStatus
                0x0000000000000000       0x62 ./Peripheral/src/ch32v30x_can.o
 .text.CAN_CancelTransmit
                0x0000000000000000       0x2a ./Peripheral/src/ch32v30x_can.o
 .text.CAN_Receive
                0x0000000000000000       0x8c ./Peripheral/src/ch32v30x_can.o
 .text.CAN_FIFORelease
                0x0000000000000000       0x16 ./Peripheral/src/ch32v30x_can.o
 .text.CAN_MessagePending
                0x0000000000000000       0x16 ./Peripheral/src/ch32v30x_can.o
 .text.CAN_OperatingModeRequest
                0x0000000000000000       0x72 ./Peripheral/src/ch32v30x_can.o
 .text.CAN_Sleep
                0x0000000000000000       0x16 ./Peripheral/src/ch32v30x_can.o
 .text.CAN_WakeUp
                0x0000000000000000       0x1e ./Peripheral/src/ch32v30x_can.o
 .text.CAN_GetLastErrorCode
                0x0000000000000000        0x8 ./Peripheral/src/ch32v30x_can.o
 .text.CAN_GetReceiveErrorCounter
                0x0000000000000000        0x6 ./Peripheral/src/ch32v30x_can.o
 .text.CAN_GetLSBTransmitErrorCounter
                0x0000000000000000        0xa ./Peripheral/src/ch32v30x_can.o
 .text.CAN_ITConfig
                0x0000000000000000       0x12 ./Peripheral/src/ch32v30x_can.o
 .text.CAN_GetFlagStatus
                0x0000000000000000       0x56 ./Peripheral/src/ch32v30x_can.o
 .text.CAN_ClearFlag
                0x0000000000000000       0x40 ./Peripheral/src/ch32v30x_can.o
 .text.CAN_GetITStatus
                0x0000000000000000       0xd0 ./Peripheral/src/ch32v30x_can.o
 .text.CAN_ClearITPendingBit
                0x0000000000000000       0x94 ./Peripheral/src/ch32v30x_can.o
 .comment       0x0000000000000000       0x34 ./Peripheral/src/ch32v30x_can.o
 .text          0x0000000000000000        0x0 ./Peripheral/src/ch32v30x_crc.o
 .data          0x0000000000000000        0x0 ./Peripheral/src/ch32v30x_crc.o
 .bss           0x0000000000000000        0x0 ./Peripheral/src/ch32v30x_crc.o
 .text.CRC_ResetDR
                0x0000000000000000        0xa ./Peripheral/src/ch32v30x_crc.o
 .text.CRC_CalcCRC
                0x0000000000000000        0xa ./Peripheral/src/ch32v30x_crc.o
 .text.CRC_CalcBlockCRC
                0x0000000000000000       0x20 ./Peripheral/src/ch32v30x_crc.o
 .text.CRC_GetCRC
                0x0000000000000000        0x8 ./Peripheral/src/ch32v30x_crc.o
 .text.CRC_SetIDRegister
                0x0000000000000000        0x8 ./Peripheral/src/ch32v30x_crc.o
 .text.CRC_GetIDRegister
                0x0000000000000000        0x8 ./Peripheral/src/ch32v30x_crc.o
 .comment       0x0000000000000000       0x34 ./Peripheral/src/ch32v30x_crc.o
 .text          0x0000000000000000        0x0 ./Peripheral/src/ch32v30x_dac.o
 .data          0x0000000000000000        0x0 ./Peripheral/src/ch32v30x_dac.o
 .bss           0x0000000000000000        0x0 ./Peripheral/src/ch32v30x_dac.o
 .text.DAC_DeInit
                0x0000000000000000       0x2c ./Peripheral/src/ch32v30x_dac.o
 .text.DAC_Init
                0x0000000000000000       0x30 ./Peripheral/src/ch32v30x_dac.o
 .text.DAC_StructInit
                0x0000000000000000       0x12 ./Peripheral/src/ch32v30x_dac.o
 .text.DAC_Cmd  0x0000000000000000       0x2c ./Peripheral/src/ch32v30x_dac.o
 .text.DAC_DMACmd
                0x0000000000000000       0x2c ./Peripheral/src/ch32v30x_dac.o
 .text.DAC_SoftwareTriggerCmd
                0x0000000000000000       0x22 ./Peripheral/src/ch32v30x_dac.o
 .text.DAC_DualSoftwareTriggerCmd
                0x0000000000000000       0x18 ./Peripheral/src/ch32v30x_dac.o
 .text.DAC_WaveGenerationCmd
                0x0000000000000000       0x1e ./Peripheral/src/ch32v30x_dac.o
 .text.DAC_SetChannel1Data
                0x0000000000000000       0x1e ./Peripheral/src/ch32v30x_dac.o
 .text.DAC_SetChannel2Data
                0x0000000000000000       0x1e ./Peripheral/src/ch32v30x_dac.o
 .text.DAC_SetDualChannelData
                0x0000000000000000       0x1c ./Peripheral/src/ch32v30x_dac.o
 .text.DAC_GetDataOutputValue
                0x0000000000000000       0x26 ./Peripheral/src/ch32v30x_dac.o
 .comment       0x0000000000000000       0x34 ./Peripheral/src/ch32v30x_dac.o
 .text          0x0000000000000000        0x0 ./Peripheral/src/ch32v30x_dbgmcu.o
 .data          0x0000000000000000        0x0 ./Peripheral/src/ch32v30x_dbgmcu.o
 .bss           0x0000000000000000        0x0 ./Peripheral/src/ch32v30x_dbgmcu.o
 .text.DBGMCU_Config
                0x0000000000000000       0x4c ./Peripheral/src/ch32v30x_dbgmcu.o
 .comment       0x0000000000000000       0x34 ./Peripheral/src/ch32v30x_dbgmcu.o
 .text          0x0000000000000000        0x0 ./Peripheral/src/ch32v30x_dma.o
 .data          0x0000000000000000        0x0 ./Peripheral/src/ch32v30x_dma.o
 .bss           0x0000000000000000        0x0 ./Peripheral/src/ch32v30x_dma.o
 .text.DMA_StructInit
                0x0000000000000000       0x2e ./Peripheral/src/ch32v30x_dma.o
 .text.DMA_SetCurrDataCounter
                0x0000000000000000        0x4 ./Peripheral/src/ch32v30x_dma.o
 .text.DMA_GetCurrDataCounter
                0x0000000000000000        0x8 ./Peripheral/src/ch32v30x_dma.o
 .text          0x0000000000000000        0x0 ./Peripheral/src/ch32v30x_dvp.o
 .data          0x0000000000000000        0x0 ./Peripheral/src/ch32v30x_dvp.o
 .bss           0x0000000000000000        0x0 ./Peripheral/src/ch32v30x_dvp.o
 .text.DVP_INTCfg
                0x0000000000000000       0x16 ./Peripheral/src/ch32v30x_dvp.o
 .text.DVP_Mode
                0x0000000000000000       0x32 ./Peripheral/src/ch32v30x_dvp.o
 .text.DVP_Cfg  0x0000000000000000       0x62 ./Peripheral/src/ch32v30x_dvp.o
 .comment       0x0000000000000000       0x34 ./Peripheral/src/ch32v30x_dvp.o
 .text          0x0000000000000000        0x0 ./Peripheral/src/ch32v30x_eth.o
 .data          0x0000000000000000        0x0 ./Peripheral/src/ch32v30x_eth.o
 .bss           0x0000000000000000        0x0 ./Peripheral/src/ch32v30x_eth.o
 .text.ETH_HandleTxPkt
                0x0000000000000000       0x7e ./Peripheral/src/ch32v30x_eth.o
 .text.ETH_HandleRxPkt
                0x0000000000000000       0x94 ./Peripheral/src/ch32v30x_eth.o
 .text.ETH_GetRxPktSize
                0x0000000000000000       0x28 ./Peripheral/src/ch32v30x_eth.o
 .text.ETH_DropRxPkt
                0x0000000000000000       0x3c ./Peripheral/src/ch32v30x_eth.o
 .text.ETH_PHYLoopBackCmd
                0x0000000000000000       0x40 ./Peripheral/src/ch32v30x_eth.o
 .text.ETH_MACTransmissionCmd
                0x0000000000000000       0x14 ./Peripheral/src/ch32v30x_eth.o
 .text.ETH_MACReceptionCmd
                0x0000000000000000       0x14 ./Peripheral/src/ch32v30x_eth.o
 .text.ETH_GetFlowControlBusyStatus
                0x0000000000000000        0xa ./Peripheral/src/ch32v30x_eth.o
 .text.ETH_InitiatePauseControlFrame
                0x0000000000000000        0xe ./Peripheral/src/ch32v30x_eth.o
 .text.ETH_BackPressureActivationCmd
                0x0000000000000000       0x14 ./Peripheral/src/ch32v30x_eth.o
 .text.ETH_GetMACFlagStatus
                0x0000000000000000        0xe ./Peripheral/src/ch32v30x_eth.o
 .text.ETH_GetMACITStatus
                0x0000000000000000       0x18 ./Peripheral/src/ch32v30x_eth.o
 .text.ETH_MACITConfig
                0x0000000000000000       0x1e ./Peripheral/src/ch32v30x_eth.o
 .text.ETH_MACAddressConfig
                0x0000000000000000       0x32 ./Peripheral/src/ch32v30x_eth.o
 .text.ETH_GetMACAddress
                0x0000000000000000       0x32 ./Peripheral/src/ch32v30x_eth.o
 .text.ETH_MACAddressPerfectFilterCmd
                0x0000000000000000       0x1e ./Peripheral/src/ch32v30x_eth.o
 .text.ETH_MACAddressFilterConfig
                0x0000000000000000       0x28 ./Peripheral/src/ch32v30x_eth.o
 .text.ETH_MACAddressMaskBytesFilterConfig
                0x0000000000000000       0x1e ./Peripheral/src/ch32v30x_eth.o
 .text.ETH_DMATxDescRingInit
                0x0000000000000000       0x44 ./Peripheral/src/ch32v30x_eth.o
 .text.ETH_GetDMATxDescFlagStatus
                0x0000000000000000        0xa ./Peripheral/src/ch32v30x_eth.o
 .text.ETH_GetDMATxDescCollisionCount
                0x0000000000000000        0x8 ./Peripheral/src/ch32v30x_eth.o
 .text.ETH_SetDMATxDescOwnBit
                0x0000000000000000        0xc ./Peripheral/src/ch32v30x_eth.o
 .text.ETH_DMATxDescTransmitITConfig
                0x0000000000000000       0x18 ./Peripheral/src/ch32v30x_eth.o
 .text.ETH_DMATxDescFrameSegmentConfig
                0x0000000000000000        0x8 ./Peripheral/src/ch32v30x_eth.o
 .text.ETH_DMATxDescChecksumInsertionConfig
                0x0000000000000000        0x8 ./Peripheral/src/ch32v30x_eth.o
 .text.ETH_DMATxDescCRCCmd
                0x0000000000000000       0x18 ./Peripheral/src/ch32v30x_eth.o
 .text.ETH_DMATxDescEndOfRingCmd
                0x0000000000000000       0x18 ./Peripheral/src/ch32v30x_eth.o
 .text.ETH_DMATxDescSecondAddressChainedCmd
                0x0000000000000000       0x18 ./Peripheral/src/ch32v30x_eth.o
 .text.ETH_DMATxDescShortFramePaddingCmd
                0x0000000000000000       0x18 ./Peripheral/src/ch32v30x_eth.o
 .text.ETH_DMATxDescTimeStampCmd
                0x0000000000000000       0x18 ./Peripheral/src/ch32v30x_eth.o
 .text.ETH_DMATxDescBufferSizeConfig
                0x0000000000000000        0xc ./Peripheral/src/ch32v30x_eth.o
 .text.ETH_DMARxDescRingInit
                0x0000000000000000       0x52 ./Peripheral/src/ch32v30x_eth.o
 .text.ETH_GetDMARxDescFlagStatus
                0x0000000000000000        0xa ./Peripheral/src/ch32v30x_eth.o
 .text.ETH_SetDMARxDescOwnBit
                0x0000000000000000        0xc ./Peripheral/src/ch32v30x_eth.o
 .text.ETH_GetDMARxDescFrameLength
                0x0000000000000000        0x8 ./Peripheral/src/ch32v30x_eth.o
 .text.ETH_DMARxDescReceiveITConfig
                0x0000000000000000       0x14 ./Peripheral/src/ch32v30x_eth.o
 .text.ETH_DMARxDescEndOfRingCmd
                0x0000000000000000       0x14 ./Peripheral/src/ch32v30x_eth.o
 .text.ETH_DMARxDescSecondAddressChainedCmd
                0x0000000000000000       0x14 ./Peripheral/src/ch32v30x_eth.o
 .text.ETH_GetDMARxDescBufferSize
                0x0000000000000000        0xe ./Peripheral/src/ch32v30x_eth.o
 .text.ETH_GetSoftwareResetStatus
                0x0000000000000000       0x2c ./Peripheral/src/ch32v30x_eth.o
 .text.ETH_GetlinkStaus
                0x0000000000000000        0xa ./Peripheral/src/ch32v30x_eth.o
 .text.ETH_GetDMAFlagStatus
                0x0000000000000000        0xe ./Peripheral/src/ch32v30x_eth.o
 .text.ETH_DMAClearFlag
                0x0000000000000000        0x8 ./Peripheral/src/ch32v30x_eth.o
 .text.ETH_GetDMAITStatus
                0x0000000000000000       0x18 ./Peripheral/src/ch32v30x_eth.o
 .text.ETH_GetTransmitProcessState
                0x0000000000000000        0xa ./Peripheral/src/ch32v30x_eth.o
 .text.ETH_GetReceiveProcessState
                0x0000000000000000        0xc ./Peripheral/src/ch32v30x_eth.o
 .text.ETH_GetFlushTransmitFIFOStatus
                0x0000000000000000        0xc ./Peripheral/src/ch32v30x_eth.o
 .text.ETH_DMATransmissionCmd
                0x0000000000000000       0x20 ./Peripheral/src/ch32v30x_eth.o
 .text.ETH_DMAReceptionCmd
                0x0000000000000000       0x14 ./Peripheral/src/ch32v30x_eth.o
 .text.ETH_GetDMAOverflowStatus
                0x0000000000000000        0xe ./Peripheral/src/ch32v30x_eth.o
 .text.ETH_GetRxOverflowMissedFrameCounter
                0x0000000000000000        0xe ./Peripheral/src/ch32v30x_eth.o
 .text.ETH_GetBufferUnavailableMissedFrameCounter
                0x0000000000000000        0xc ./Peripheral/src/ch32v30x_eth.o
 .text.ETH_GetCurrentTxDescStartAddress
                0x0000000000000000        0x8 ./Peripheral/src/ch32v30x_eth.o
 .text.ETH_GetCurrentRxDescStartAddress
                0x0000000000000000        0x8 ./Peripheral/src/ch32v30x_eth.o
 .text.ETH_GetCurrentRxBufferAddress
                0x0000000000000000        0x8 ./Peripheral/src/ch32v30x_eth.o
 .text.ETH_ResumeDMATransmission
                0x0000000000000000        0xa ./Peripheral/src/ch32v30x_eth.o
 .text.ETH_ResumeDMAReception
                0x0000000000000000        0xa ./Peripheral/src/ch32v30x_eth.o
 .text.ETH_ResetWakeUpFrameFilterRegisterPointer
                0x0000000000000000       0x10 ./Peripheral/src/ch32v30x_eth.o
 .text.ETH_SetWakeUpFrameFilterRegister
                0x0000000000000000       0x14 ./Peripheral/src/ch32v30x_eth.o
 .text.ETH_GlobalUnicastWakeUpCmd
                0x0000000000000000       0x16 ./Peripheral/src/ch32v30x_eth.o
 .text.ETH_GetPMTFlagStatus
                0x0000000000000000        0xe ./Peripheral/src/ch32v30x_eth.o
 .text.ETH_WakeUpFrameDetectionCmd
                0x0000000000000000       0x14 ./Peripheral/src/ch32v30x_eth.o
 .text.ETH_MagicPacketDetectionCmd
                0x0000000000000000       0x14 ./Peripheral/src/ch32v30x_eth.o
 .text.ETH_PowerDownCmd
                0x0000000000000000       0x14 ./Peripheral/src/ch32v30x_eth.o
 .text.ETH_MMCCounterFreezeCmd
                0x0000000000000000       0x18 ./Peripheral/src/ch32v30x_eth.o
 .text.ETH_MMCResetOnReadCmd
                0x0000000000000000       0x18 ./Peripheral/src/ch32v30x_eth.o
 .text.ETH_MMCCounterRolloverCmd
                0x0000000000000000       0x18 ./Peripheral/src/ch32v30x_eth.o
 .text.ETH_MMCCountersReset
                0x0000000000000000       0x12 ./Peripheral/src/ch32v30x_eth.o
 .text.ETH_MMCITConfig
                0x0000000000000000       0x5c ./Peripheral/src/ch32v30x_eth.o
 .text.ETH_GetMMCITStatus
                0x0000000000000000       0x3a ./Peripheral/src/ch32v30x_eth.o
 .text.ETH_GetMMCRegister
                0x0000000000000000        0xa ./Peripheral/src/ch32v30x_eth.o
 .text.ETH_EnablePTPTimeStampAddend
                0x0000000000000000       0x12 ./Peripheral/src/ch32v30x_eth.o
 .text.ETH_EnablePTPTimeStampInterruptTrigger
                0x0000000000000000       0x12 ./Peripheral/src/ch32v30x_eth.o
 .text.ETH_EnablePTPTimeStampUpdate
                0x0000000000000000       0x12 ./Peripheral/src/ch32v30x_eth.o
 .text.ETH_InitializePTPTimeStamp
                0x0000000000000000       0x12 ./Peripheral/src/ch32v30x_eth.o
 .text.ETH_PTPUpdateMethodConfig
                0x0000000000000000       0x18 ./Peripheral/src/ch32v30x_eth.o
 .text.ETH_PTPTimeStampCmd
                0x0000000000000000       0x18 ./Peripheral/src/ch32v30x_eth.o
 .text.ETH_GetPTPFlagStatus
                0x0000000000000000       0x10 ./Peripheral/src/ch32v30x_eth.o
 .text.ETH_SetPTPSubSecondIncrement
                0x0000000000000000        0xa ./Peripheral/src/ch32v30x_eth.o
 .text.ETH_SetPTPTimeStampUpdate
                0x0000000000000000       0x10 ./Peripheral/src/ch32v30x_eth.o
 .text.ETH_SetPTPTimeStampAddend
                0x0000000000000000        0xa ./Peripheral/src/ch32v30x_eth.o
 .text.ETH_SetPTPTargetTime
                0x0000000000000000        0xe ./Peripheral/src/ch32v30x_eth.o
 .text.ETH_GetPTPRegister
                0x0000000000000000        0xa ./Peripheral/src/ch32v30x_eth.o
 .text.ETH_DMAPTPTxDescChainInit
                0x0000000000000000       0x64 ./Peripheral/src/ch32v30x_eth.o
 .text.ETH_DMAPTPRxDescChainInit
                0x0000000000000000       0x6e ./Peripheral/src/ch32v30x_eth.o
 .text.ETH_HandlePTPTxPkt
                0x0000000000000000       0xce ./Peripheral/src/ch32v30x_eth.o
 .text.ETH_HandlePTPRxPkt
                0x0000000000000000       0xc6 ./Peripheral/src/ch32v30x_eth.o
 .text.RGMII_TXC_Delay
                0x0000000000000000       0x26 ./Peripheral/src/ch32v30x_eth.o
 .rodata.ETH_GetSoftwareResetStatus.str1.4
                0x0000000000000000       0x15 ./Peripheral/src/ch32v30x_eth.o
 .sbss.DMAPTPRxDescToGet
                0x0000000000000000        0x4 ./Peripheral/src/ch32v30x_eth.o
 .sbss.DMAPTPTxDescToSet
                0x0000000000000000        0x4 ./Peripheral/src/ch32v30x_eth.o
 .text          0x0000000000000000        0x0 ./Peripheral/src/ch32v30x_exti.o
 .data          0x0000000000000000        0x0 ./Peripheral/src/ch32v30x_exti.o
 .bss           0x0000000000000000        0x0 ./Peripheral/src/ch32v30x_exti.o
 .text.EXTI_DeInit
                0x0000000000000000       0x22 ./Peripheral/src/ch32v30x_exti.o
 .text.EXTI_Init
                0x0000000000000000       0x6a ./Peripheral/src/ch32v30x_exti.o
 .text.EXTI_StructInit
                0x0000000000000000       0x12 ./Peripheral/src/ch32v30x_exti.o
 .text.EXTI_GenerateSWInterrupt
                0x0000000000000000       0x10 ./Peripheral/src/ch32v30x_exti.o
 .text.EXTI_GetFlagStatus
                0x0000000000000000       0x12 ./Peripheral/src/ch32v30x_exti.o
 .text.EXTI_ClearFlag
                0x0000000000000000        0xa ./Peripheral/src/ch32v30x_exti.o
 .text.EXTI_GetITStatus
                0x0000000000000000       0x1e ./Peripheral/src/ch32v30x_exti.o
 .text.EXTI_ClearITPendingBit
                0x0000000000000000        0xa ./Peripheral/src/ch32v30x_exti.o
 .comment       0x0000000000000000       0x34 ./Peripheral/src/ch32v30x_exti.o
 .text          0x0000000000000000        0x0 ./Peripheral/src/ch32v30x_flash.o
 .data          0x0000000000000000        0x0 ./Peripheral/src/ch32v30x_flash.o
 .bss           0x0000000000000000        0x0 ./Peripheral/src/ch32v30x_flash.o
 .text.FLASH_Unlock
                0x0000000000000000       0x1a ./Peripheral/src/ch32v30x_flash.o
 .text.FLASH_UnlockBank1
                0x0000000000000000       0x18 ./Peripheral/src/ch32v30x_flash.o
 .text.FLASH_Lock
                0x0000000000000000        0xe ./Peripheral/src/ch32v30x_flash.o
 .text.FLASH_LockBank1
                0x0000000000000000       0x18 ./Peripheral/src/ch32v30x_flash.o
 .text.FLASH_GetUserOptionByte
                0x0000000000000000        0xa ./Peripheral/src/ch32v30x_flash.o
 .text.FLASH_GetWriteProtectionOptionByte
                0x0000000000000000        0x8 ./Peripheral/src/ch32v30x_flash.o
 .text.FLASH_GetReadOutProtectionStatus
                0x0000000000000000        0xc ./Peripheral/src/ch32v30x_flash.o
 .text.FLASH_ITConfig
                0x0000000000000000       0x1e ./Peripheral/src/ch32v30x_flash.o
 .text.FLASH_GetFlagStatus
                0x0000000000000000       0x1e ./Peripheral/src/ch32v30x_flash.o
 .text.FLASH_ClearFlag
                0x0000000000000000        0x8 ./Peripheral/src/ch32v30x_flash.o
 .text.FLASH_GetStatus
                0x0000000000000000       0x20 ./Peripheral/src/ch32v30x_flash.o
 .text.FLASH_GetBank1Status
                0x0000000000000000       0x20 ./Peripheral/src/ch32v30x_flash.o
 .text.FLASH_WaitForLastOperation
                0x0000000000000000       0x34 ./Peripheral/src/ch32v30x_flash.o
 .text.FLASH_ErasePage
                0x0000000000000000       0x50 ./Peripheral/src/ch32v30x_flash.o
 .text.FLASH_EraseAllPages
                0x0000000000000000       0x4c ./Peripheral/src/ch32v30x_flash.o
 .text.FLASH_EraseAllBank1Pages
                0x0000000000000000       0x18 ./Peripheral/src/ch32v30x_flash.o
 .text.FLASH_EraseOptionBytes
                0x0000000000000000       0xfe ./Peripheral/src/ch32v30x_flash.o
 .text.FLASH_ProgramWord
                0x0000000000000000       0x6c ./Peripheral/src/ch32v30x_flash.o
 .text.FLASH_ProgramHalfWord
                0x0000000000000000       0x4c ./Peripheral/src/ch32v30x_flash.o
 .text.FLASH_ProgramOptionByteData
                0x0000000000000000      0x11a ./Peripheral/src/ch32v30x_flash.o
 .text.FLASH_EnableWriteProtection
                0x0000000000000000      0x106 ./Peripheral/src/ch32v30x_flash.o
 .text.FLASH_ReadOutProtection
                0x0000000000000000       0xf4 ./Peripheral/src/ch32v30x_flash.o
 .text.FLASH_UserOptionByteConfig
                0x0000000000000000      0x108 ./Peripheral/src/ch32v30x_flash.o
 .text.FLASH_WaitForLastBank1Operation
                0x0000000000000000       0x18 ./Peripheral/src/ch32v30x_flash.o
 .text.FLASH_Unlock_Fast
                0x0000000000000000       0x1e ./Peripheral/src/ch32v30x_flash.o
 .text.FLASH_Lock_Fast
                0x0000000000000000       0x18 ./Peripheral/src/ch32v30x_flash.o
 .text.FLASH_ErasePage_Fast
                0x0000000000000000       0x2e ./Peripheral/src/ch32v30x_flash.o
 .text.FLASH_EraseBlock_32K_Fast
                0x0000000000000000       0x30 ./Peripheral/src/ch32v30x_flash.o
 .text.FLASH_EraseBlock_64K_Fast
                0x0000000000000000       0x30 ./Peripheral/src/ch32v30x_flash.o
 .text.FLASH_ProgramPage_Fast
                0x0000000000000000       0x64 ./Peripheral/src/ch32v30x_flash.o
 .text.FLASH_Enhance_Mode
                0x0000000000000000       0x34 ./Peripheral/src/ch32v30x_flash.o
 .comment       0x0000000000000000       0x34 ./Peripheral/src/ch32v30x_flash.o
 .text          0x0000000000000000        0x0 ./Peripheral/src/ch32v30x_fsmc.o
 .data          0x0000000000000000        0x0 ./Peripheral/src/ch32v30x_fsmc.o
 .bss           0x0000000000000000        0x0 ./Peripheral/src/ch32v30x_fsmc.o
 .text.FSMC_NORSRAMDeInit
                0x0000000000000000       0x3c ./Peripheral/src/ch32v30x_fsmc.o
 .text.FSMC_NANDDeInit
                0x0000000000000000       0x26 ./Peripheral/src/ch32v30x_fsmc.o
 .text.FSMC_NORSRAMInit
                0x0000000000000000       0xba ./Peripheral/src/ch32v30x_fsmc.o
 .text.FSMC_NANDInit
                0x0000000000000000       0x84 ./Peripheral/src/ch32v30x_fsmc.o
 .text.FSMC_NORSRAMStructInit
                0x0000000000000000       0x60 ./Peripheral/src/ch32v30x_fsmc.o
 .text.FSMC_NANDStructInit
                0x0000000000000000       0x36 ./Peripheral/src/ch32v30x_fsmc.o
 .text.FSMC_NORSRAMCmd
                0x0000000000000000       0x1e ./Peripheral/src/ch32v30x_fsmc.o
 .text.FSMC_NANDCmd
                0x0000000000000000       0x2c ./Peripheral/src/ch32v30x_fsmc.o
 .text.FSMC_NANDECCCmd
                0x0000000000000000       0x2e ./Peripheral/src/ch32v30x_fsmc.o
 .text.FSMC_GetECC
                0x0000000000000000       0x12 ./Peripheral/src/ch32v30x_fsmc.o
 .text.FSMC_ITConfig
                0x0000000000000000       0x26 ./Peripheral/src/ch32v30x_fsmc.o
 .text.FSMC_GetFlagStatus
                0x0000000000000000       0x18 ./Peripheral/src/ch32v30x_fsmc.o
 .text.FSMC_ClearFlag
                0x0000000000000000       0x16 ./Peripheral/src/ch32v30x_fsmc.o
 .text.FSMC_GetITStatus
                0x0000000000000000       0x28 ./Peripheral/src/ch32v30x_fsmc.o
 .text.FSMC_ClearITPendingBit
                0x0000000000000000       0x18 ./Peripheral/src/ch32v30x_fsmc.o
 .comment       0x0000000000000000       0x34 ./Peripheral/src/ch32v30x_fsmc.o
 .text          0x0000000000000000        0x0 ./Peripheral/src/ch32v30x_gpio.o
 .data          0x0000000000000000        0x0 ./Peripheral/src/ch32v30x_gpio.o
 .bss           0x0000000000000000        0x0 ./Peripheral/src/ch32v30x_gpio.o
 .text.GPIO_DeInit
                0x0000000000000000       0xa4 ./Peripheral/src/ch32v30x_gpio.o
 .text.GPIO_AFIODeInit
                0x0000000000000000       0x28 ./Peripheral/src/ch32v30x_gpio.o
 .text.GPIO_StructInit
                0x0000000000000000        0xe ./Peripheral/src/ch32v30x_gpio.o
 .text.GPIO_ReadInputDataBit
                0x0000000000000000        0xa ./Peripheral/src/ch32v30x_gpio.o
 .text.GPIO_ReadInputData
                0x0000000000000000        0x8 ./Peripheral/src/ch32v30x_gpio.o
 .text.GPIO_ReadOutputDataBit
                0x0000000000000000        0xa ./Peripheral/src/ch32v30x_gpio.o
 .text.GPIO_ReadOutputData
                0x0000000000000000        0x8 ./Peripheral/src/ch32v30x_gpio.o
 .text.GPIO_WriteBit
                0x0000000000000000        0xa ./Peripheral/src/ch32v30x_gpio.o
 .text.GPIO_Write
                0x0000000000000000        0x4 ./Peripheral/src/ch32v30x_gpio.o
 .text.GPIO_PinLockConfig
                0x0000000000000000       0x10 ./Peripheral/src/ch32v30x_gpio.o
 .text.GPIO_EventOutputConfig
                0x0000000000000000       0x18 ./Peripheral/src/ch32v30x_gpio.o
 .text.GPIO_EventOutputCmd
                0x0000000000000000       0x16 ./Peripheral/src/ch32v30x_gpio.o
 .text.GPIO_PinRemapConfig
                0x0000000000000000       0xc4 ./Peripheral/src/ch32v30x_gpio.o
 .text.GPIO_EXTILineConfig
                0x0000000000000000       0x2c ./Peripheral/src/ch32v30x_gpio.o
 .text.GPIO_ETH_MediaInterfaceConfig
                0x0000000000000000       0x24 ./Peripheral/src/ch32v30x_gpio.o
 .text          0x0000000000000000        0x0 ./Peripheral/src/ch32v30x_i2c.o
 .data          0x0000000000000000        0x0 ./Peripheral/src/ch32v30x_i2c.o
 .bss           0x0000000000000000        0x0 ./Peripheral/src/ch32v30x_i2c.o
 .text.I2C_DeInit
                0x0000000000000000       0x4c ./Peripheral/src/ch32v30x_i2c.o
 .text.I2C_Init
                0x0000000000000000      0x100 ./Peripheral/src/ch32v30x_i2c.o
 .text.I2C_StructInit
                0x0000000000000000       0x18 ./Peripheral/src/ch32v30x_i2c.o
 .text.I2C_Cmd  0x0000000000000000       0x18 ./Peripheral/src/ch32v30x_i2c.o
 .text.I2C_DMACmd
                0x0000000000000000       0x1e ./Peripheral/src/ch32v30x_i2c.o
 .text.I2C_DMALastTransferCmd
                0x0000000000000000       0x16 ./Peripheral/src/ch32v30x_i2c.o
 .text.I2C_GenerateSTART
                0x0000000000000000       0x1a ./Peripheral/src/ch32v30x_i2c.o
 .text.I2C_GenerateSTOP
                0x0000000000000000       0x1a ./Peripheral/src/ch32v30x_i2c.o
 .text.I2C_AcknowledgeConfig
                0x0000000000000000       0x1a ./Peripheral/src/ch32v30x_i2c.o
 .text.I2C_OwnAddress2Config
                0x0000000000000000       0x14 ./Peripheral/src/ch32v30x_i2c.o
 .text.I2C_DualAddressCmd
                0x0000000000000000       0x18 ./Peripheral/src/ch32v30x_i2c.o
 .text.I2C_GeneralCallCmd
                0x0000000000000000       0x1a ./Peripheral/src/ch32v30x_i2c.o
 .text.I2C_ITConfig
                0x0000000000000000       0x12 ./Peripheral/src/ch32v30x_i2c.o
 .text.I2C_SendData
                0x0000000000000000        0x4 ./Peripheral/src/ch32v30x_i2c.o
 .text.I2C_ReceiveData
                0x0000000000000000        0x8 ./Peripheral/src/ch32v30x_i2c.o
 .text.I2C_Send7bitAddress
                0x0000000000000000       0x12 ./Peripheral/src/ch32v30x_i2c.o
 .text.I2C_ReadRegister
                0x0000000000000000       0x14 ./Peripheral/src/ch32v30x_i2c.o
 .text.I2C_SoftwareResetCmd
                0x0000000000000000       0x12 ./Peripheral/src/ch32v30x_i2c.o
 .text.I2C_NACKPositionConfig
                0x0000000000000000       0x22 ./Peripheral/src/ch32v30x_i2c.o
 .text.I2C_SMBusAlertConfig
                0x0000000000000000       0x1a ./Peripheral/src/ch32v30x_i2c.o
 .text.I2C_TransmitPEC
                0x0000000000000000       0x16 ./Peripheral/src/ch32v30x_i2c.o
 .text.I2C_PECPositionConfig
                0x0000000000000000       0x18 ./Peripheral/src/ch32v30x_i2c.o
 .text.I2C_CalculatePEC
                0x0000000000000000       0x1a ./Peripheral/src/ch32v30x_i2c.o
 .text.I2C_GetPEC
                0x0000000000000000        0x6 ./Peripheral/src/ch32v30x_i2c.o
 .text.I2C_ARPCmd
                0x0000000000000000       0x18 ./Peripheral/src/ch32v30x_i2c.o
 .text.I2C_StretchClockCmd
                0x0000000000000000       0x1a ./Peripheral/src/ch32v30x_i2c.o
 .text.I2C_FastModeDutyCycleConfig
                0x0000000000000000       0x1a ./Peripheral/src/ch32v30x_i2c.o
 .text.I2C_CheckEvent
                0x0000000000000000       0x16 ./Peripheral/src/ch32v30x_i2c.o
 .text.I2C_GetLastEvent
                0x0000000000000000        0xe ./Peripheral/src/ch32v30x_i2c.o
 .text.I2C_GetFlagStatus
                0x0000000000000000       0x32 ./Peripheral/src/ch32v30x_i2c.o
 .text.I2C_ClearFlag
                0x0000000000000000        0xc ./Peripheral/src/ch32v30x_i2c.o
 .text.I2C_GetITStatus
                0x0000000000000000       0x20 ./Peripheral/src/ch32v30x_i2c.o
 .text.I2C_ClearITPendingBit
                0x0000000000000000        0xc ./Peripheral/src/ch32v30x_i2c.o
 .comment       0x0000000000000000       0x34 ./Peripheral/src/ch32v30x_i2c.o
 .text          0x0000000000000000        0x0 ./Peripheral/src/ch32v30x_iwdg.o
 .data          0x0000000000000000        0x0 ./Peripheral/src/ch32v30x_iwdg.o
 .bss           0x0000000000000000        0x0 ./Peripheral/src/ch32v30x_iwdg.o
 .text.IWDG_WriteAccessCmd
                0x0000000000000000        0x8 ./Peripheral/src/ch32v30x_iwdg.o
 .text.IWDG_SetPrescaler
                0x0000000000000000        0x8 ./Peripheral/src/ch32v30x_iwdg.o
 .text.IWDG_SetReload
                0x0000000000000000        0x8 ./Peripheral/src/ch32v30x_iwdg.o
 .text.IWDG_ReloadCounter
                0x0000000000000000        0xe ./Peripheral/src/ch32v30x_iwdg.o
 .text.IWDG_Enable
                0x0000000000000000        0xe ./Peripheral/src/ch32v30x_iwdg.o
 .text.IWDG_GetFlagStatus
                0x0000000000000000        0xe ./Peripheral/src/ch32v30x_iwdg.o
 .comment       0x0000000000000000       0x34 ./Peripheral/src/ch32v30x_iwdg.o
 .text          0x0000000000000000        0x0 ./Peripheral/src/ch32v30x_misc.o
 .data          0x0000000000000000        0x0 ./Peripheral/src/ch32v30x_misc.o
 .bss           0x0000000000000000        0x0 ./Peripheral/src/ch32v30x_misc.o
 .text.NVIC_PriorityGroupConfig
                0x0000000000000000        0xa ./Peripheral/src/ch32v30x_misc.o
 .text          0x0000000000000000        0x0 ./Peripheral/src/ch32v30x_opa.o
 .data          0x0000000000000000        0x0 ./Peripheral/src/ch32v30x_opa.o
 .bss           0x0000000000000000        0x0 ./Peripheral/src/ch32v30x_opa.o
 .text.OPA_DeInit
                0x0000000000000000        0xa ./Peripheral/src/ch32v30x_opa.o
 .text.OPA_Init
                0x0000000000000000       0x36 ./Peripheral/src/ch32v30x_opa.o
 .text.OPA_StructInit
                0x0000000000000000       0x12 ./Peripheral/src/ch32v30x_opa.o
 .text.OPA_Cmd  0x0000000000000000       0x2c ./Peripheral/src/ch32v30x_opa.o
 .comment       0x0000000000000000       0x34 ./Peripheral/src/ch32v30x_opa.o
 .text          0x0000000000000000        0x0 ./Peripheral/src/ch32v30x_pwr.o
 .data          0x0000000000000000        0x0 ./Peripheral/src/ch32v30x_pwr.o
 .bss           0x0000000000000000        0x0 ./Peripheral/src/ch32v30x_pwr.o
 .text.PWR_DeInit
                0x0000000000000000       0x2c ./Peripheral/src/ch32v30x_pwr.o
 .text.PWR_BackupAccessCmd
                0x0000000000000000       0x16 ./Peripheral/src/ch32v30x_pwr.o
 .text.PWR_PVDCmd
                0x0000000000000000       0x14 ./Peripheral/src/ch32v30x_pwr.o
 .text.PWR_PVDLevelConfig
                0x0000000000000000       0x10 ./Peripheral/src/ch32v30x_pwr.o
 .text.PWR_WakeUpPinCmd
                0x0000000000000000       0x16 ./Peripheral/src/ch32v30x_pwr.o
 .text.PWR_EnterSTOPMode
                0x0000000000000000       0x68 ./Peripheral/src/ch32v30x_pwr.o
 .text.PWR_EnterSTANDBYMode
                0x0000000000000000       0x34 ./Peripheral/src/ch32v30x_pwr.o
 .text.PWR_GetFlagStatus
                0x0000000000000000        0xe ./Peripheral/src/ch32v30x_pwr.o
 .text.PWR_ClearFlag
                0x0000000000000000        0xe ./Peripheral/src/ch32v30x_pwr.o
 .text.PWR_EnterSTANDBYMode_RAM
                0x0000000000000000       0x30 ./Peripheral/src/ch32v30x_pwr.o
 .text.PWR_EnterSTANDBYMode_RAM_LV
                0x0000000000000000       0x30 ./Peripheral/src/ch32v30x_pwr.o
 .text.PWR_EnterSTANDBYMode_RAM_VBAT_EN
                0x0000000000000000       0x30 ./Peripheral/src/ch32v30x_pwr.o
 .text.PWR_EnterSTANDBYMode_RAM_LV_VBAT_EN
                0x0000000000000000       0x30 ./Peripheral/src/ch32v30x_pwr.o
 .comment       0x0000000000000000       0x34 ./Peripheral/src/ch32v30x_pwr.o
 .text          0x0000000000000000        0x0 ./Peripheral/src/ch32v30x_rcc.o
 .data          0x0000000000000000        0x0 ./Peripheral/src/ch32v30x_rcc.o
 .bss           0x0000000000000000        0x0 ./Peripheral/src/ch32v30x_rcc.o
 .text.RCC_DeInit
                0x0000000000000000       0x42 ./Peripheral/src/ch32v30x_rcc.o
 .text.RCC_HSEConfig
                0x0000000000000000       0x3c ./Peripheral/src/ch32v30x_rcc.o
 .text.RCC_AdjustHSICalibrationValue
                0x0000000000000000       0x12 ./Peripheral/src/ch32v30x_rcc.o
 .text.RCC_HSICmd
                0x0000000000000000       0x14 ./Peripheral/src/ch32v30x_rcc.o
 .text.RCC_PLLConfig
                0x0000000000000000       0x2e ./Peripheral/src/ch32v30x_rcc.o
 .text.RCC_PLLCmd
                0x0000000000000000       0x24 ./Peripheral/src/ch32v30x_rcc.o
 .text.RCC_SYSCLKConfig
                0x0000000000000000        0xe ./Peripheral/src/ch32v30x_rcc.o
 .text.RCC_GetSYSCLKSource
                0x0000000000000000        0xa ./Peripheral/src/ch32v30x_rcc.o
 .text.RCC_HCLKConfig
                0x0000000000000000       0x10 ./Peripheral/src/ch32v30x_rcc.o
 .text.RCC_PCLK1Config
                0x0000000000000000       0x10 ./Peripheral/src/ch32v30x_rcc.o
 .text.RCC_PCLK2Config
                0x0000000000000000       0x16 ./Peripheral/src/ch32v30x_rcc.o
 .text.RCC_ITConfig
                0x0000000000000000       0x16 ./Peripheral/src/ch32v30x_rcc.o
 .text.RCC_ADCCLKConfig
                0x0000000000000000       0x12 ./Peripheral/src/ch32v30x_rcc.o
 .text.RCC_LSEConfig
                0x0000000000000000       0x28 ./Peripheral/src/ch32v30x_rcc.o
 .text.RCC_LSICmd
                0x0000000000000000       0x14 ./Peripheral/src/ch32v30x_rcc.o
 .text.RCC_RTCCLKConfig
                0x0000000000000000        0xc ./Peripheral/src/ch32v30x_rcc.o
 .text.RCC_RTCCLKCmd
                0x0000000000000000       0x20 ./Peripheral/src/ch32v30x_rcc.o
 .text.RCC_APB2PeriphResetCmd
                0x0000000000000000       0x1e ./Peripheral/src/ch32v30x_rcc.o
 .text.RCC_APB1PeriphResetCmd
                0x0000000000000000       0x1e ./Peripheral/src/ch32v30x_rcc.o
 .text.RCC_BackupResetCmd
                0x0000000000000000       0x20 ./Peripheral/src/ch32v30x_rcc.o
 .text.RCC_ClockSecuritySystemCmd
                0x0000000000000000       0x24 ./Peripheral/src/ch32v30x_rcc.o
 .text.RCC_WaitForHSEStartUp
                0x0000000000000000       0x44 ./Peripheral/src/ch32v30x_rcc.o
 .text.RCC_ClearFlag
                0x0000000000000000       0x10 ./Peripheral/src/ch32v30x_rcc.o
 .text.RCC_GetITStatus
                0x0000000000000000        0xe ./Peripheral/src/ch32v30x_rcc.o
 .text.RCC_ClearITPendingBit
                0x0000000000000000        0x8 ./Peripheral/src/ch32v30x_rcc.o
 .text.RCC_PREDIV1Config
                0x0000000000000000       0x14 ./Peripheral/src/ch32v30x_rcc.o
 .text.RCC_PLL2Config
                0x0000000000000000       0x14 ./Peripheral/src/ch32v30x_rcc.o
 .text.RCC_PLL2Cmd
                0x0000000000000000       0x24 ./Peripheral/src/ch32v30x_rcc.o
 .text.RCC_OTGFSCLKConfig
                0x0000000000000000       0x1a ./Peripheral/src/ch32v30x_rcc.o
 .text.RCC_I2S2CLKConfig
                0x0000000000000000       0x18 ./Peripheral/src/ch32v30x_rcc.o
 .text.RCC_I2S3CLKConfig
                0x0000000000000000       0x1a ./Peripheral/src/ch32v30x_rcc.o
 .text.RCC_ADCCLKADJcmd
                0x0000000000000000       0x18 ./Peripheral/src/ch32v30x_rcc.o
 .text.RCC_RNGCLKConfig
                0x0000000000000000       0x1a ./Peripheral/src/ch32v30x_rcc.o
 .text.RCC_ETH1GCLKConfig
                0x0000000000000000       0x1a ./Peripheral/src/ch32v30x_rcc.o
 .text.RCC_ETH1G_125Mcmd
                0x0000000000000000       0x24 ./Peripheral/src/ch32v30x_rcc.o
 .text.RCC_USBHSConfig
                0x0000000000000000       0x1a ./Peripheral/src/ch32v30x_rcc.o
 .text.RCC_USBHSPLLCLKConfig
                0x0000000000000000       0x1a ./Peripheral/src/ch32v30x_rcc.o
 .text.RCC_USBHSPLLCKREFCLKConfig
                0x0000000000000000       0x1a ./Peripheral/src/ch32v30x_rcc.o
 .text.RCC_USBHSPHYPLLALIVEcmd
                0x0000000000000000       0x24 ./Peripheral/src/ch32v30x_rcc.o
 .text.RCC_USBCLK48MConfig
                0x0000000000000000       0x16 ./Peripheral/src/ch32v30x_rcc.o
 .text          0x0000000000000000        0x0 ./Peripheral/src/ch32v30x_rng.o
 .data          0x0000000000000000        0x0 ./Peripheral/src/ch32v30x_rng.o
 .bss           0x0000000000000000        0x0 ./Peripheral/src/ch32v30x_rng.o
 .text.RNG_Cmd  0x0000000000000000       0x18 ./Peripheral/src/ch32v30x_rng.o
 .text.RNG_GetRandomNumber
                0x0000000000000000        0xa ./Peripheral/src/ch32v30x_rng.o
 .text.RNG_ITConfig
                0x0000000000000000       0x18 ./Peripheral/src/ch32v30x_rng.o
 .text.RNG_GetFlagStatus
                0x0000000000000000       0x12 ./Peripheral/src/ch32v30x_rng.o
 .text.RNG_ClearFlag
                0x0000000000000000       0x10 ./Peripheral/src/ch32v30x_rng.o
 .text.RNG_GetITStatus
                0x0000000000000000       0x18 ./Peripheral/src/ch32v30x_rng.o
 .text.RNG_ClearITPendingBit
                0x0000000000000000       0x12 ./Peripheral/src/ch32v30x_rng.o
 .comment       0x0000000000000000       0x34 ./Peripheral/src/ch32v30x_rng.o
 .text          0x0000000000000000        0x0 ./Peripheral/src/ch32v30x_rtc.o
 .data          0x0000000000000000        0x0 ./Peripheral/src/ch32v30x_rtc.o
 .bss           0x0000000000000000        0x0 ./Peripheral/src/ch32v30x_rtc.o
 .text.RTC_ITConfig
                0x0000000000000000       0x1a ./Peripheral/src/ch32v30x_rtc.o
 .text.RTC_EnterConfigMode
                0x0000000000000000       0x12 ./Peripheral/src/ch32v30x_rtc.o
 .text.RTC_ExitConfigMode
                0x0000000000000000       0x18 ./Peripheral/src/ch32v30x_rtc.o
 .text.RTC_GetCounter
                0x0000000000000000       0x36 ./Peripheral/src/ch32v30x_rtc.o
 .text.RTC_SetCounter
                0x0000000000000000       0x3c ./Peripheral/src/ch32v30x_rtc.o
 .text.RTC_SetPrescaler
                0x0000000000000000       0x3e ./Peripheral/src/ch32v30x_rtc.o
 .text.RTC_SetAlarm
                0x0000000000000000       0x3c ./Peripheral/src/ch32v30x_rtc.o
 .text.RTC_GetDivider
                0x0000000000000000       0x18 ./Peripheral/src/ch32v30x_rtc.o
 .text.RTC_WaitForLastTask
                0x0000000000000000       0x10 ./Peripheral/src/ch32v30x_rtc.o
 .text.RTC_WaitForSynchro
                0x0000000000000000       0x24 ./Peripheral/src/ch32v30x_rtc.o
 .text.RTC_GetFlagStatus
                0x0000000000000000       0x12 ./Peripheral/src/ch32v30x_rtc.o
 .text.RTC_ClearFlag
                0x0000000000000000       0x14 ./Peripheral/src/ch32v30x_rtc.o
 .text.RTC_GetITStatus
                0x0000000000000000       0x20 ./Peripheral/src/ch32v30x_rtc.o
 .text.RTC_ClearITPendingBit
                0x0000000000000000       0x18 ./Peripheral/src/ch32v30x_rtc.o
 .comment       0x0000000000000000       0x34 ./Peripheral/src/ch32v30x_rtc.o
 .text          0x0000000000000000        0x0 ./Peripheral/src/ch32v30x_sdio.o
 .data          0x0000000000000000        0x0 ./Peripheral/src/ch32v30x_sdio.o
 .bss           0x0000000000000000        0x0 ./Peripheral/src/ch32v30x_sdio.o
 .text.SDIO_DeInit
                0x0000000000000000       0x30 ./Peripheral/src/ch32v30x_sdio.o
 .text.SDIO_Init
                0x0000000000000000       0x2a ./Peripheral/src/ch32v30x_sdio.o
 .text.SDIO_StructInit
                0x0000000000000000       0x1a ./Peripheral/src/ch32v30x_sdio.o
 .text.SDIO_ClockCmd
                0x0000000000000000       0x16 ./Peripheral/src/ch32v30x_sdio.o
 .text.SDIO_SetPowerState
                0x0000000000000000       0x12 ./Peripheral/src/ch32v30x_sdio.o
 .text.SDIO_GetPowerState
                0x0000000000000000        0xa ./Peripheral/src/ch32v30x_sdio.o
 .text.SDIO_ITConfig
                0x0000000000000000       0x1e ./Peripheral/src/ch32v30x_sdio.o
 .text.SDIO_DMACmd
                0x0000000000000000       0x14 ./Peripheral/src/ch32v30x_sdio.o
 .text.SDIO_SendCommand
                0x0000000000000000       0x22 ./Peripheral/src/ch32v30x_sdio.o
 .text.SDIO_CmdStructInit
                0x0000000000000000       0x16 ./Peripheral/src/ch32v30x_sdio.o
 .text.SDIO_GetCommandResponse
                0x0000000000000000        0xc ./Peripheral/src/ch32v30x_sdio.o
 .text.SDIO_GetResponse
                0x0000000000000000       0x16 ./Peripheral/src/ch32v30x_sdio.o
 .text.SDIO_DataConfig
                0x0000000000000000       0x26 ./Peripheral/src/ch32v30x_sdio.o
 .text.SDIO_DataStructInit
                0x0000000000000000       0x1a ./Peripheral/src/ch32v30x_sdio.o
 .text.SDIO_GetDataCounter
                0x0000000000000000        0x8 ./Peripheral/src/ch32v30x_sdio.o
 .text.SDIO_ReadData
                0x0000000000000000        0xa ./Peripheral/src/ch32v30x_sdio.o
 .text.SDIO_WriteData
                0x0000000000000000        0xa ./Peripheral/src/ch32v30x_sdio.o
 .text.SDIO_GetFIFOCount
                0x0000000000000000        0x8 ./Peripheral/src/ch32v30x_sdio.o
 .text.SDIO_StartSDIOReadWait
                0x0000000000000000       0x16 ./Peripheral/src/ch32v30x_sdio.o
 .text.SDIO_StopSDIOReadWait
                0x0000000000000000       0x16 ./Peripheral/src/ch32v30x_sdio.o
 .text.SDIO_SetSDIOReadWaitMode
                0x0000000000000000       0x16 ./Peripheral/src/ch32v30x_sdio.o
 .text.SDIO_SetSDIOOperation
                0x0000000000000000       0x1e ./Peripheral/src/ch32v30x_sdio.o
 .text.SDIO_SendSDIOSuspendCmd
                0x0000000000000000       0x1e ./Peripheral/src/ch32v30x_sdio.o
 .text.SDIO_CommandCompletionCmd
                0x0000000000000000       0x20 ./Peripheral/src/ch32v30x_sdio.o
 .text.SDIO_CEATAITCmd
                0x0000000000000000       0x20 ./Peripheral/src/ch32v30x_sdio.o
 .text.SDIO_SendCEATACmd
                0x0000000000000000       0x20 ./Peripheral/src/ch32v30x_sdio.o
 .text.SDIO_GetFlagStatus
                0x0000000000000000        0xe ./Peripheral/src/ch32v30x_sdio.o
 .text.SDIO_ClearFlag
                0x0000000000000000        0x8 ./Peripheral/src/ch32v30x_sdio.o
 .text.SDIO_GetITStatus
                0x0000000000000000       0x18 ./Peripheral/src/ch32v30x_sdio.o
 .text.SDIO_ClearITPendingBit
                0x0000000000000000        0x8 ./Peripheral/src/ch32v30x_sdio.o
 .comment       0x0000000000000000       0x34 ./Peripheral/src/ch32v30x_sdio.o
 .text          0x0000000000000000        0x0 ./Peripheral/src/ch32v30x_spi.o
 .data          0x0000000000000000        0x0 ./Peripheral/src/ch32v30x_spi.o
 .bss           0x0000000000000000        0x0 ./Peripheral/src/ch32v30x_spi.o
 .text.SPI_I2S_DeInit
                0x0000000000000000       0x70 ./Peripheral/src/ch32v30x_spi.o
 .text.SPI_Init
                0x0000000000000000       0x3e ./Peripheral/src/ch32v30x_spi.o
 .text.I2S_Init
                0x0000000000000000       0xc6 ./Peripheral/src/ch32v30x_spi.o
 .text.SPI_StructInit
                0x0000000000000000       0x22 ./Peripheral/src/ch32v30x_spi.o
 .text.I2S_StructInit
                0x0000000000000000       0x12 ./Peripheral/src/ch32v30x_spi.o
 .text.SPI_Cmd  0x0000000000000000       0x1a ./Peripheral/src/ch32v30x_spi.o
 .text.I2S_Cmd  0x0000000000000000       0x1a ./Peripheral/src/ch32v30x_spi.o
 .text.SPI_I2S_ITConfig
                0x0000000000000000       0x1e ./Peripheral/src/ch32v30x_spi.o
 .text.SPI_I2S_DMACmd
                0x0000000000000000       0x12 ./Peripheral/src/ch32v30x_spi.o
 .text.SPI_I2S_SendData
                0x0000000000000000        0x4 ./Peripheral/src/ch32v30x_spi.o
 .text.SPI_I2S_ReceiveData
                0x0000000000000000        0x4 ./Peripheral/src/ch32v30x_spi.o
 .text.SPI_NSSInternalSoftwareConfig
                0x0000000000000000       0x24 ./Peripheral/src/ch32v30x_spi.o
 .text.SPI_SSOutputCmd
                0x0000000000000000       0x18 ./Peripheral/src/ch32v30x_spi.o
 .text.SPI_DataSizeConfig
                0x0000000000000000       0x14 ./Peripheral/src/ch32v30x_spi.o
 .text.SPI_TransmitCRC
                0x0000000000000000        0xa ./Peripheral/src/ch32v30x_spi.o
 .text.SPI_CalculateCRC
                0x0000000000000000       0x16 ./Peripheral/src/ch32v30x_spi.o
 .text.SPI_GetCRC
                0x0000000000000000       0x12 ./Peripheral/src/ch32v30x_spi.o
 .text.SPI_GetCRCPolynomial
                0x0000000000000000        0x4 ./Peripheral/src/ch32v30x_spi.o
 .text.SPI_BiDirectionalLineConfig
                0x0000000000000000       0x1a ./Peripheral/src/ch32v30x_spi.o
 .text.SPI_I2S_GetFlagStatus
                0x0000000000000000        0xa ./Peripheral/src/ch32v30x_spi.o
 .text.SPI_I2S_ClearFlag
                0x0000000000000000        0xc ./Peripheral/src/ch32v30x_spi.o
 .text.SPI_I2S_GetITStatus
                0x0000000000000000       0x28 ./Peripheral/src/ch32v30x_spi.o
 .text.SPI_I2S_ClearITPendingBit
                0x0000000000000000       0x14 ./Peripheral/src/ch32v30x_spi.o
 .comment       0x0000000000000000       0x34 ./Peripheral/src/ch32v30x_spi.o
 .text          0x0000000000000000        0x0 ./Peripheral/src/ch32v30x_tim.o
 .data          0x0000000000000000        0x0 ./Peripheral/src/ch32v30x_tim.o
 .bss           0x0000000000000000        0x0 ./Peripheral/src/ch32v30x_tim.o
 .text.TI1_Config
                0x0000000000000000       0x82 ./Peripheral/src/ch32v30x_tim.o
 .text.TI2_Config
                0x0000000000000000       0x9a ./Peripheral/src/ch32v30x_tim.o
 .text.TIM_DeInit
                0x0000000000000000      0x138 ./Peripheral/src/ch32v30x_tim.o
 .text.TIM_OC1Init
                0x0000000000000000       0x82 ./Peripheral/src/ch32v30x_tim.o
 .text.TIM_OC2Init
                0x0000000000000000       0xae ./Peripheral/src/ch32v30x_tim.o
 .text.TIM_OC3Init
                0x0000000000000000       0xac ./Peripheral/src/ch32v30x_tim.o
 .text.TIM_OC4Init
                0x0000000000000000       0x88 ./Peripheral/src/ch32v30x_tim.o
 .text.TIM_BDTRConfig
                0x0000000000000000       0x20 ./Peripheral/src/ch32v30x_tim.o
 .text.TIM_TimeBaseStructInit
                0x0000000000000000       0x16 ./Peripheral/src/ch32v30x_tim.o
 .text.TIM_OCStructInit
                0x0000000000000000       0x22 ./Peripheral/src/ch32v30x_tim.o
 .text.TIM_ICStructInit
                0x0000000000000000       0x16 ./Peripheral/src/ch32v30x_tim.o
 .text.TIM_BDTRStructInit
                0x0000000000000000       0x1e ./Peripheral/src/ch32v30x_tim.o
 .text.TIM_CtrlPWMOutputs
                0x0000000000000000       0x16 ./Peripheral/src/ch32v30x_tim.o
 .text.TIM_GenerateEvent
                0x0000000000000000        0x4 ./Peripheral/src/ch32v30x_tim.o
 .text.TIM_DMAConfig
                0x0000000000000000        0x8 ./Peripheral/src/ch32v30x_tim.o
 .text.TIM_DMACmd
                0x0000000000000000       0x18 ./Peripheral/src/ch32v30x_tim.o
 .text.TIM_InternalClockConfig
                0x0000000000000000       0x10 ./Peripheral/src/ch32v30x_tim.o
 .text.TIM_ITRxExternalClockConfig
                0x0000000000000000       0x18 ./Peripheral/src/ch32v30x_tim.o
 .text.TIM_TIxExternalClockConfig
                0x0000000000000000       0x48 ./Peripheral/src/ch32v30x_tim.o
 .text.TIM_ETRConfig
                0x0000000000000000       0x16 ./Peripheral/src/ch32v30x_tim.o
 .text.TIM_ETRClockMode1Config
                0x0000000000000000       0x2a ./Peripheral/src/ch32v30x_tim.o
 .text.TIM_ETRClockMode2Config
                0x0000000000000000       0x22 ./Peripheral/src/ch32v30x_tim.o
 .text.TIM_PrescalerConfig
                0x0000000000000000        0x6 ./Peripheral/src/ch32v30x_tim.o
 .text.TIM_CounterModeConfig
                0x0000000000000000       0x10 ./Peripheral/src/ch32v30x_tim.o
 .text.TIM_SelectInputTrigger
                0x0000000000000000       0x10 ./Peripheral/src/ch32v30x_tim.o
 .text.TIM_EncoderInterfaceConfig
                0x0000000000000000       0x3c ./Peripheral/src/ch32v30x_tim.o
 .text.TIM_ForcedOC1Config
                0x0000000000000000       0x10 ./Peripheral/src/ch32v30x_tim.o
 .text.TIM_ForcedOC2Config
                0x0000000000000000       0x14 ./Peripheral/src/ch32v30x_tim.o
 .text.TIM_ForcedOC3Config
                0x0000000000000000       0x10 ./Peripheral/src/ch32v30x_tim.o
 .text.TIM_ForcedOC4Config
                0x0000000000000000       0x14 ./Peripheral/src/ch32v30x_tim.o
 .text.TIM_ARRPreloadConfig
                0x0000000000000000       0x1a ./Peripheral/src/ch32v30x_tim.o
 .text.TIM_SelectCOM
                0x0000000000000000       0x18 ./Peripheral/src/ch32v30x_tim.o
 .text.TIM_SelectCCDMA
                0x0000000000000000       0x18 ./Peripheral/src/ch32v30x_tim.o
 .text.TIM_CCPreloadControl
                0x0000000000000000       0x18 ./Peripheral/src/ch32v30x_tim.o
 .text.TIM_OC1PreloadConfig
                0x0000000000000000        0xe ./Peripheral/src/ch32v30x_tim.o
 .text.TIM_OC2PreloadConfig
                0x0000000000000000       0x16 ./Peripheral/src/ch32v30x_tim.o
 .text.TIM_OC3PreloadConfig
                0x0000000000000000        0xe ./Peripheral/src/ch32v30x_tim.o
 .text.TIM_OC4PreloadConfig
                0x0000000000000000       0x16 ./Peripheral/src/ch32v30x_tim.o
 .text.TIM_OC1FastConfig
                0x0000000000000000        0xe ./Peripheral/src/ch32v30x_tim.o
 .text.TIM_OC2FastConfig
                0x0000000000000000       0x16 ./Peripheral/src/ch32v30x_tim.o
 .text.TIM_OC3FastConfig
                0x0000000000000000        0xe ./Peripheral/src/ch32v30x_tim.o
 .text.TIM_OC4FastConfig
                0x0000000000000000       0x16 ./Peripheral/src/ch32v30x_tim.o
 .text.TIM_ClearOC1Ref
                0x0000000000000000       0x10 ./Peripheral/src/ch32v30x_tim.o
 .text.TIM_ClearOC2Ref
                0x0000000000000000       0x12 ./Peripheral/src/ch32v30x_tim.o
 .text.TIM_ClearOC3Ref
                0x0000000000000000       0x10 ./Peripheral/src/ch32v30x_tim.o
 .text.TIM_ClearOC4Ref
                0x0000000000000000       0x12 ./Peripheral/src/ch32v30x_tim.o
 .text.TIM_OC1PolarityConfig
                0x0000000000000000        0xe ./Peripheral/src/ch32v30x_tim.o
 .text.TIM_OC1NPolarityConfig
                0x0000000000000000        0xe ./Peripheral/src/ch32v30x_tim.o
 .text.TIM_OC2PolarityConfig
                0x0000000000000000       0x16 ./Peripheral/src/ch32v30x_tim.o
 .text.TIM_OC2NPolarityConfig
                0x0000000000000000       0x16 ./Peripheral/src/ch32v30x_tim.o
 .text.TIM_OC3PolarityConfig
                0x0000000000000000       0x16 ./Peripheral/src/ch32v30x_tim.o
 .text.TIM_OC3NPolarityConfig
                0x0000000000000000       0x16 ./Peripheral/src/ch32v30x_tim.o
 .text.TIM_OC4PolarityConfig
                0x0000000000000000       0x14 ./Peripheral/src/ch32v30x_tim.o
 .text.TIM_CCxCmd
                0x0000000000000000       0x20 ./Peripheral/src/ch32v30x_tim.o
 .text.TIM_CCxNCmd
                0x0000000000000000       0x20 ./Peripheral/src/ch32v30x_tim.o
 .text.TIM_SelectOCxM
                0x0000000000000000       0x4c ./Peripheral/src/ch32v30x_tim.o
 .text.TIM_UpdateDisableConfig
                0x0000000000000000       0x18 ./Peripheral/src/ch32v30x_tim.o
 .text.TIM_UpdateRequestConfig
                0x0000000000000000       0x18 ./Peripheral/src/ch32v30x_tim.o
 .text.TIM_SelectHallSensor
                0x0000000000000000       0x1a ./Peripheral/src/ch32v30x_tim.o
 .text.TIM_SelectOnePulseMode
                0x0000000000000000       0x16 ./Peripheral/src/ch32v30x_tim.o
 .text.TIM_SelectOutputTrigger
                0x0000000000000000       0x18 ./Peripheral/src/ch32v30x_tim.o
 .text.TIM_SelectSlaveMode
                0x0000000000000000       0x16 ./Peripheral/src/ch32v30x_tim.o
 .text.TIM_SelectMasterSlaveMode
                0x0000000000000000       0x18 ./Peripheral/src/ch32v30x_tim.o
 .text.TIM_SetCounter
                0x0000000000000000        0x4 ./Peripheral/src/ch32v30x_tim.o
 .text.TIM_SetAutoreload
                0x0000000000000000        0x4 ./Peripheral/src/ch32v30x_tim.o
 .text.TIM_SetCompare1
                0x0000000000000000        0x4 ./Peripheral/src/ch32v30x_tim.o
 .text.TIM_SetCompare2
                0x0000000000000000        0x4 ./Peripheral/src/ch32v30x_tim.o
 .text.TIM_SetCompare3
                0x0000000000000000        0x4 ./Peripheral/src/ch32v30x_tim.o
 .text.TIM_SetCompare4
                0x0000000000000000        0x6 ./Peripheral/src/ch32v30x_tim.o
 .text.TIM_SetIC1Prescaler
                0x0000000000000000       0x16 ./Peripheral/src/ch32v30x_tim.o
 .text.TIM_SetIC2Prescaler
                0x0000000000000000       0x1a ./Peripheral/src/ch32v30x_tim.o
 .text.TIM_PWMIConfig
                0x0000000000000000       0x92 ./Peripheral/src/ch32v30x_tim.o
 .text.TIM_SetIC3Prescaler
                0x0000000000000000       0x16 ./Peripheral/src/ch32v30x_tim.o
 .text.TIM_SetIC4Prescaler
                0x0000000000000000       0x1a ./Peripheral/src/ch32v30x_tim.o
 .text.TIM_ICInit
                0x0000000000000000      0x1c0 ./Peripheral/src/ch32v30x_tim.o
 .text.TIM_SetClockDivision
                0x0000000000000000       0x18 ./Peripheral/src/ch32v30x_tim.o
 .text.TIM_GetCapture1
                0x0000000000000000        0x4 ./Peripheral/src/ch32v30x_tim.o
 .text.TIM_GetCapture2
                0x0000000000000000        0x4 ./Peripheral/src/ch32v30x_tim.o
 .text.TIM_GetCapture3
                0x0000000000000000        0x4 ./Peripheral/src/ch32v30x_tim.o
 .text.TIM_GetCapture4
                0x0000000000000000        0x6 ./Peripheral/src/ch32v30x_tim.o
 .text.TIM_GetCounter
                0x0000000000000000        0x4 ./Peripheral/src/ch32v30x_tim.o
 .text.TIM_GetPrescaler
                0x0000000000000000        0x4 ./Peripheral/src/ch32v30x_tim.o
 .text.TIM_GetFlagStatus
                0x0000000000000000        0xa ./Peripheral/src/ch32v30x_tim.o
 .text.TIM_ClearFlag
                0x0000000000000000        0xc ./Peripheral/src/ch32v30x_tim.o
 .text.TIM_GetITStatus
                0x0000000000000000       0x18 ./Peripheral/src/ch32v30x_tim.o
 .text          0x0000000000000000        0x0 ./Peripheral/src/ch32v30x_usart.o
 .data          0x0000000000000000        0x0 ./Peripheral/src/ch32v30x_usart.o
 .bss           0x0000000000000000        0x0 ./Peripheral/src/ch32v30x_usart.o
 .text.USART_DeInit
                0x0000000000000000       0xb8 ./Peripheral/src/ch32v30x_usart.o
 .text.USART_StructInit
                0x0000000000000000       0x18 ./Peripheral/src/ch32v30x_usart.o
 .text.USART_ClockInit
                0x0000000000000000       0x1e ./Peripheral/src/ch32v30x_usart.o
 .text.USART_ClockStructInit
                0x0000000000000000       0x12 ./Peripheral/src/ch32v30x_usart.o
 .text.USART_ITConfig
                0x0000000000000000       0x36 ./Peripheral/src/ch32v30x_usart.o
 .text.USART_SetAddress
                0x0000000000000000       0x16 ./Peripheral/src/ch32v30x_usart.o
 .text.USART_WakeUpConfig
                0x0000000000000000       0x14 ./Peripheral/src/ch32v30x_usart.o
 .text.USART_ReceiverWakeUpCmd
                0x0000000000000000       0x18 ./Peripheral/src/ch32v30x_usart.o
 .text.USART_LINBreakDetectLengthConfig
                0x0000000000000000       0x18 ./Peripheral/src/ch32v30x_usart.o
 .text.USART_LINCmd
                0x0000000000000000       0x16 ./Peripheral/src/ch32v30x_usart.o
 .text.USART_ReceiveData
                0x0000000000000000        0x8 ./Peripheral/src/ch32v30x_usart.o
 .text.USART_SendBreak
                0x0000000000000000        0xa ./Peripheral/src/ch32v30x_usart.o
 .text.USART_SetGuardTime
                0x0000000000000000       0x12 ./Peripheral/src/ch32v30x_usart.o
 .text.USART_SetPrescaler
                0x0000000000000000       0x18 ./Peripheral/src/ch32v30x_usart.o
 .text.USART_SmartCardCmd
                0x0000000000000000       0x1a ./Peripheral/src/ch32v30x_usart.o
 .text.USART_SmartCardNACKCmd
                0x0000000000000000       0x18 ./Peripheral/src/ch32v30x_usart.o
 .text.USART_HalfDuplexCmd
                0x0000000000000000       0x18 ./Peripheral/src/ch32v30x_usart.o
 .text.USART_OverSampling8Cmd
                0x0000000000000000       0x12 ./Peripheral/src/ch32v30x_usart.o
 .text.USART_OneBitMethodCmd
                0x0000000000000000       0x1e ./Peripheral/src/ch32v30x_usart.o
 .text.USART_IrDAConfig
                0x0000000000000000       0x16 ./Peripheral/src/ch32v30x_usart.o
 .text.USART_IrDACmd
                0x0000000000000000       0x18 ./Peripheral/src/ch32v30x_usart.o
 .text.USART_ClearFlag
                0x0000000000000000        0xc ./Peripheral/src/ch32v30x_usart.o
 .text.USART_GetITStatus
                0x0000000000000000       0x3c ./Peripheral/src/ch32v30x_usart.o
 .text.USART_ClearITPendingBit
                0x0000000000000000       0x14 ./Peripheral/src/ch32v30x_usart.o
 .text          0x0000000000000000        0x0 ./Peripheral/src/ch32v30x_wwdg.o
 .data          0x0000000000000000        0x0 ./Peripheral/src/ch32v30x_wwdg.o
 .bss           0x0000000000000000        0x0 ./Peripheral/src/ch32v30x_wwdg.o
 .text.WWDG_DeInit
                0x0000000000000000       0x2e ./Peripheral/src/ch32v30x_wwdg.o
 .text.WWDG_SetPrescaler
                0x0000000000000000       0x14 ./Peripheral/src/ch32v30x_wwdg.o
 .text.WWDG_SetWindowValue
                0x0000000000000000       0x26 ./Peripheral/src/ch32v30x_wwdg.o
 .text.WWDG_EnableIT
                0x0000000000000000       0x12 ./Peripheral/src/ch32v30x_wwdg.o
 .text.WWDG_SetCounter
                0x0000000000000000        0xe ./Peripheral/src/ch32v30x_wwdg.o
 .text.WWDG_Enable
                0x0000000000000000        0xe ./Peripheral/src/ch32v30x_wwdg.o
 .text.WWDG_GetFlagStatus
                0x0000000000000000        0xa ./Peripheral/src/ch32v30x_wwdg.o
 .text.WWDG_ClearFlag
                0x0000000000000000        0xa ./Peripheral/src/ch32v30x_wwdg.o
 .comment       0x0000000000000000       0x34 ./Peripheral/src/ch32v30x_wwdg.o
 .text          0x0000000000000000        0x0 ./Debug/debug.o
 .data          0x0000000000000000        0x0 ./Debug/debug.o
 .bss           0x0000000000000000        0x0 ./Debug/debug.o
 .text.Delay_Us
                0x0000000000000000       0x30 ./Debug/debug.o
 .text.USART_Printf_Init
                0x0000000000000000       0x72 ./Debug/debug.o
 .text          0x0000000000000000        0x0 ./Core/core_riscv.o
 .data          0x0000000000000000        0x0 ./Core/core_riscv.o
 .bss           0x0000000000000000        0x0 ./Core/core_riscv.o
 .text.__get_FFLAGS
                0x0000000000000000        0x6 ./Core/core_riscv.o
 .text.__set_FFLAGS
                0x0000000000000000        0x6 ./Core/core_riscv.o
 .text.__get_FRM
                0x0000000000000000        0x6 ./Core/core_riscv.o
 .text.__set_FRM
                0x0000000000000000        0x6 ./Core/core_riscv.o
 .text.__get_FCSR
                0x0000000000000000        0x6 ./Core/core_riscv.o
 .text.__set_FCSR
                0x0000000000000000        0x6 ./Core/core_riscv.o
 .text.__get_MSTATUS
                0x0000000000000000        0x6 ./Core/core_riscv.o
 .text.__set_MSTATUS
                0x0000000000000000        0x6 ./Core/core_riscv.o
 .text.__get_MISA
                0x0000000000000000        0x6 ./Core/core_riscv.o
 .text.__set_MISA
                0x0000000000000000        0x6 ./Core/core_riscv.o
 .text.__get_MIE
                0x0000000000000000        0x6 ./Core/core_riscv.o
 .text.__set_MIE
                0x0000000000000000        0x6 ./Core/core_riscv.o
 .text.__get_MTVEC
                0x0000000000000000        0x6 ./Core/core_riscv.o
 .text.__set_MTVEC
                0x0000000000000000        0x6 ./Core/core_riscv.o
 .text.__get_MSCRATCH
                0x0000000000000000        0x6 ./Core/core_riscv.o
 .text.__set_MSCRATCH
                0x0000000000000000        0x6 ./Core/core_riscv.o
 .text.__set_MEPC
                0x0000000000000000        0x6 ./Core/core_riscv.o
 .text.__set_MCAUSE
                0x0000000000000000        0x6 ./Core/core_riscv.o
 .text.__set_MTVAL
                0x0000000000000000        0x6 ./Core/core_riscv.o
 .text.__get_MIP
                0x0000000000000000        0x6 ./Core/core_riscv.o
 .text.__set_MIP
                0x0000000000000000        0x6 ./Core/core_riscv.o
 .text.__get_MCYCLE
                0x0000000000000000        0x6 ./Core/core_riscv.o
 .text.__set_MCYCLE
                0x0000000000000000        0x6 ./Core/core_riscv.o
 .text.__get_MCYCLEH
                0x0000000000000000        0x6 ./Core/core_riscv.o
 .text.__set_MCYCLEH
                0x0000000000000000        0x6 ./Core/core_riscv.o
 .text.__get_MINSTRET
                0x0000000000000000        0x6 ./Core/core_riscv.o
 .text.__set_MINSTRET
                0x0000000000000000        0x6 ./Core/core_riscv.o
 .text.__get_MINSTRETH
                0x0000000000000000        0x6 ./Core/core_riscv.o
 .text.__set_MINSTRETH
                0x0000000000000000        0x6 ./Core/core_riscv.o
 .text.__get_MVENDORID
                0x0000000000000000        0x6 ./Core/core_riscv.o
 .text.__get_MARCHID
                0x0000000000000000        0x6 ./Core/core_riscv.o
 .text.__get_MIMPID
                0x0000000000000000        0x6 ./Core/core_riscv.o
 .text.__get_MHARTID
                0x0000000000000000        0x6 ./Core/core_riscv.o
 .text          0x0000000000000000        0x0 F:\Desktop\ch32v307\Application\8_uarts_server\bare_metal\8_uart_server\ETH\User\libwchnet.a(ethernetif.o)
 .data          0x0000000000000000        0x0 F:\Desktop\ch32v307\Application\8_uarts_server\bare_metal\8_uart_server\ETH\User\libwchnet.a(ethernetif.o)
 .bss           0x0000000000000000        0x0 F:\Desktop\ch32v307\Application\8_uarts_server\bare_metal\8_uart_server\ETH\User\libwchnet.a(ethernetif.o)
 .text.QuaryEthRxDma
                0x0000000000000000       0x5c F:\Desktop\ch32v307\Application\8_uarts_server\bare_metal\8_uart_server\ETH\User\libwchnet.a(ethernetif.o)
 .text.MACRxSuccHandle
                0x0000000000000000       0x1e F:\Desktop\ch32v307\Application\8_uarts_server\bare_metal\8_uart_server\ETH\User\libwchnet.a(ethernetif.o)
 .text          0x0000000000000000        0x0 F:\Desktop\ch32v307\Application\8_uarts_server\bare_metal\8_uart_server\ETH\User\libwchnet.a(inet.o)
 .data          0x0000000000000000        0x0 F:\Desktop\ch32v307\Application\8_uarts_server\bare_metal\8_uart_server\ETH\User\libwchnet.a(inet.o)
 .bss           0x0000000000000000        0x0 F:\Desktop\ch32v307\Application\8_uarts_server\bare_metal\8_uart_server\ETH\User\libwchnet.a(inet.o)
 .text.inet_ntoa
                0x0000000000000000       0x8c F:\Desktop\ch32v307\Application\8_uarts_server\bare_metal\8_uart_server\ETH\User\libwchnet.a(inet.o)
 .text.inet_aton
                0x0000000000000000      0x160 F:\Desktop\ch32v307\Application\8_uarts_server\bare_metal\8_uart_server\ETH\User\libwchnet.a(inet.o)
 .text.inet_addr
                0x0000000000000000       0x26 F:\Desktop\ch32v307\Application\8_uarts_server\bare_metal\8_uart_server\ETH\User\libwchnet.a(inet.o)
 .bss.str.5720  0x0000000000000000       0x10 F:\Desktop\ch32v307\Application\8_uarts_server\bare_metal\8_uart_server\ETH\User\libwchnet.a(inet.o)
 .text          0x0000000000000000        0x0 F:\Desktop\ch32v307\Application\8_uarts_server\bare_metal\8_uart_server\ETH\User\libwchnet.a(ip_frag.o)
 .data          0x0000000000000000        0x0 F:\Desktop\ch32v307\Application\8_uarts_server\bare_metal\8_uart_server\ETH\User\libwchnet.a(ip_frag.o)
 .bss           0x0000000000000000        0x0 F:\Desktop\ch32v307\Application\8_uarts_server\bare_metal\8_uart_server\ETH\User\libwchnet.a(ip_frag.o)
 .text          0x0000000000000000        0x0 F:\Desktop\ch32v307\Application\8_uarts_server\bare_metal\8_uart_server\ETH\User\libwchnet.a(init.o)
 .data          0x0000000000000000        0x0 F:\Desktop\ch32v307\Application\8_uarts_server\bare_metal\8_uart_server\ETH\User\libwchnet.a(init.o)
 .bss           0x0000000000000000        0x0 F:\Desktop\ch32v307\Application\8_uarts_server\bare_metal\8_uart_server\ETH\User\libwchnet.a(init.o)
 .text          0x0000000000000000        0x0 F:\Desktop\ch32v307\Application\8_uarts_server\bare_metal\8_uart_server\ETH\User\libwchnet.a(mem.o)
 .data          0x0000000000000000        0x0 F:\Desktop\ch32v307\Application\8_uarts_server\bare_metal\8_uart_server\ETH\User\libwchnet.a(mem.o)
 .bss           0x0000000000000000        0x0 F:\Desktop\ch32v307\Application\8_uarts_server\bare_metal\8_uart_server\ETH\User\libwchnet.a(mem.o)
 .text.mem2_init
                0x0000000000000000       0x52 F:\Desktop\ch32v307\Application\8_uarts_server\bare_metal\8_uart_server\ETH\User\libwchnet.a(mem.o)
 .text.mem_calloc
                0x0000000000000000       0x3a F:\Desktop\ch32v307\Application\8_uarts_server\bare_metal\8_uart_server\ETH\User\libwchnet.a(mem.o)
 .text          0x0000000000000000        0x0 F:\Desktop\ch32v307\Application\8_uarts_server\bare_metal\8_uart_server\ETH\User\libwchnet.a(memp.o)
 .data          0x0000000000000000        0x0 F:\Desktop\ch32v307\Application\8_uarts_server\bare_metal\8_uart_server\ETH\User\libwchnet.a(memp.o)
 .bss           0x0000000000000000        0x0 F:\Desktop\ch32v307\Application\8_uarts_server\bare_metal\8_uart_server\ETH\User\libwchnet.a(memp.o)
 .text          0x0000000000000000        0x0 F:\Desktop\ch32v307\Application\8_uarts_server\bare_metal\8_uart_server\ETH\User\libwchnet.a(netif.o)
 .data          0x0000000000000000        0x0 F:\Desktop\ch32v307\Application\8_uarts_server\bare_metal\8_uart_server\ETH\User\libwchnet.a(netif.o)
 .bss           0x0000000000000000        0x0 F:\Desktop\ch32v307\Application\8_uarts_server\bare_metal\8_uart_server\ETH\User\libwchnet.a(netif.o)
 .text.netif_remove
                0x0000000000000000       0x3a F:\Desktop\ch32v307\Application\8_uarts_server\bare_metal\8_uart_server\ETH\User\libwchnet.a(netif.o)
 .text.netif_find
                0x0000000000000000       0x40 F:\Desktop\ch32v307\Application\8_uarts_server\bare_metal\8_uart_server\ETH\User\libwchnet.a(netif.o)
 .text.netif_set_gw
                0x0000000000000000       0x1c F:\Desktop\ch32v307\Application\8_uarts_server\bare_metal\8_uart_server\ETH\User\libwchnet.a(netif.o)
 .text.netif_set_netmask
                0x0000000000000000       0x1c F:\Desktop\ch32v307\Application\8_uarts_server\bare_metal\8_uart_server\ETH\User\libwchnet.a(netif.o)
 .text.netif_set_up
                0x0000000000000000       0x36 F:\Desktop\ch32v307\Application\8_uarts_server\bare_metal\8_uart_server\ETH\User\libwchnet.a(netif.o)
 .text.netif_set_down
                0x0000000000000000       0x12 F:\Desktop\ch32v307\Application\8_uarts_server\bare_metal\8_uart_server\ETH\User\libwchnet.a(netif.o)
 .text          0x0000000000000000        0x0 F:\Desktop\ch32v307\Application\8_uarts_server\bare_metal\8_uart_server\ETH\User\libwchnet.a(pbuf.o)
 .data          0x0000000000000000        0x0 F:\Desktop\ch32v307\Application\8_uarts_server\bare_metal\8_uart_server\ETH\User\libwchnet.a(pbuf.o)
 .bss           0x0000000000000000        0x0 F:\Desktop\ch32v307\Application\8_uarts_server\bare_metal\8_uart_server\ETH\User\libwchnet.a(pbuf.o)
 .text.pbuf_dechain
                0x0000000000000000       0x32 F:\Desktop\ch32v307\Application\8_uarts_server\bare_metal\8_uart_server\ETH\User\libwchnet.a(pbuf.o)
 .text.pbuf_copy_partial
                0x0000000000000000       0x76 F:\Desktop\ch32v307\Application\8_uarts_server\bare_metal\8_uart_server\ETH\User\libwchnet.a(pbuf.o)
 .text.pbuf_take
                0x0000000000000000       0x60 F:\Desktop\ch32v307\Application\8_uarts_server\bare_metal\8_uart_server\ETH\User\libwchnet.a(pbuf.o)
 .text.pbuf_coalesce
                0x0000000000000000       0x42 F:\Desktop\ch32v307\Application\8_uarts_server\bare_metal\8_uart_server\ETH\User\libwchnet.a(pbuf.o)
 .text          0x0000000000000000        0x0 F:\Desktop\ch32v307\Application\8_uarts_server\bare_metal\8_uart_server\ETH\User\libwchnet.a(tcp.o)
 .data          0x0000000000000000        0x0 F:\Desktop\ch32v307\Application\8_uarts_server\bare_metal\8_uart_server\ETH\User\libwchnet.a(tcp.o)
 .bss           0x0000000000000000        0x0 F:\Desktop\ch32v307\Application\8_uarts_server\bare_metal\8_uart_server\ETH\User\libwchnet.a(tcp.o)
 .text.tcp_accept_null
                0x0000000000000000        0x4 F:\Desktop\ch32v307\Application\8_uarts_server\bare_metal\8_uart_server\ETH\User\libwchnet.a(tcp.o)
 .text.tcp_listen_with_backlog
                0x0000000000000000       0xb6 F:\Desktop\ch32v307\Application\8_uarts_server\bare_metal\8_uart_server\ETH\User\libwchnet.a(tcp.o)
 .text.tcp_setprio
                0x0000000000000000        0x4 F:\Desktop\ch32v307\Application\8_uarts_server\bare_metal\8_uart_server\ETH\User\libwchnet.a(tcp.o)
 .text.tcp_accept
                0x0000000000000000        0x4 F:\Desktop\ch32v307\Application\8_uarts_server\bare_metal\8_uart_server\ETH\User\libwchnet.a(tcp.o)
 .text.tcp_debug_state_str
                0x0000000000000000       0x10 F:\Desktop\ch32v307\Application\8_uarts_server\bare_metal\8_uart_server\ETH\User\libwchnet.a(tcp.o)
 .data.tcp_state_str
                0x0000000000000000       0x2c F:\Desktop\ch32v307\Application\8_uarts_server\bare_metal\8_uart_server\ETH\User\libwchnet.a(tcp.o)
 .rodata.str1.4
                0x0000000000000000       0x76 F:\Desktop\ch32v307\Application\8_uarts_server\bare_metal\8_uart_server\ETH\User\libwchnet.a(tcp.o)
 .text          0x0000000000000000        0x0 F:\Desktop\ch32v307\Application\8_uarts_server\bare_metal\8_uart_server\ETH\User\libwchnet.a(tcp_out.o)
 .data          0x0000000000000000        0x0 F:\Desktop\ch32v307\Application\8_uarts_server\bare_metal\8_uart_server\ETH\User\libwchnet.a(tcp_out.o)
 .bss           0x0000000000000000        0x0 F:\Desktop\ch32v307\Application\8_uarts_server\bare_metal\8_uart_server\ETH\User\libwchnet.a(tcp_out.o)
 .text          0x0000000000000000        0x0 F:\Desktop\ch32v307\Application\8_uarts_server\bare_metal\8_uart_server\ETH\User\libwchnet.a(eth_driver.o)
 .data          0x0000000000000000        0x0 F:\Desktop\ch32v307\Application\8_uarts_server\bare_metal\8_uart_server\ETH\User\libwchnet.a(eth_driver.o)
 .bss           0x0000000000000000        0x0 F:\Desktop\ch32v307\Application\8_uarts_server\bare_metal\8_uart_server\ETH\User\libwchnet.a(eth_driver.o)
 .text.PHY_control_pin_init
                0x0000000000000000       0x82 F:\Desktop\ch32v307\Application\8_uarts_server\bare_metal\8_uart_server\ETH\User\libwchnet.a(eth_driver.o)
 .text.GETH_pin_init
                0x0000000000000000      0x188 F:\Desktop\ch32v307\Application\8_uarts_server\bare_metal\8_uart_server\ETH\User\libwchnet.a(eth_driver.o)
 .text.FETH_pin_init
                0x0000000000000000      0x1b2 F:\Desktop\ch32v307\Application\8_uarts_server\bare_metal\8_uart_server\ETH\User\libwchnet.a(eth_driver.o)
 .text          0x0000000000000000        0x0 F:\Desktop\ch32v307\Application\8_uarts_server\bare_metal\8_uart_server\ETH\User\libwchnet.a(ipcheck.o)
 .data          0x0000000000000000        0x0 F:\Desktop\ch32v307\Application\8_uarts_server\bare_metal\8_uart_server\ETH\User\libwchnet.a(ipcheck.o)
 .bss           0x0000000000000000        0x0 F:\Desktop\ch32v307\Application\8_uarts_server\bare_metal\8_uart_server\ETH\User\libwchnet.a(ipcheck.o)
 .text          0x0000000000000000        0x0 F:\Desktop\ch32v307\Application\8_uarts_server\bare_metal\8_uart_server\ETH\User\libwchnet.a(socket.o)
 .data          0x0000000000000000        0x0 F:\Desktop\ch32v307\Application\8_uarts_server\bare_metal\8_uart_server\ETH\User\libwchnet.a(socket.o)
 .bss           0x0000000000000000        0x0 F:\Desktop\ch32v307\Application\8_uarts_server\bare_metal\8_uart_server\ETH\User\libwchnet.a(socket.o)
 .text.WCHTCPServerAccept
                0x0000000000000000       0xc8 F:\Desktop\ch32v307\Application\8_uarts_server\bare_metal\8_uart_server\ETH\User\libwchnet.a(socket.o)
 .text.WCHNET_ConfigKeepLive
                0x0000000000000000       0x16 F:\Desktop\ch32v307\Application\8_uarts_server\bare_metal\8_uart_server\ETH\User\libwchnet.a(socket.o)
 .text.WCHNET_OpenMac
                0x0000000000000000       0x28 F:\Desktop\ch32v307\Application\8_uarts_server\bare_metal\8_uart_server\ETH\User\libwchnet.a(socket.o)
 .text.CH563IPClose
                0x0000000000000000       0x20 F:\Desktop\ch32v307\Application\8_uarts_server\bare_metal\8_uart_server\ETH\User\libwchnet.a(socket.o)
 .text.WCHNET_GetVer
                0x0000000000000000        0x4 F:\Desktop\ch32v307\Application\8_uarts_server\bare_metal\8_uart_server\ETH\User\libwchnet.a(socket.o)
 .text.WCHNET_ModifyRecvBuf
                0x0000000000000000       0x50 F:\Desktop\ch32v307\Application\8_uarts_server\bare_metal\8_uart_server\ETH\User\libwchnet.a(socket.o)
 .text.tcp_recved_CH563
                0x0000000000000000       0x1a F:\Desktop\ch32v307\Application\8_uarts_server\bare_metal\8_uart_server\ETH\User\libwchnet.a(socket.o)
 .text.WCHNET_SocketUdpSendTo
                0x0000000000000000      0x110 F:\Desktop\ch32v307\Application\8_uarts_server\bare_metal\8_uart_server\ETH\User\libwchnet.a(socket.o)
 .text.WCHNET_RetrySendUnack
                0x0000000000000000       0x3e F:\Desktop\ch32v307\Application\8_uarts_server\bare_metal\8_uart_server\ETH\User\libwchnet.a(socket.o)
 .text.WCHNET_QueryUnack
                0x0000000000000000       0x94 F:\Desktop\ch32v307\Application\8_uarts_server\bare_metal\8_uart_server\ETH\User\libwchnet.a(socket.o)
 .text.WCHNET_PrtSocketTCPStat
                0x0000000000000000        0x2 F:\Desktop\ch32v307\Application\8_uarts_server\bare_metal\8_uart_server\ETH\User\libwchnet.a(socket.o)
 .text.WCHNET_SocketSetKeepLive
                0x0000000000000000       0x3a F:\Desktop\ch32v307\Application\8_uarts_server\bare_metal\8_uart_server\ETH\User\libwchnet.a(socket.o)
 .text.WCHNET_SocketListen
                0x0000000000000000       0x82 F:\Desktop\ch32v307\Application\8_uarts_server\bare_metal\8_uart_server\ETH\User\libwchnet.a(socket.o)
 .text.WCHSocketTcpDiscon
                0x0000000000000000       0x42 F:\Desktop\ch32v307\Application\8_uarts_server\bare_metal\8_uart_server\ETH\User\libwchnet.a(socket.o)
 .text.CloseUpdConnect
                0x0000000000000000       0x44 F:\Desktop\ch32v307\Application\8_uarts_server\bare_metal\8_uart_server\ETH\User\libwchnet.a(socket.o)
 .text.CloseIPRAWConnect
                0x0000000000000000       0x44 F:\Desktop\ch32v307\Application\8_uarts_server\bare_metal\8_uart_server\ETH\User\libwchnet.a(socket.o)
 .text.CloseTcpPCB
                0x0000000000000000       0x94 F:\Desktop\ch32v307\Application\8_uarts_server\bare_metal\8_uart_server\ETH\User\libwchnet.a(socket.o)
 .text.WCHNET_SocketClose
                0x0000000000000000       0x78 F:\Desktop\ch32v307\Application\8_uarts_server\bare_metal\8_uart_server\ETH\User\libwchnet.a(socket.o)
 .text.WCHNET_Aton
                0x0000000000000000       0x1c F:\Desktop\ch32v307\Application\8_uarts_server\bare_metal\8_uart_server\ETH\User\libwchnet.a(socket.o)
 .text.WCHNET_Ntoa
                0x0000000000000000       0x2c F:\Desktop\ch32v307\Application\8_uarts_server\bare_metal\8_uart_server\ETH\User\libwchnet.a(socket.o)
 .text.WCHNET_SetSocketTTL
                0x0000000000000000       0x40 F:\Desktop\ch32v307\Application\8_uarts_server\bare_metal\8_uart_server\ETH\User\libwchnet.a(socket.o)
 .text          0x0000000000000000        0x0 F:\Desktop\ch32v307\Application\8_uarts_server\bare_metal\8_uart_server\ETH\User\libwchnet.a(wchnet_dns.o)
 .data          0x0000000000000000        0x0 F:\Desktop\ch32v307\Application\8_uarts_server\bare_metal\8_uart_server\ETH\User\libwchnet.a(wchnet_dns.o)
 .bss           0x0000000000000000        0x0 F:\Desktop\ch32v307\Application\8_uarts_server\bare_metal\8_uart_server\ETH\User\libwchnet.a(wchnet_dns.o)
 .text.dns_parse_name
                0x0000000000000000       0x20 F:\Desktop\ch32v307\Application\8_uarts_server\bare_metal\8_uart_server\ETH\User\libwchnet.a(wchnet_dns.o)
 .text.dns_recv
                0x0000000000000000      0x226 F:\Desktop\ch32v307\Application\8_uarts_server\bare_metal\8_uart_server\ETH\User\libwchnet.a(wchnet_dns.o)
 .text.dns_send
                0x0000000000000000      0x126 F:\Desktop\ch32v307\Application\8_uarts_server\bare_metal\8_uart_server\ETH\User\libwchnet.a(wchnet_dns.o)
 .text.dns_check_entry
                0x0000000000000000       0xd6 F:\Desktop\ch32v307\Application\8_uarts_server\bare_metal\8_uart_server\ETH\User\libwchnet.a(wchnet_dns.o)
 .text.dns_tmr  0x0000000000000000       0x44 F:\Desktop\ch32v307\Application\8_uarts_server\bare_metal\8_uart_server\ETH\User\libwchnet.a(wchnet_dns.o)
 .text.dns_setserver
                0x0000000000000000       0x50 F:\Desktop\ch32v307\Application\8_uarts_server\bare_metal\8_uart_server\ETH\User\libwchnet.a(wchnet_dns.o)
 .text.dns_init
                0x0000000000000000       0x70 F:\Desktop\ch32v307\Application\8_uarts_server\bare_metal\8_uart_server\ETH\User\libwchnet.a(wchnet_dns.o)
 .text.dns_getserver
                0x0000000000000000       0x56 F:\Desktop\ch32v307\Application\8_uarts_server\bare_metal\8_uart_server\ETH\User\libwchnet.a(wchnet_dns.o)
 .text.dns_gethostbyname
                0x0000000000000000      0x16e F:\Desktop\ch32v307\Application\8_uarts_server\bare_metal\8_uart_server\ETH\User\libwchnet.a(wchnet_dns.o)
 .text.WCHNET_InitDNS
                0x0000000000000000       0x4c F:\Desktop\ch32v307\Application\8_uarts_server\bare_metal\8_uart_server\ETH\User\libwchnet.a(wchnet_dns.o)
 .text.WCHNET_GetHostName
                0x0000000000000000       0x20 F:\Desktop\ch32v307\Application\8_uarts_server\bare_metal\8_uart_server\ETH\User\libwchnet.a(wchnet_dns.o)
 .bss.dns_table
                0x0000000000000000      0x260 F:\Desktop\ch32v307\Application\8_uarts_server\bare_metal\8_uart_server\ETH\User\libwchnet.a(wchnet_dns.o)
 .rodata.dns_init.str1.4
                0x0000000000000000        0xf F:\Desktop\ch32v307\Application\8_uarts_server\bare_metal\8_uart_server\ETH\User\libwchnet.a(wchnet_dns.o)
 .sbss.dns_pcb  0x0000000000000000        0x4 F:\Desktop\ch32v307\Application\8_uarts_server\bare_metal\8_uart_server\ETH\User\libwchnet.a(wchnet_dns.o)
 .sbss.dns_seqno
                0x0000000000000000        0x1 F:\Desktop\ch32v307\Application\8_uarts_server\bare_metal\8_uart_server\ETH\User\libwchnet.a(wchnet_dns.o)
 .sbss.dns_servers
                0x0000000000000000        0x8 F:\Desktop\ch32v307\Application\8_uarts_server\bare_metal\8_uart_server\ETH\User\libwchnet.a(wchnet_dns.o)
 .text          0x0000000000000000        0x0 F:\Desktop\ch32v307\Application\8_uarts_server\bare_metal\8_uart_server\ETH\User\libwchnet.a(etharp.o)
 .data          0x0000000000000000        0x0 F:\Desktop\ch32v307\Application\8_uarts_server\bare_metal\8_uart_server\ETH\User\libwchnet.a(etharp.o)
 .bss           0x0000000000000000        0x0 F:\Desktop\ch32v307\Application\8_uarts_server\bare_metal\8_uart_server\ETH\User\libwchnet.a(etharp.o)
 .text.etharp_find_addr
                0x0000000000000000       0x50 F:\Desktop\ch32v307\Application\8_uarts_server\bare_metal\8_uart_server\ETH\User\libwchnet.a(etharp.o)
 .text.GET_MAC  0x0000000000000000       0x68 F:\Desktop\ch32v307\Application\8_uarts_server\bare_metal\8_uart_server\ETH\User\libwchnet.a(etharp.o)
 .text          0x0000000000000000        0x0 F:\Desktop\ch32v307\Application\8_uarts_server\bare_metal\8_uart_server\ETH\User\libwchnet.a(icmp.o)
 .data          0x0000000000000000        0x0 F:\Desktop\ch32v307\Application\8_uarts_server\bare_metal\8_uart_server\ETH\User\libwchnet.a(icmp.o)
 .bss           0x0000000000000000        0x0 F:\Desktop\ch32v307\Application\8_uarts_server\bare_metal\8_uart_server\ETH\User\libwchnet.a(icmp.o)
 .text          0x0000000000000000        0x0 F:\Desktop\ch32v307\Application\8_uarts_server\bare_metal\8_uart_server\ETH\User\libwchnet.a(inet_chksum.o)
 .data          0x0000000000000000        0x0 F:\Desktop\ch32v307\Application\8_uarts_server\bare_metal\8_uart_server\ETH\User\libwchnet.a(inet_chksum.o)
 .bss           0x0000000000000000        0x0 F:\Desktop\ch32v307\Application\8_uarts_server\bare_metal\8_uart_server\ETH\User\libwchnet.a(inet_chksum.o)
 .text          0x0000000000000000        0x0 F:\Desktop\ch32v307\Application\8_uarts_server\bare_metal\8_uart_server\ETH\User\libwchnet.a(ip.o)
 .data          0x0000000000000000        0x0 F:\Desktop\ch32v307\Application\8_uarts_server\bare_metal\8_uart_server\ETH\User\libwchnet.a(ip.o)
 .bss           0x0000000000000000        0x0 F:\Desktop\ch32v307\Application\8_uarts_server\bare_metal\8_uart_server\ETH\User\libwchnet.a(ip.o)
 .text          0x0000000000000000        0x0 F:\Desktop\ch32v307\Application\8_uarts_server\bare_metal\8_uart_server\ETH\User\libwchnet.a(ip_addr.o)
 .data          0x0000000000000000        0x0 F:\Desktop\ch32v307\Application\8_uarts_server\bare_metal\8_uart_server\ETH\User\libwchnet.a(ip_addr.o)
 .bss           0x0000000000000000        0x0 F:\Desktop\ch32v307\Application\8_uarts_server\bare_metal\8_uart_server\ETH\User\libwchnet.a(ip_addr.o)
 .text          0x0000000000000000        0x0 F:\Desktop\ch32v307\Application\8_uarts_server\bare_metal\8_uart_server\ETH\User\libwchnet.a(raw.o)
 .data          0x0000000000000000        0x0 F:\Desktop\ch32v307\Application\8_uarts_server\bare_metal\8_uart_server\ETH\User\libwchnet.a(raw.o)
 .bss           0x0000000000000000        0x0 F:\Desktop\ch32v307\Application\8_uarts_server\bare_metal\8_uart_server\ETH\User\libwchnet.a(raw.o)
 .text.raw_remove
                0x0000000000000000       0x40 F:\Desktop\ch32v307\Application\8_uarts_server\bare_metal\8_uart_server\ETH\User\libwchnet.a(raw.o)
 .text          0x0000000000000000        0x0 F:\Desktop\ch32v307\Application\8_uarts_server\bare_metal\8_uart_server\ETH\User\libwchnet.a(tcp_in.o)
 .data          0x0000000000000000        0x0 F:\Desktop\ch32v307\Application\8_uarts_server\bare_metal\8_uart_server\ETH\User\libwchnet.a(tcp_in.o)
 .bss           0x0000000000000000        0x0 F:\Desktop\ch32v307\Application\8_uarts_server\bare_metal\8_uart_server\ETH\User\libwchnet.a(tcp_in.o)
 .text          0x0000000000000000        0x0 F:\Desktop\ch32v307\Application\8_uarts_server\bare_metal\8_uart_server\ETH\User\libwchnet.a(udp.o)
 .data          0x0000000000000000        0x0 F:\Desktop\ch32v307\Application\8_uarts_server\bare_metal\8_uart_server\ETH\User\libwchnet.a(udp.o)
 .bss           0x0000000000000000        0x0 F:\Desktop\ch32v307\Application\8_uarts_server\bare_metal\8_uart_server\ETH\User\libwchnet.a(udp.o)
 .text.udp_disconnect
                0x0000000000000000       0x2e F:\Desktop\ch32v307\Application\8_uarts_server\bare_metal\8_uart_server\ETH\User\libwchnet.a(udp.o)
 .text.udp_remove
                0x0000000000000000       0x40 F:\Desktop\ch32v307\Application\8_uarts_server\bare_metal\8_uart_server\ETH\User\libwchnet.a(udp.o)
 .text          0x0000000000000000        0x0 F:\Desktop\ch32v307\Application\8_uarts_server\bare_metal\8_uart_server\ETH\User\libwchnet.a(wchnet_dhcp.o)
 .data          0x0000000000000000        0x0 F:\Desktop\ch32v307\Application\8_uarts_server\bare_metal\8_uart_server\ETH\User\libwchnet.a(wchnet_dhcp.o)
 .bss           0x0000000000000000        0x0 F:\Desktop\ch32v307\Application\8_uarts_server\bare_metal\8_uart_server\ETH\User\libwchnet.a(wchnet_dhcp.o)
 .text.dhcp_option_short
                0x0000000000000000       0x24 F:\Desktop\ch32v307\Application\8_uarts_server\bare_metal\8_uart_server\ETH\User\libwchnet.a(wchnet_dhcp.o)
 .text.dhcp_get_option_ptr
                0x0000000000000000       0xb6 F:\Desktop\ch32v307\Application\8_uarts_server\bare_metal\8_uart_server\ETH\User\libwchnet.a(wchnet_dhcp.o)
 .text.dhcp_get_option_long
                0x0000000000000000       0x18 F:\Desktop\ch32v307\Application\8_uarts_server\bare_metal\8_uart_server\ETH\User\libwchnet.a(wchnet_dhcp.o)
 .text.dhcp_rebind
                0x0000000000000000      0x116 F:\Desktop\ch32v307\Application\8_uarts_server\bare_metal\8_uart_server\ETH\User\libwchnet.a(wchnet_dhcp.o)
 .text.dhcp_discover
                0x0000000000000000      0x14a F:\Desktop\ch32v307\Application\8_uarts_server\bare_metal\8_uart_server\ETH\User\libwchnet.a(wchnet_dhcp.o)
 .text.dhcp_select
                0x0000000000000000      0x1b0 F:\Desktop\ch32v307\Application\8_uarts_server\bare_metal\8_uart_server\ETH\User\libwchnet.a(wchnet_dhcp.o)
 .text.dhcp_reboot
                0x0000000000000000      0x104 F:\Desktop\ch32v307\Application\8_uarts_server\bare_metal\8_uart_server\ETH\User\libwchnet.a(wchnet_dhcp.o)
 .text.dhcp_check
                0x0000000000000000       0x3a F:\Desktop\ch32v307\Application\8_uarts_server\bare_metal\8_uart_server\ETH\User\libwchnet.a(wchnet_dhcp.o)
 .text.dhcp_free_reply
                0x0000000000000000       0x36 F:\Desktop\ch32v307\Application\8_uarts_server\bare_metal\8_uart_server\ETH\User\libwchnet.a(wchnet_dhcp.o)
 .text.dhcp_inform
                0x0000000000000000       0xfa F:\Desktop\ch32v307\Application\8_uarts_server\bare_metal\8_uart_server\ETH\User\libwchnet.a(wchnet_dhcp.o)
 .text.dhcp_network_changed
                0x0000000000000000       0x5c F:\Desktop\ch32v307\Application\8_uarts_server\bare_metal\8_uart_server\ETH\User\libwchnet.a(wchnet_dhcp.o)
 .text.dhcp_renew
                0x0000000000000000      0x112 F:\Desktop\ch32v307\Application\8_uarts_server\bare_metal\8_uart_server\ETH\User\libwchnet.a(wchnet_dhcp.o)
 .text.dhcp_coarse_tmr
                0x0000000000000000       0x70 F:\Desktop\ch32v307\Application\8_uarts_server\bare_metal\8_uart_server\ETH\User\libwchnet.a(wchnet_dhcp.o)
 .text.dhcp_release
                0x0000000000000000      0x118 F:\Desktop\ch32v307\Application\8_uarts_server\bare_metal\8_uart_server\ETH\User\libwchnet.a(wchnet_dhcp.o)
 .text.dhcp_stop
                0x0000000000000000       0x3e F:\Desktop\ch32v307\Application\8_uarts_server\bare_metal\8_uart_server\ETH\User\libwchnet.a(wchnet_dhcp.o)
 .text.dhcp_start
                0x0000000000000000       0xde F:\Desktop\ch32v307\Application\8_uarts_server\bare_metal\8_uart_server\ETH\User\libwchnet.a(wchnet_dhcp.o)
 .text.WCHNET_DHCPStart
                0x0000000000000000       0x6e F:\Desktop\ch32v307\Application\8_uarts_server\bare_metal\8_uart_server\ETH\User\libwchnet.a(wchnet_dhcp.o)
 .text.WCHNET_DHCPStop
                0x0000000000000000       0x36 F:\Desktop\ch32v307\Application\8_uarts_server\bare_metal\8_uart_server\ETH\User\libwchnet.a(wchnet_dhcp.o)
 .text.WCHNET_DHCPHandle
                0x0000000000000000       0x86 F:\Desktop\ch32v307\Application\8_uarts_server\bare_metal\8_uart_server\ETH\User\libwchnet.a(wchnet_dhcp.o)
 .text.dhcp_bind
                0x0000000000000000      0x1a0 F:\Desktop\ch32v307\Application\8_uarts_server\bare_metal\8_uart_server\ETH\User\libwchnet.a(wchnet_dhcp.o)
 .text.dhcp_recv
                0x0000000000000000      0x38c F:\Desktop\ch32v307\Application\8_uarts_server\bare_metal\8_uart_server\ETH\User\libwchnet.a(wchnet_dhcp.o)
 .text.dhcp_fine_tmr
                0x0000000000000000       0xea F:\Desktop\ch32v307\Application\8_uarts_server\bare_metal\8_uart_server\ETH\User\libwchnet.a(wchnet_dhcp.o)
 .sbss.DHCPFlag
                0x0000000000000000        0x1 F:\Desktop\ch32v307\Application\8_uarts_server\bare_metal\8_uart_server\ETH\User\libwchnet.a(wchnet_dhcp.o)
 .data          0x0000000000000000        0x0 d:/mounriver/mounriver_studio/toolchain/risc-v embedded gcc/bin/../lib/gcc/riscv-none-embed/8.2.0\libgcc.a(save-restore.o)
 .bss           0x0000000000000000        0x0 d:/mounriver/mounriver_studio/toolchain/risc-v embedded gcc/bin/../lib/gcc/riscv-none-embed/8.2.0\libgcc.a(save-restore.o)
 .eh_frame      0x0000000000000000       0xf8 d:/mounriver/mounriver_studio/toolchain/risc-v embedded gcc/bin/../lib/gcc/riscv-none-embed/8.2.0\libgcc.a(save-restore.o)
 .text          0x0000000000000000        0x0 d:/mounriver/mounriver_studio/toolchain/risc-v embedded gcc/bin/../lib/gcc/riscv-none-embed/8.2.0/../../../../riscv-none-embed/lib\libc_nano.a(lib_a-memcpy.o)
 .data          0x0000000000000000        0x0 d:/mounriver/mounriver_studio/toolchain/risc-v embedded gcc/bin/../lib/gcc/riscv-none-embed/8.2.0/../../../../riscv-none-embed/lib\libc_nano.a(lib_a-memcpy.o)
 .bss           0x0000000000000000        0x0 d:/mounriver/mounriver_studio/toolchain/risc-v embedded gcc/bin/../lib/gcc/riscv-none-embed/8.2.0/../../../../riscv-none-embed/lib\libc_nano.a(lib_a-memcpy.o)
 .data          0x0000000000000000        0x0 d:/mounriver/mounriver_studio/toolchain/risc-v embedded gcc/bin/../lib/gcc/riscv-none-embed/8.2.0/../../../../riscv-none-embed/lib\libc_nano.a(lib_a-memset.o)
 .bss           0x0000000000000000        0x0 d:/mounriver/mounriver_studio/toolchain/risc-v embedded gcc/bin/../lib/gcc/riscv-none-embed/8.2.0/../../../../riscv-none-embed/lib\libc_nano.a(lib_a-memset.o)
 .text          0x0000000000000000        0x0 d:/mounriver/mounriver_studio/toolchain/risc-v embedded gcc/bin/../lib/gcc/riscv-none-embed/8.2.0/../../../../riscv-none-embed/lib\libc_nano.a(lib_a-printf.o)
 .data          0x0000000000000000        0x0 d:/mounriver/mounriver_studio/toolchain/risc-v embedded gcc/bin/../lib/gcc/riscv-none-embed/8.2.0/../../../../riscv-none-embed/lib\libc_nano.a(lib_a-printf.o)
 .bss           0x0000000000000000        0x0 d:/mounriver/mounriver_studio/toolchain/risc-v embedded gcc/bin/../lib/gcc/riscv-none-embed/8.2.0/../../../../riscv-none-embed/lib\libc_nano.a(lib_a-printf.o)
 .text._printf_r
                0x0000000000000000       0x40 d:/mounriver/mounriver_studio/toolchain/risc-v embedded gcc/bin/../lib/gcc/riscv-none-embed/8.2.0/../../../../riscv-none-embed/lib\libc_nano.a(lib_a-printf.o)
 .text          0x0000000000000000        0x0 d:/mounriver/mounriver_studio/toolchain/risc-v embedded gcc/bin/../lib/gcc/riscv-none-embed/8.2.0/../../../../riscv-none-embed/lib\libc_nano.a(lib_a-puts.o)
 .data          0x0000000000000000        0x0 d:/mounriver/mounriver_studio/toolchain/risc-v embedded gcc/bin/../lib/gcc/riscv-none-embed/8.2.0/../../../../riscv-none-embed/lib\libc_nano.a(lib_a-puts.o)
 .bss           0x0000000000000000        0x0 d:/mounriver/mounriver_studio/toolchain/risc-v embedded gcc/bin/../lib/gcc/riscv-none-embed/8.2.0/../../../../riscv-none-embed/lib\libc_nano.a(lib_a-puts.o)
 .text          0x0000000000000000      0x11e d:/mounriver/mounriver_studio/toolchain/risc-v embedded gcc/bin/../lib/gcc/riscv-none-embed/8.2.0/../../../../riscv-none-embed/lib\libc_nano.a(lib_a-strcmp.o)
 .data          0x0000000000000000        0x0 d:/mounriver/mounriver_studio/toolchain/risc-v embedded gcc/bin/../lib/gcc/riscv-none-embed/8.2.0/../../../../riscv-none-embed/lib\libc_nano.a(lib_a-strcmp.o)
 .bss           0x0000000000000000        0x0 d:/mounriver/mounriver_studio/toolchain/risc-v embedded gcc/bin/../lib/gcc/riscv-none-embed/8.2.0/../../../../riscv-none-embed/lib\libc_nano.a(lib_a-strcmp.o)
 .text          0x0000000000000000        0x0 d:/mounriver/mounriver_studio/toolchain/risc-v embedded gcc/bin/../lib/gcc/riscv-none-embed/8.2.0/../../../../riscv-none-embed/lib\libc_nano.a(lib_a-strcpy.o)
 .data          0x0000000000000000        0x0 d:/mounriver/mounriver_studio/toolchain/risc-v embedded gcc/bin/../lib/gcc/riscv-none-embed/8.2.0/../../../../riscv-none-embed/lib\libc_nano.a(lib_a-strcpy.o)
 .bss           0x0000000000000000        0x0 d:/mounriver/mounriver_studio/toolchain/risc-v embedded gcc/bin/../lib/gcc/riscv-none-embed/8.2.0/../../../../riscv-none-embed/lib\libc_nano.a(lib_a-strcpy.o)
 .text          0x0000000000000000        0x0 d:/mounriver/mounriver_studio/toolchain/risc-v embedded gcc/bin/../lib/gcc/riscv-none-embed/8.2.0/../../../../riscv-none-embed/lib\libc_nano.a(lib_a-strlen.o)
 .data          0x0000000000000000        0x0 d:/mounriver/mounriver_studio/toolchain/risc-v embedded gcc/bin/../lib/gcc/riscv-none-embed/8.2.0/../../../../riscv-none-embed/lib\libc_nano.a(lib_a-strlen.o)
 .bss           0x0000000000000000        0x0 d:/mounriver/mounriver_studio/toolchain/risc-v embedded gcc/bin/../lib/gcc/riscv-none-embed/8.2.0/../../../../riscv-none-embed/lib\libc_nano.a(lib_a-strlen.o)
 .text.strlen   0x0000000000000000       0x12 d:/mounriver/mounriver_studio/toolchain/risc-v embedded gcc/bin/../lib/gcc/riscv-none-embed/8.2.0/../../../../riscv-none-embed/lib\libc_nano.a(lib_a-strlen.o)
 .debug_frame   0x0000000000000000       0x20 d:/mounriver/mounriver_studio/toolchain/risc-v embedded gcc/bin/../lib/gcc/riscv-none-embed/8.2.0/../../../../riscv-none-embed/lib\libc_nano.a(lib_a-strlen.o)
 .text          0x0000000000000000        0x0 d:/mounriver/mounriver_studio/toolchain/risc-v embedded gcc/bin/../lib/gcc/riscv-none-embed/8.2.0/../../../../riscv-none-embed/lib\libc_nano.a(lib_a-wbuf.o)
 .data          0x0000000000000000        0x0 d:/mounriver/mounriver_studio/toolchain/risc-v embedded gcc/bin/../lib/gcc/riscv-none-embed/8.2.0/../../../../riscv-none-embed/lib\libc_nano.a(lib_a-wbuf.o)
 .bss           0x0000000000000000        0x0 d:/mounriver/mounriver_studio/toolchain/risc-v embedded gcc/bin/../lib/gcc/riscv-none-embed/8.2.0/../../../../riscv-none-embed/lib\libc_nano.a(lib_a-wbuf.o)
 .text.__swbuf  0x0000000000000000       0x16 d:/mounriver/mounriver_studio/toolchain/risc-v embedded gcc/bin/../lib/gcc/riscv-none-embed/8.2.0/../../../../riscv-none-embed/lib\libc_nano.a(lib_a-wbuf.o)
 .text          0x0000000000000000        0x0 d:/mounriver/mounriver_studio/toolchain/risc-v embedded gcc/bin/../lib/gcc/riscv-none-embed/8.2.0/../../../../riscv-none-embed/lib\libc_nano.a(lib_a-wsetup.o)
 .data          0x0000000000000000        0x0 d:/mounriver/mounriver_studio/toolchain/risc-v embedded gcc/bin/../lib/gcc/riscv-none-embed/8.2.0/../../../../riscv-none-embed/lib\libc_nano.a(lib_a-wsetup.o)
 .bss           0x0000000000000000        0x0 d:/mounriver/mounriver_studio/toolchain/risc-v embedded gcc/bin/../lib/gcc/riscv-none-embed/8.2.0/../../../../riscv-none-embed/lib\libc_nano.a(lib_a-wsetup.o)
 .text          0x0000000000000000        0x0 d:/mounriver/mounriver_studio/toolchain/risc-v embedded gcc/bin/../lib/gcc/riscv-none-embed/8.2.0/../../../../riscv-none-embed/lib\libc_nano.a(lib_a-fflush.o)
 .data          0x0000000000000000        0x0 d:/mounriver/mounriver_studio/toolchain/risc-v embedded gcc/bin/../lib/gcc/riscv-none-embed/8.2.0/../../../../riscv-none-embed/lib\libc_nano.a(lib_a-fflush.o)
 .bss           0x0000000000000000        0x0 d:/mounriver/mounriver_studio/toolchain/risc-v embedded gcc/bin/../lib/gcc/riscv-none-embed/8.2.0/../../../../riscv-none-embed/lib\libc_nano.a(lib_a-fflush.o)
 .text.fflush   0x0000000000000000       0x30 d:/mounriver/mounriver_studio/toolchain/risc-v embedded gcc/bin/../lib/gcc/riscv-none-embed/8.2.0/../../../../riscv-none-embed/lib\libc_nano.a(lib_a-fflush.o)
 .text          0x0000000000000000        0x0 d:/mounriver/mounriver_studio/toolchain/risc-v embedded gcc/bin/../lib/gcc/riscv-none-embed/8.2.0/../../../../riscv-none-embed/lib\libc_nano.a(lib_a-findfp.o)
 .data          0x0000000000000000        0x0 d:/mounriver/mounriver_studio/toolchain/risc-v embedded gcc/bin/../lib/gcc/riscv-none-embed/8.2.0/../../../../riscv-none-embed/lib\libc_nano.a(lib_a-findfp.o)
 .bss           0x0000000000000000        0x0 d:/mounriver/mounriver_studio/toolchain/risc-v embedded gcc/bin/../lib/gcc/riscv-none-embed/8.2.0/../../../../riscv-none-embed/lib\libc_nano.a(lib_a-findfp.o)
 .text.__fp_lock
                0x0000000000000000        0x4 d:/mounriver/mounriver_studio/toolchain/risc-v embedded gcc/bin/../lib/gcc/riscv-none-embed/8.2.0/../../../../riscv-none-embed/lib\libc_nano.a(lib_a-findfp.o)
 .text.__fp_unlock
                0x0000000000000000        0x4 d:/mounriver/mounriver_studio/toolchain/risc-v embedded gcc/bin/../lib/gcc/riscv-none-embed/8.2.0/../../../../riscv-none-embed/lib\libc_nano.a(lib_a-findfp.o)
 .text._cleanup
                0x0000000000000000       0x12 d:/mounriver/mounriver_studio/toolchain/risc-v embedded gcc/bin/../lib/gcc/riscv-none-embed/8.2.0/../../../../riscv-none-embed/lib\libc_nano.a(lib_a-findfp.o)
 .text.__sfp_lock_acquire
                0x0000000000000000        0x2 d:/mounriver/mounriver_studio/toolchain/risc-v embedded gcc/bin/../lib/gcc/riscv-none-embed/8.2.0/../../../../riscv-none-embed/lib\libc_nano.a(lib_a-findfp.o)
 .text.__sfp_lock_release
                0x0000000000000000        0x2 d:/mounriver/mounriver_studio/toolchain/risc-v embedded gcc/bin/../lib/gcc/riscv-none-embed/8.2.0/../../../../riscv-none-embed/lib\libc_nano.a(lib_a-findfp.o)
 .text.__sinit_lock_acquire
                0x0000000000000000        0x2 d:/mounriver/mounriver_studio/toolchain/risc-v embedded gcc/bin/../lib/gcc/riscv-none-embed/8.2.0/../../../../riscv-none-embed/lib\libc_nano.a(lib_a-findfp.o)
 .text.__sinit_lock_release
                0x0000000000000000        0x2 d:/mounriver/mounriver_studio/toolchain/risc-v embedded gcc/bin/../lib/gcc/riscv-none-embed/8.2.0/../../../../riscv-none-embed/lib\libc_nano.a(lib_a-findfp.o)
 .text.__fp_lock_all
                0x0000000000000000       0x1a d:/mounriver/mounriver_studio/toolchain/risc-v embedded gcc/bin/../lib/gcc/riscv-none-embed/8.2.0/../../../../riscv-none-embed/lib\libc_nano.a(lib_a-findfp.o)
 .text.__fp_unlock_all
                0x0000000000000000       0x1a d:/mounriver/mounriver_studio/toolchain/risc-v embedded gcc/bin/../lib/gcc/riscv-none-embed/8.2.0/../../../../riscv-none-embed/lib\libc_nano.a(lib_a-findfp.o)
 .text          0x0000000000000000        0x0 d:/mounriver/mounriver_studio/toolchain/risc-v embedded gcc/bin/../lib/gcc/riscv-none-embed/8.2.0/../../../../riscv-none-embed/lib\libc_nano.a(lib_a-fwalk.o)
 .data          0x0000000000000000        0x0 d:/mounriver/mounriver_studio/toolchain/risc-v embedded gcc/bin/../lib/gcc/riscv-none-embed/8.2.0/../../../../riscv-none-embed/lib\libc_nano.a(lib_a-fwalk.o)
 .bss           0x0000000000000000        0x0 d:/mounriver/mounriver_studio/toolchain/risc-v embedded gcc/bin/../lib/gcc/riscv-none-embed/8.2.0/../../../../riscv-none-embed/lib\libc_nano.a(lib_a-fwalk.o)
 .text._fwalk   0x0000000000000000       0x62 d:/mounriver/mounriver_studio/toolchain/risc-v embedded gcc/bin/../lib/gcc/riscv-none-embed/8.2.0/../../../../riscv-none-embed/lib\libc_nano.a(lib_a-fwalk.o)
 .text          0x0000000000000000        0x0 d:/mounriver/mounriver_studio/toolchain/risc-v embedded gcc/bin/../lib/gcc/riscv-none-embed/8.2.0/../../../../riscv-none-embed/lib\libc_nano.a(lib_a-impure.o)
 .data          0x0000000000000000        0x0 d:/mounriver/mounriver_studio/toolchain/risc-v embedded gcc/bin/../lib/gcc/riscv-none-embed/8.2.0/../../../../riscv-none-embed/lib\libc_nano.a(lib_a-impure.o)
 .bss           0x0000000000000000        0x0 d:/mounriver/mounriver_studio/toolchain/risc-v embedded gcc/bin/../lib/gcc/riscv-none-embed/8.2.0/../../../../riscv-none-embed/lib\libc_nano.a(lib_a-impure.o)
 .text          0x0000000000000000        0x0 d:/mounriver/mounriver_studio/toolchain/risc-v embedded gcc/bin/../lib/gcc/riscv-none-embed/8.2.0/../../../../riscv-none-embed/lib\libc_nano.a(lib_a-makebuf.o)
 .data          0x0000000000000000        0x0 d:/mounriver/mounriver_studio/toolchain/risc-v embedded gcc/bin/../lib/gcc/riscv-none-embed/8.2.0/../../../../riscv-none-embed/lib\libc_nano.a(lib_a-makebuf.o)
 .bss           0x0000000000000000        0x0 d:/mounriver/mounriver_studio/toolchain/risc-v embedded gcc/bin/../lib/gcc/riscv-none-embed/8.2.0/../../../../riscv-none-embed/lib\libc_nano.a(lib_a-makebuf.o)
 .text          0x0000000000000000        0x0 d:/mounriver/mounriver_studio/toolchain/risc-v embedded gcc/bin/../lib/gcc/riscv-none-embed/8.2.0/../../../../riscv-none-embed/lib\libc_nano.a(lib_a-nano-freer.o)
 .data          0x0000000000000000        0x0 d:/mounriver/mounriver_studio/toolchain/risc-v embedded gcc/bin/../lib/gcc/riscv-none-embed/8.2.0/../../../../riscv-none-embed/lib\libc_nano.a(lib_a-nano-freer.o)
 .bss           0x0000000000000000        0x0 d:/mounriver/mounriver_studio/toolchain/risc-v embedded gcc/bin/../lib/gcc/riscv-none-embed/8.2.0/../../../../riscv-none-embed/lib\libc_nano.a(lib_a-nano-freer.o)
 .text          0x0000000000000000        0x0 d:/mounriver/mounriver_studio/toolchain/risc-v embedded gcc/bin/../lib/gcc/riscv-none-embed/8.2.0/../../../../riscv-none-embed/lib\libc_nano.a(lib_a-nano-mallocr.o)
 .data          0x0000000000000000        0x0 d:/mounriver/mounriver_studio/toolchain/risc-v embedded gcc/bin/../lib/gcc/riscv-none-embed/8.2.0/../../../../riscv-none-embed/lib\libc_nano.a(lib_a-nano-mallocr.o)
 .bss           0x0000000000000000        0x0 d:/mounriver/mounriver_studio/toolchain/risc-v embedded gcc/bin/../lib/gcc/riscv-none-embed/8.2.0/../../../../riscv-none-embed/lib\libc_nano.a(lib_a-nano-mallocr.o)
 .text          0x0000000000000000        0x0 d:/mounriver/mounriver_studio/toolchain/risc-v embedded gcc/bin/../lib/gcc/riscv-none-embed/8.2.0/../../../../riscv-none-embed/lib\libc_nano.a(lib_a-nano-vfprintf.o)
 .data          0x0000000000000000        0x0 d:/mounriver/mounriver_studio/toolchain/risc-v embedded gcc/bin/../lib/gcc/riscv-none-embed/8.2.0/../../../../riscv-none-embed/lib\libc_nano.a(lib_a-nano-vfprintf.o)
 .bss           0x0000000000000000        0x0 d:/mounriver/mounriver_studio/toolchain/risc-v embedded gcc/bin/../lib/gcc/riscv-none-embed/8.2.0/../../../../riscv-none-embed/lib\libc_nano.a(lib_a-nano-vfprintf.o)
 .text.__sprint_r
                0x0000000000000000       0x2c d:/mounriver/mounriver_studio/toolchain/risc-v embedded gcc/bin/../lib/gcc/riscv-none-embed/8.2.0/../../../../riscv-none-embed/lib\libc_nano.a(lib_a-nano-vfprintf.o)
 .text.vfprintf
                0x0000000000000000       0x18 d:/mounriver/mounriver_studio/toolchain/risc-v embedded gcc/bin/../lib/gcc/riscv-none-embed/8.2.0/../../../../riscv-none-embed/lib\libc_nano.a(lib_a-nano-vfprintf.o)
 .text          0x0000000000000000        0x0 d:/mounriver/mounriver_studio/toolchain/risc-v embedded gcc/bin/../lib/gcc/riscv-none-embed/8.2.0/../../../../riscv-none-embed/lib\libc_nano.a(lib_a-nano-vfprintf_i.o)
 .data          0x0000000000000000        0x0 d:/mounriver/mounriver_studio/toolchain/risc-v embedded gcc/bin/../lib/gcc/riscv-none-embed/8.2.0/../../../../riscv-none-embed/lib\libc_nano.a(lib_a-nano-vfprintf_i.o)
 .bss           0x0000000000000000        0x0 d:/mounriver/mounriver_studio/toolchain/risc-v embedded gcc/bin/../lib/gcc/riscv-none-embed/8.2.0/../../../../riscv-none-embed/lib\libc_nano.a(lib_a-nano-vfprintf_i.o)
 .text          0x0000000000000000        0x0 d:/mounriver/mounriver_studio/toolchain/risc-v embedded gcc/bin/../lib/gcc/riscv-none-embed/8.2.0/../../../../riscv-none-embed/lib\libc_nano.a(lib_a-sbrkr.o)
 .data          0x0000000000000000        0x0 d:/mounriver/mounriver_studio/toolchain/risc-v embedded gcc/bin/../lib/gcc/riscv-none-embed/8.2.0/../../../../riscv-none-embed/lib\libc_nano.a(lib_a-sbrkr.o)
 .bss           0x0000000000000000        0x0 d:/mounriver/mounriver_studio/toolchain/risc-v embedded gcc/bin/../lib/gcc/riscv-none-embed/8.2.0/../../../../riscv-none-embed/lib\libc_nano.a(lib_a-sbrkr.o)
 .text          0x0000000000000000        0x0 d:/mounriver/mounriver_studio/toolchain/risc-v embedded gcc/bin/../lib/gcc/riscv-none-embed/8.2.0/../../../../riscv-none-embed/lib\libc_nano.a(lib_a-stdio.o)
 .data          0x0000000000000000        0x0 d:/mounriver/mounriver_studio/toolchain/risc-v embedded gcc/bin/../lib/gcc/riscv-none-embed/8.2.0/../../../../riscv-none-embed/lib\libc_nano.a(lib_a-stdio.o)
 .bss           0x0000000000000000        0x0 d:/mounriver/mounriver_studio/toolchain/risc-v embedded gcc/bin/../lib/gcc/riscv-none-embed/8.2.0/../../../../riscv-none-embed/lib\libc_nano.a(lib_a-stdio.o)
 .text.__seofread
                0x0000000000000000        0x4 d:/mounriver/mounriver_studio/toolchain/risc-v embedded gcc/bin/../lib/gcc/riscv-none-embed/8.2.0/../../../../riscv-none-embed/lib\libc_nano.a(lib_a-stdio.o)
 .text          0x0000000000000000        0x0 d:/mounriver/mounriver_studio/toolchain/risc-v embedded gcc/bin/../lib/gcc/riscv-none-embed/8.2.0/../../../../riscv-none-embed/lib\libc_nano.a(lib_a-writer.o)
 .data          0x0000000000000000        0x0 d:/mounriver/mounriver_studio/toolchain/risc-v embedded gcc/bin/../lib/gcc/riscv-none-embed/8.2.0/../../../../riscv-none-embed/lib\libc_nano.a(lib_a-writer.o)
 .bss           0x0000000000000000        0x0 d:/mounriver/mounriver_studio/toolchain/risc-v embedded gcc/bin/../lib/gcc/riscv-none-embed/8.2.0/../../../../riscv-none-embed/lib\libc_nano.a(lib_a-writer.o)
 .text          0x0000000000000000        0x0 d:/mounriver/mounriver_studio/toolchain/risc-v embedded gcc/bin/../lib/gcc/riscv-none-embed/8.2.0/../../../../riscv-none-embed/lib\libc_nano.a(lib_a-closer.o)
 .data          0x0000000000000000        0x0 d:/mounriver/mounriver_studio/toolchain/risc-v embedded gcc/bin/../lib/gcc/riscv-none-embed/8.2.0/../../../../riscv-none-embed/lib\libc_nano.a(lib_a-closer.o)
 .bss           0x0000000000000000        0x0 d:/mounriver/mounriver_studio/toolchain/risc-v embedded gcc/bin/../lib/gcc/riscv-none-embed/8.2.0/../../../../riscv-none-embed/lib\libc_nano.a(lib_a-closer.o)
 .text          0x0000000000000000        0x0 d:/mounriver/mounriver_studio/toolchain/risc-v embedded gcc/bin/../lib/gcc/riscv-none-embed/8.2.0/../../../../riscv-none-embed/lib\libc_nano.a(lib_a-fstatr.o)
 .data          0x0000000000000000        0x0 d:/mounriver/mounriver_studio/toolchain/risc-v embedded gcc/bin/../lib/gcc/riscv-none-embed/8.2.0/../../../../riscv-none-embed/lib\libc_nano.a(lib_a-fstatr.o)
 .bss           0x0000000000000000        0x0 d:/mounriver/mounriver_studio/toolchain/risc-v embedded gcc/bin/../lib/gcc/riscv-none-embed/8.2.0/../../../../riscv-none-embed/lib\libc_nano.a(lib_a-fstatr.o)
 .text          0x0000000000000000        0x0 d:/mounriver/mounriver_studio/toolchain/risc-v embedded gcc/bin/../lib/gcc/riscv-none-embed/8.2.0/../../../../riscv-none-embed/lib\libc_nano.a(lib_a-fvwrite.o)
 .data          0x0000000000000000        0x0 d:/mounriver/mounriver_studio/toolchain/risc-v embedded gcc/bin/../lib/gcc/riscv-none-embed/8.2.0/../../../../riscv-none-embed/lib\libc_nano.a(lib_a-fvwrite.o)
 .bss           0x0000000000000000        0x0 d:/mounriver/mounriver_studio/toolchain/risc-v embedded gcc/bin/../lib/gcc/riscv-none-embed/8.2.0/../../../../riscv-none-embed/lib\libc_nano.a(lib_a-fvwrite.o)
 .text.__sfvwrite_r
                0x0000000000000000      0x31a d:/mounriver/mounriver_studio/toolchain/risc-v embedded gcc/bin/../lib/gcc/riscv-none-embed/8.2.0/../../../../riscv-none-embed/lib\libc_nano.a(lib_a-fvwrite.o)
 .debug_frame   0x0000000000000000       0x60 d:/mounriver/mounriver_studio/toolchain/risc-v embedded gcc/bin/../lib/gcc/riscv-none-embed/8.2.0/../../../../riscv-none-embed/lib\libc_nano.a(lib_a-fvwrite.o)
 .text          0x0000000000000000        0x0 d:/mounriver/mounriver_studio/toolchain/risc-v embedded gcc/bin/../lib/gcc/riscv-none-embed/8.2.0/../../../../riscv-none-embed/lib\libc_nano.a(lib_a-isattyr.o)
 .data          0x0000000000000000        0x0 d:/mounriver/mounriver_studio/toolchain/risc-v embedded gcc/bin/../lib/gcc/riscv-none-embed/8.2.0/../../../../riscv-none-embed/lib\libc_nano.a(lib_a-isattyr.o)
 .bss           0x0000000000000000        0x0 d:/mounriver/mounriver_studio/toolchain/risc-v embedded gcc/bin/../lib/gcc/riscv-none-embed/8.2.0/../../../../riscv-none-embed/lib\libc_nano.a(lib_a-isattyr.o)
 .text          0x0000000000000000        0x0 d:/mounriver/mounriver_studio/toolchain/risc-v embedded gcc/bin/../lib/gcc/riscv-none-embed/8.2.0/../../../../riscv-none-embed/lib\libc_nano.a(lib_a-lseekr.o)
 .data          0x0000000000000000        0x0 d:/mounriver/mounriver_studio/toolchain/risc-v embedded gcc/bin/../lib/gcc/riscv-none-embed/8.2.0/../../../../riscv-none-embed/lib\libc_nano.a(lib_a-lseekr.o)
 .bss           0x0000000000000000        0x0 d:/mounriver/mounriver_studio/toolchain/risc-v embedded gcc/bin/../lib/gcc/riscv-none-embed/8.2.0/../../../../riscv-none-embed/lib\libc_nano.a(lib_a-lseekr.o)
 .text          0x0000000000000000        0x0 d:/mounriver/mounriver_studio/toolchain/risc-v embedded gcc/bin/../lib/gcc/riscv-none-embed/8.2.0/../../../../riscv-none-embed/lib\libc_nano.a(lib_a-memchr.o)
 .data          0x0000000000000000        0x0 d:/mounriver/mounriver_studio/toolchain/risc-v embedded gcc/bin/../lib/gcc/riscv-none-embed/8.2.0/../../../../riscv-none-embed/lib\libc_nano.a(lib_a-memchr.o)
 .bss           0x0000000000000000        0x0 d:/mounriver/mounriver_studio/toolchain/risc-v embedded gcc/bin/../lib/gcc/riscv-none-embed/8.2.0/../../../../riscv-none-embed/lib\libc_nano.a(lib_a-memchr.o)
 .text          0x0000000000000000        0x0 d:/mounriver/mounriver_studio/toolchain/risc-v embedded gcc/bin/../lib/gcc/riscv-none-embed/8.2.0/../../../../riscv-none-embed/lib\libc_nano.a(lib_a-memmove.o)
 .data          0x0000000000000000        0x0 d:/mounriver/mounriver_studio/toolchain/risc-v embedded gcc/bin/../lib/gcc/riscv-none-embed/8.2.0/../../../../riscv-none-embed/lib\libc_nano.a(lib_a-memmove.o)
 .bss           0x0000000000000000        0x0 d:/mounriver/mounriver_studio/toolchain/risc-v embedded gcc/bin/../lib/gcc/riscv-none-embed/8.2.0/../../../../riscv-none-embed/lib\libc_nano.a(lib_a-memmove.o)
 .text.memmove  0x0000000000000000       0x4a d:/mounriver/mounriver_studio/toolchain/risc-v embedded gcc/bin/../lib/gcc/riscv-none-embed/8.2.0/../../../../riscv-none-embed/lib\libc_nano.a(lib_a-memmove.o)
 .debug_frame   0x0000000000000000       0x20 d:/mounriver/mounriver_studio/toolchain/risc-v embedded gcc/bin/../lib/gcc/riscv-none-embed/8.2.0/../../../../riscv-none-embed/lib\libc_nano.a(lib_a-memmove.o)
 .text          0x0000000000000000        0x0 d:/mounriver/mounriver_studio/toolchain/risc-v embedded gcc/bin/../lib/gcc/riscv-none-embed/8.2.0/../../../../riscv-none-embed/lib\libc_nano.a(lib_a-mlock.o)
 .data          0x0000000000000000        0x0 d:/mounriver/mounriver_studio/toolchain/risc-v embedded gcc/bin/../lib/gcc/riscv-none-embed/8.2.0/../../../../riscv-none-embed/lib\libc_nano.a(lib_a-mlock.o)
 .bss           0x0000000000000000        0x0 d:/mounriver/mounriver_studio/toolchain/risc-v embedded gcc/bin/../lib/gcc/riscv-none-embed/8.2.0/../../../../riscv-none-embed/lib\libc_nano.a(lib_a-mlock.o)
 .text          0x0000000000000000        0x0 d:/mounriver/mounriver_studio/toolchain/risc-v embedded gcc/bin/../lib/gcc/riscv-none-embed/8.2.0/../../../../riscv-none-embed/lib\libc_nano.a(lib_a-nano-reallocr.o)
 .data          0x0000000000000000        0x0 d:/mounriver/mounriver_studio/toolchain/risc-v embedded gcc/bin/../lib/gcc/riscv-none-embed/8.2.0/../../../../riscv-none-embed/lib\libc_nano.a(lib_a-nano-reallocr.o)
 .bss           0x0000000000000000        0x0 d:/mounriver/mounriver_studio/toolchain/risc-v embedded gcc/bin/../lib/gcc/riscv-none-embed/8.2.0/../../../../riscv-none-embed/lib\libc_nano.a(lib_a-nano-reallocr.o)
 .text._realloc_r
                0x0000000000000000       0x72 d:/mounriver/mounriver_studio/toolchain/risc-v embedded gcc/bin/../lib/gcc/riscv-none-embed/8.2.0/../../../../riscv-none-embed/lib\libc_nano.a(lib_a-nano-reallocr.o)
 .debug_frame   0x0000000000000000       0x40 d:/mounriver/mounriver_studio/toolchain/risc-v embedded gcc/bin/../lib/gcc/riscv-none-embed/8.2.0/../../../../riscv-none-embed/lib\libc_nano.a(lib_a-nano-reallocr.o)
 .text          0x0000000000000000        0x0 d:/mounriver/mounriver_studio/toolchain/risc-v embedded gcc/bin/../lib/gcc/riscv-none-embed/8.2.0/../../../../riscv-none-embed/lib\libc_nano.a(lib_a-readr.o)
 .data          0x0000000000000000        0x0 d:/mounriver/mounriver_studio/toolchain/risc-v embedded gcc/bin/../lib/gcc/riscv-none-embed/8.2.0/../../../../riscv-none-embed/lib\libc_nano.a(lib_a-readr.o)
 .bss           0x0000000000000000        0x0 d:/mounriver/mounriver_studio/toolchain/risc-v embedded gcc/bin/../lib/gcc/riscv-none-embed/8.2.0/../../../../riscv-none-embed/lib\libc_nano.a(lib_a-readr.o)
 .text          0x0000000000000000        0x0 d:/mounriver/mounriver_studio/toolchain/risc-v embedded gcc/bin/../lib/gcc/riscv-none-embed/8.2.0/../../../../riscv-none-embed/lib\libc_nano.a(lib_a-reent.o)
 .data          0x0000000000000000        0x0 d:/mounriver/mounriver_studio/toolchain/risc-v embedded gcc/bin/../lib/gcc/riscv-none-embed/8.2.0/../../../../riscv-none-embed/lib\libc_nano.a(lib_a-reent.o)
 .bss           0x0000000000000000        0x0 d:/mounriver/mounriver_studio/toolchain/risc-v embedded gcc/bin/../lib/gcc/riscv-none-embed/8.2.0/../../../../riscv-none-embed/lib\libc_nano.a(lib_a-reent.o)
 .text.cleanup_glue
                0x0000000000000000       0x2c d:/mounriver/mounriver_studio/toolchain/risc-v embedded gcc/bin/../lib/gcc/riscv-none-embed/8.2.0/../../../../riscv-none-embed/lib\libc_nano.a(lib_a-reent.o)
 .text._reclaim_reent
                0x0000000000000000      0x10c d:/mounriver/mounriver_studio/toolchain/risc-v embedded gcc/bin/../lib/gcc/riscv-none-embed/8.2.0/../../../../riscv-none-embed/lib\libc_nano.a(lib_a-reent.o)
 .text          0x0000000000000000        0x0 d:/mounriver/mounriver_studio/toolchain/risc-v embedded gcc/bin/../lib/gcc/riscv-none-embed/8.2.0/../../../../riscv-none-embed/lib\libc_nano.a(lib_a-nano-msizer.o)
 .data          0x0000000000000000        0x0 d:/mounriver/mounriver_studio/toolchain/risc-v embedded gcc/bin/../lib/gcc/riscv-none-embed/8.2.0/../../../../riscv-none-embed/lib\libc_nano.a(lib_a-nano-msizer.o)
 .bss           0x0000000000000000        0x0 d:/mounriver/mounriver_studio/toolchain/risc-v embedded gcc/bin/../lib/gcc/riscv-none-embed/8.2.0/../../../../riscv-none-embed/lib\libc_nano.a(lib_a-nano-msizer.o)
 .text._malloc_usable_size_r
                0x0000000000000000       0x14 d:/mounriver/mounriver_studio/toolchain/risc-v embedded gcc/bin/../lib/gcc/riscv-none-embed/8.2.0/../../../../riscv-none-embed/lib\libc_nano.a(lib_a-nano-msizer.o)
 .debug_frame   0x0000000000000000       0x20 d:/mounriver/mounriver_studio/toolchain/risc-v embedded gcc/bin/../lib/gcc/riscv-none-embed/8.2.0/../../../../riscv-none-embed/lib\libc_nano.a(lib_a-nano-msizer.o)
 .text          0x0000000000000000        0x0 d:/mounriver/mounriver_studio/toolchain/risc-v embedded gcc/bin/../lib/gcc/riscv-none-embed/8.2.0/../../../../riscv-none-embed/lib\libnosys.a(close.o)
 .data          0x0000000000000000        0x0 d:/mounriver/mounriver_studio/toolchain/risc-v embedded gcc/bin/../lib/gcc/riscv-none-embed/8.2.0/../../../../riscv-none-embed/lib\libnosys.a(close.o)
 .bss           0x0000000000000000        0x0 d:/mounriver/mounriver_studio/toolchain/risc-v embedded gcc/bin/../lib/gcc/riscv-none-embed/8.2.0/../../../../riscv-none-embed/lib\libnosys.a(close.o)
 .text          0x0000000000000000        0x0 d:/mounriver/mounriver_studio/toolchain/risc-v embedded gcc/bin/../lib/gcc/riscv-none-embed/8.2.0/../../../../riscv-none-embed/lib\libnosys.a(fstat.o)
 .data          0x0000000000000000        0x0 d:/mounriver/mounriver_studio/toolchain/risc-v embedded gcc/bin/../lib/gcc/riscv-none-embed/8.2.0/../../../../riscv-none-embed/lib\libnosys.a(fstat.o)
 .bss           0x0000000000000000        0x0 d:/mounriver/mounriver_studio/toolchain/risc-v embedded gcc/bin/../lib/gcc/riscv-none-embed/8.2.0/../../../../riscv-none-embed/lib\libnosys.a(fstat.o)
 .text          0x0000000000000000        0x0 d:/mounriver/mounriver_studio/toolchain/risc-v embedded gcc/bin/../lib/gcc/riscv-none-embed/8.2.0/../../../../riscv-none-embed/lib\libnosys.a(isatty.o)
 .data          0x0000000000000000        0x0 d:/mounriver/mounriver_studio/toolchain/risc-v embedded gcc/bin/../lib/gcc/riscv-none-embed/8.2.0/../../../../riscv-none-embed/lib\libnosys.a(isatty.o)
 .bss           0x0000000000000000        0x0 d:/mounriver/mounriver_studio/toolchain/risc-v embedded gcc/bin/../lib/gcc/riscv-none-embed/8.2.0/../../../../riscv-none-embed/lib\libnosys.a(isatty.o)
 .text          0x0000000000000000        0x0 d:/mounriver/mounriver_studio/toolchain/risc-v embedded gcc/bin/../lib/gcc/riscv-none-embed/8.2.0/../../../../riscv-none-embed/lib\libnosys.a(lseek.o)
 .data          0x0000000000000000        0x0 d:/mounriver/mounriver_studio/toolchain/risc-v embedded gcc/bin/../lib/gcc/riscv-none-embed/8.2.0/../../../../riscv-none-embed/lib\libnosys.a(lseek.o)
 .bss           0x0000000000000000        0x0 d:/mounriver/mounriver_studio/toolchain/risc-v embedded gcc/bin/../lib/gcc/riscv-none-embed/8.2.0/../../../../riscv-none-embed/lib\libnosys.a(lseek.o)
 .text          0x0000000000000000        0x0 d:/mounriver/mounriver_studio/toolchain/risc-v embedded gcc/bin/../lib/gcc/riscv-none-embed/8.2.0/../../../../riscv-none-embed/lib\libnosys.a(read.o)
 .data          0x0000000000000000        0x0 d:/mounriver/mounriver_studio/toolchain/risc-v embedded gcc/bin/../lib/gcc/riscv-none-embed/8.2.0/../../../../riscv-none-embed/lib\libnosys.a(read.o)
 .bss           0x0000000000000000        0x0 d:/mounriver/mounriver_studio/toolchain/risc-v embedded gcc/bin/../lib/gcc/riscv-none-embed/8.2.0/../../../../riscv-none-embed/lib\libnosys.a(read.o)
 .text          0x0000000000000000        0x0 d:/mounriver/mounriver_studio/toolchain/risc-v embedded gcc/bin/../lib/gcc/riscv-none-embed/8.2.0/../../../../riscv-none-embed/lib\libnosys.a(sbrk.o)
 .data          0x0000000000000000        0x0 d:/mounriver/mounriver_studio/toolchain/risc-v embedded gcc/bin/../lib/gcc/riscv-none-embed/8.2.0/../../../../riscv-none-embed/lib\libnosys.a(sbrk.o)
 .bss           0x0000000000000000        0x0 d:/mounriver/mounriver_studio/toolchain/risc-v embedded gcc/bin/../lib/gcc/riscv-none-embed/8.2.0/../../../../riscv-none-embed/lib\libnosys.a(sbrk.o)

Memory Configuration

Name             Origin             Length             Attributes
FLASH            0x0000000000000000 0x0000000000030000 xr
RAM              0x0000000020000000 0x0000000000020000 xrw
*default*        0x0000000000000000 0xffffffffffffffff

Linker script and memory map

LOAD ./User/bsp_uart.o
LOAD ./User/ch32v30x_it.o
LOAD ./User/main.o
LOAD ./User/system_ch32v30x.o
LOAD ./Startup/startup_ch32v30x.o
LOAD ./Peripheral/src/ch32v30x_adc.o
LOAD ./Peripheral/src/ch32v30x_bkp.o
LOAD ./Peripheral/src/ch32v30x_can.o
LOAD ./Peripheral/src/ch32v30x_crc.o
LOAD ./Peripheral/src/ch32v30x_dac.o
LOAD ./Peripheral/src/ch32v30x_dbgmcu.o
LOAD ./Peripheral/src/ch32v30x_dma.o
LOAD ./Peripheral/src/ch32v30x_dvp.o
LOAD ./Peripheral/src/ch32v30x_eth.o
LOAD ./Peripheral/src/ch32v30x_exti.o
LOAD ./Peripheral/src/ch32v30x_flash.o
LOAD ./Peripheral/src/ch32v30x_fsmc.o
LOAD ./Peripheral/src/ch32v30x_gpio.o
LOAD ./Peripheral/src/ch32v30x_i2c.o
LOAD ./Peripheral/src/ch32v30x_iwdg.o
LOAD ./Peripheral/src/ch32v30x_misc.o
LOAD ./Peripheral/src/ch32v30x_opa.o
LOAD ./Peripheral/src/ch32v30x_pwr.o
LOAD ./Peripheral/src/ch32v30x_rcc.o
LOAD ./Peripheral/src/ch32v30x_rng.o
LOAD ./Peripheral/src/ch32v30x_rtc.o
LOAD ./Peripheral/src/ch32v30x_sdio.o
LOAD ./Peripheral/src/ch32v30x_spi.o
LOAD ./Peripheral/src/ch32v30x_tim.o
LOAD ./Peripheral/src/ch32v30x_usart.o
LOAD ./Peripheral/src/ch32v30x_wwdg.o
LOAD ./Debug/debug.o
LOAD ./Core/core_riscv.o
LOAD F:\Desktop\ch32v307\Application\8_uarts_server\bare_metal\8_uart_server\ETH\User\libwchnet.a
LOAD d:/mounriver/mounriver_studio/toolchain/risc-v embedded gcc/bin/../lib/gcc/riscv-none-embed/8.2.0\libgcc.a
LOAD d:/mounriver/mounriver_studio/toolchain/risc-v embedded gcc/bin/../lib/gcc/riscv-none-embed/8.2.0/../../../../riscv-none-embed/lib\libc_nano.a
LOAD d:/mounriver/mounriver_studio/toolchain/risc-v embedded gcc/bin/../lib/gcc/riscv-none-embed/8.2.0\libgcc.a
START GROUP
LOAD d:/mounriver/mounriver_studio/toolchain/risc-v embedded gcc/bin/../lib/gcc/riscv-none-embed/8.2.0\libgcc.a
LOAD d:/mounriver/mounriver_studio/toolchain/risc-v embedded gcc/bin/../lib/gcc/riscv-none-embed/8.2.0/../../../../riscv-none-embed/lib\libc_nano.a
LOAD d:/mounriver/mounriver_studio/toolchain/risc-v embedded gcc/bin/../lib/gcc/riscv-none-embed/8.2.0/../../../../riscv-none-embed/lib\libnosys.a
END GROUP
START GROUP
LOAD d:/mounriver/mounriver_studio/toolchain/risc-v embedded gcc/bin/../lib/gcc/riscv-none-embed/8.2.0\libgcc.a
LOAD d:/mounriver/mounriver_studio/toolchain/risc-v embedded gcc/bin/../lib/gcc/riscv-none-embed/8.2.0/../../../../riscv-none-embed/lib\libc_nano.a
LOAD d:/mounriver/mounriver_studio/toolchain/risc-v embedded gcc/bin/../lib/gcc/riscv-none-embed/8.2.0/../../../../riscv-none-embed/lib\libnosys.a
END GROUP
                0x0000000000000800                __stack_size = 0x800
                [!provide]                        PROVIDE (_stack_size = __stack_size)

.init           0x0000000000000000       0x38
                0x0000000000000000                _sinit = .
                0x0000000000000000                . = ALIGN (0x4)
 *(SORT_NONE(.init))
 .init          0x0000000000000000       0x38 ./Startup/startup_ch32v30x.o
                0x0000000000000000                _start
                0x0000000000000038                . = ALIGN (0x4)
                0x0000000000000038                _einit = .

.vector         0x0000000000000038      0x1c8
 *(.vector)
 .vector        0x0000000000000038      0x1a0 ./Startup/startup_ch32v30x.o
                0x0000000000000200                . = ALIGN (0x40)
 *fill*         0x00000000000001d8       0x28 

.text           0x0000000000000200     0xa040
                0x0000000000000200                . = ALIGN (0x4)
 *(.text)
 .text          0x0000000000000200       0x60 d:/mounriver/mounriver_studio/toolchain/risc-v embedded gcc/bin/../lib/gcc/riscv-none-embed/8.2.0\libgcc.a(save-restore.o)
                0x0000000000000200                __riscv_save_12
                0x0000000000000208                __riscv_save_9
                0x0000000000000208                __riscv_save_11
                0x0000000000000208                __riscv_save_10
                0x0000000000000208                __riscv_save_8
                0x0000000000000216                __riscv_save_4
                0x0000000000000216                __riscv_save_6
                0x0000000000000216                __riscv_save_5
                0x0000000000000216                __riscv_save_7
                0x0000000000000230                __riscv_save_3
                0x0000000000000230                __riscv_save_2
                0x0000000000000230                __riscv_save_1
                0x0000000000000230                __riscv_save_0
                0x000000000000023c                __riscv_restore_12
                0x0000000000000240                __riscv_restore_11
                0x0000000000000240                __riscv_restore_9
                0x0000000000000240                __riscv_restore_10
                0x0000000000000240                __riscv_restore_8
                0x000000000000024a                __riscv_restore_5
                0x000000000000024a                __riscv_restore_7
                0x000000000000024a                __riscv_restore_6
                0x000000000000024a                __riscv_restore_4
                0x0000000000000254                __riscv_restore_3
                0x0000000000000254                __riscv_restore_0
                0x0000000000000254                __riscv_restore_2
                0x0000000000000254                __riscv_restore_1
 .text          0x0000000000000260       0xa8 d:/mounriver/mounriver_studio/toolchain/risc-v embedded gcc/bin/../lib/gcc/riscv-none-embed/8.2.0/../../../../riscv-none-embed/lib\libc_nano.a(lib_a-memset.o)
                0x0000000000000260                memset
 *(.text.*)
 .text.UART_GPIO_Init
                0x0000000000000308      0x13e ./User/bsp_uart.o
                0x0000000000000308                UART_GPIO_Init
 .text.UART_DMA_Init
                0x0000000000000446      0x364 ./User/bsp_uart.o
                0x0000000000000446                UART_DMA_Init
 .text.UART_Interrupt_Init
                0x00000000000007aa       0xe0 ./User/bsp_uart.o
                0x00000000000007aa                UART_Interrupt_Init
 .text.BSP_Uart_Init
                0x000000000000088a      0x2e0 ./User/bsp_uart.o
                0x000000000000088a                BSP_Uart_Init
 .text.NMI_Handler
                0x0000000000000b6a        0x4 ./User/ch32v30x_it.o
                0x0000000000000b6a                NMI_Handler
 .text.HardFault_Handler
                0x0000000000000b6e       0x44 ./User/ch32v30x_it.o
                0x0000000000000b6e                HardFault_Handler
 .text.ETH_IRQHandler
                0x0000000000000bb2        0x8 ./User/ch32v30x_it.o
                0x0000000000000bb2                ETH_IRQHandler
 .text.TIM2_IRQHandler
                0x0000000000000bba       0x14 ./User/ch32v30x_it.o
                0x0000000000000bba                TIM2_IRQHandler
 .text.DMA1_Channel4_IRQHandler
                0x0000000000000bce       0x32 ./User/ch32v30x_it.o
                0x0000000000000bce                DMA1_Channel4_IRQHandler
 .text.DMA1_Channel7_IRQHandler
                0x0000000000000c00       0x3a ./User/ch32v30x_it.o
                0x0000000000000c00                DMA1_Channel7_IRQHandler
 .text.DMA1_Channel2_IRQHandler
                0x0000000000000c3a       0x38 ./User/ch32v30x_it.o
                0x0000000000000c3a                DMA1_Channel2_IRQHandler
 .text.DMA2_Channel5_IRQHandler
                0x0000000000000c72       0x3a ./User/ch32v30x_it.o
                0x0000000000000c72                DMA2_Channel5_IRQHandler
 .text.DMA2_Channel4_IRQHandler
                0x0000000000000cac       0x3a ./User/ch32v30x_it.o
                0x0000000000000cac                DMA2_Channel4_IRQHandler
 .text.DMA2_Channel6_IRQHandler
                0x0000000000000ce6       0x3a ./User/ch32v30x_it.o
                0x0000000000000ce6                DMA2_Channel6_IRQHandler
 .text.DMA2_Channel8_IRQHandler
                0x0000000000000d20       0x46 ./User/ch32v30x_it.o
                0x0000000000000d20                DMA2_Channel8_IRQHandler
 .text.DMA2_Channel10_IRQHandler
                0x0000000000000d66       0x46 ./User/ch32v30x_it.o
                0x0000000000000d66                DMA2_Channel10_IRQHandler
 .text.WCHNET_LibInit
                0x0000000000000dac       0x44 ./User/main.o
                0x0000000000000dac                WCHNET_LibInit
 .text.SET_MCO  0x0000000000000df0       0x46 ./User/main.o
                0x0000000000000df0                SET_MCO
 .text.TIM2_Init
                0x0000000000000e36       0x66 ./User/main.o
                0x0000000000000e36                TIM2_Init
 .text.WCHNET_CreatTcpSocket
                0x0000000000000e9c       0x74 ./User/main.o
                0x0000000000000e9c                WCHNET_CreatTcpSocket
 .text.WCHNET_HandleSockInt
                0x0000000000000f10       0x76 ./User/main.o
                0x0000000000000f10                WCHNET_HandleSockInt
 .text.WCHNET_HandleGlobalInt
                0x0000000000000f86       0x3c ./User/main.o
                0x0000000000000f86                WCHNET_HandleGlobalInt
 .text.uart_tx  0x0000000000000fc2      0x16c ./User/main.o
                0x0000000000000fc2                uart_tx
 .text.uart_rx  0x000000000000112e       0xea ./User/main.o
                0x000000000000112e                uart_rx
 .text.startup.main
                0x0000000000001218       0x6e ./User/main.o
                0x0000000000001218                main
 .text.SystemInit
                0x0000000000001286       0xf4 ./User/system_ch32v30x.o
                0x0000000000001286                SystemInit
 .text.vector_handler
                0x000000000000137a       0xbe ./Startup/startup_ch32v30x.o
                0x000000000000137e                Ecall_M_Mode_Handler
                0x0000000000001380                Ecall_U_Mode_Handler
                0x0000000000001382                Break_Point_Handler
                0x0000000000001384                SysTick_Handler
                0x0000000000001386                SW_handler
                0x0000000000001388                WWDG_IRQHandler
                0x000000000000138a                PVD_IRQHandler
                0x000000000000138c                TAMPER_IRQHandler
                0x000000000000138e                RTC_IRQHandler
                0x0000000000001390                FLASH_IRQHandler
                0x0000000000001392                RCC_IRQHandler
                0x0000000000001394                EXTI0_IRQHandler
                0x0000000000001396                EXTI1_IRQHandler
                0x0000000000001398                EXTI2_IRQHandler
                0x000000000000139a                EXTI3_IRQHandler
                0x000000000000139c                EXTI4_IRQHandler
                0x000000000000139e                DMA1_Channel1_IRQHandler
                0x00000000000013a2                DMA1_Channel3_IRQHandler
                0x00000000000013a6                DMA1_Channel5_IRQHandler
                0x00000000000013a8                DMA1_Channel6_IRQHandler
                0x00000000000013ac                ADC1_2_IRQHandler
                0x00000000000013ae                USB_HP_CAN1_TX_IRQHandler
                0x00000000000013b0                USB_LP_CAN1_RX0_IRQHandler
                0x00000000000013b2                CAN1_RX1_IRQHandler
                0x00000000000013b4                CAN1_SCE_IRQHandler
                0x00000000000013b6                EXTI9_5_IRQHandler
                0x00000000000013b8                TIM1_BRK_IRQHandler
                0x00000000000013ba                TIM1_UP_IRQHandler
                0x00000000000013bc                TIM1_TRG_COM_IRQHandler
                0x00000000000013be                TIM1_CC_IRQHandler
                0x00000000000013c2                TIM3_IRQHandler
                0x00000000000013c4                TIM4_IRQHandler
                0x00000000000013c6                I2C1_EV_IRQHandler
                0x00000000000013c8                I2C1_ER_IRQHandler
                0x00000000000013ca                I2C2_EV_IRQHandler
                0x00000000000013cc                I2C2_ER_IRQHandler
                0x00000000000013ce                SPI1_IRQHandler
                0x00000000000013d0                SPI2_IRQHandler
                0x00000000000013d2                USART1_IRQHandler
                0x00000000000013d4                USART2_IRQHandler
                0x00000000000013d6                USART3_IRQHandler
                0x00000000000013d8                EXTI15_10_IRQHandler
                0x00000000000013da                RTCAlarm_IRQHandler
                0x00000000000013dc                USBWakeUp_IRQHandler
                0x00000000000013de                TIM8_BRK_IRQHandler
                0x00000000000013e0                TIM8_UP_IRQHandler
                0x00000000000013e2                TIM8_TRG_COM_IRQHandler
                0x00000000000013e4                TIM8_CC_IRQHandler
                0x00000000000013e6                RNG_IRQHandler
                0x00000000000013e8                FSMC_IRQHandler
                0x00000000000013ea                SDIO_IRQHandler
                0x00000000000013ec                TIM5_IRQHandler
                0x00000000000013ee                SPI3_IRQHandler
                0x00000000000013f0                UART4_IRQHandler
                0x00000000000013f2                UART5_IRQHandler
                0x00000000000013f4                TIM6_IRQHandler
                0x00000000000013f6                TIM7_IRQHandler
                0x00000000000013f8                DMA2_Channel1_IRQHandler
                0x00000000000013fa                DMA2_Channel2_IRQHandler
                0x00000000000013fc                DMA2_Channel3_IRQHandler
                0x0000000000001404                ETH_WKUP_IRQHandler
                0x0000000000001406                CAN2_TX_IRQHandler
                0x0000000000001408                CAN2_RX0_IRQHandler
                0x000000000000140a                CAN2_RX1_IRQHandler
                0x000000000000140c                CAN2_SCE_IRQHandler
                0x000000000000140e                OTG_FS_IRQHandler
                0x0000000000001410                USBHSWakeup_IRQHandler
                0x0000000000001412                USBHS_IRQHandler
                0x0000000000001414                DVP_IRQHandler
                0x0000000000001416                UART6_IRQHandler
                0x0000000000001418                UART7_IRQHandler
                0x000000000000141a                UART8_IRQHandler
                0x000000000000141c                TIM9_BRK_IRQHandler
                0x000000000000141e                TIM9_UP_IRQHandler
                0x0000000000001420                TIM9_TRG_COM_IRQHandler
                0x0000000000001422                TIM9_CC_IRQHandler
                0x0000000000001424                TIM10_BRK_IRQHandler
                0x0000000000001426                TIM10_UP_IRQHandler
                0x0000000000001428                TIM10_TRG_COM_IRQHandler
                0x000000000000142a                TIM10_CC_IRQHandler
                0x000000000000142e                DMA2_Channel7_IRQHandler
                0x0000000000001432                DMA2_Channel9_IRQHandler
                0x0000000000001436                DMA2_Channel11_IRQHandler
 .text.handle_reset
                0x0000000000001438       0x8e ./Startup/startup_ch32v30x.o
                0x0000000000001438                handle_reset
 .text.DMA_DeInit
                0x00000000000014c6      0x16c ./Peripheral/src/ch32v30x_dma.o
                0x00000000000014c6                DMA_DeInit
 .text.DMA_Init
                0x0000000000001632       0x38 ./Peripheral/src/ch32v30x_dma.o
                0x0000000000001632                DMA_Init
 .text.DMA_Cmd  0x000000000000166a       0x14 ./Peripheral/src/ch32v30x_dma.o
                0x000000000000166a                DMA_Cmd
 .text.DMA_ITConfig
                0x000000000000167e       0x12 ./Peripheral/src/ch32v30x_dma.o
                0x000000000000167e                DMA_ITConfig
 .text.DMA_GetFlagStatus
                0x0000000000001690       0x32 ./Peripheral/src/ch32v30x_dma.o
                0x0000000000001690                DMA_GetFlagStatus
 .text.DMA_ClearFlag
                0x00000000000016c2       0x2c ./Peripheral/src/ch32v30x_dma.o
                0x00000000000016c2                DMA_ClearFlag
 .text.DMA_GetITStatus
                0x00000000000016ee        0xa ./Peripheral/src/ch32v30x_dma.o
                0x00000000000016ee                DMA_GetITStatus
 .text.DMA_ClearITPendingBit
                0x00000000000016f8        0xa ./Peripheral/src/ch32v30x_dma.o
                0x00000000000016f8                DMA_ClearITPendingBit
 .text.ETH_DeInit
                0x0000000000001702       0x14 ./Peripheral/src/ch32v30x_eth.o
                0x0000000000001702                ETH_DeInit
 .text.ETH_StructInit
                0x0000000000001716       0xd8 ./Peripheral/src/ch32v30x_eth.o
                0x0000000000001716                ETH_StructInit
 .text.ETH_ReadPHYRegister
                0x00000000000017ee       0x58 ./Peripheral/src/ch32v30x_eth.o
                0x00000000000017ee                ETH_ReadPHYRegister
 .text.ETH_WritePHYRegister
                0x0000000000001846       0x52 ./Peripheral/src/ch32v30x_eth.o
                0x0000000000001846                ETH_WritePHYRegister
 .text.ETH_DMATxDescChainInit
                0x0000000000001898       0x42 ./Peripheral/src/ch32v30x_eth.o
                0x0000000000001898                ETH_DMATxDescChainInit
 .text.ETH_DMARxDescChainInit
                0x00000000000018da       0x4c ./Peripheral/src/ch32v30x_eth.o
                0x00000000000018da                ETH_DMARxDescChainInit
 .text.ETH_SoftwareReset
                0x0000000000001926        0xe ./Peripheral/src/ch32v30x_eth.o
                0x0000000000001926                ETH_SoftwareReset
 .text.ETH_DMAClearITPendingBit
                0x0000000000001934        0x8 ./Peripheral/src/ch32v30x_eth.o
                0x0000000000001934                ETH_DMAClearITPendingBit
 .text.ETH_FlushTransmitFIFO
                0x000000000000193c       0x10 ./Peripheral/src/ch32v30x_eth.o
                0x000000000000193c                ETH_FlushTransmitFIFO
 .text.ETH_Start
                0x000000000000194c       0x32 ./Peripheral/src/ch32v30x_eth.o
                0x000000000000194c                ETH_Start
 .text.ETH_DMAITConfig
                0x000000000000197e       0x1e ./Peripheral/src/ch32v30x_eth.o
                0x000000000000197e                ETH_DMAITConfig
 .text.ETH_GetCurrentTxBufferAddress
                0x000000000000199c        0x8 ./Peripheral/src/ch32v30x_eth.o
                0x000000000000199c                ETH_GetCurrentTxBufferAddress
 .text.GPIO_Init
                0x00000000000019a4       0xc0 ./Peripheral/src/ch32v30x_gpio.o
                0x00000000000019a4                GPIO_Init
 .text.GPIO_SetBits
                0x0000000000001a64        0x4 ./Peripheral/src/ch32v30x_gpio.o
                0x0000000000001a64                GPIO_SetBits
 .text.GPIO_ResetBits
                0x0000000000001a68        0x4 ./Peripheral/src/ch32v30x_gpio.o
                0x0000000000001a68                GPIO_ResetBits
 .text.NVIC_Init
                0x0000000000001a6c       0xa6 ./Peripheral/src/ch32v30x_misc.o
                0x0000000000001a6c                NVIC_Init
 .text.RCC_GetClocksFreq
                0x0000000000001b12      0x106 ./Peripheral/src/ch32v30x_rcc.o
                0x0000000000001b12                RCC_GetClocksFreq
 .text.RCC_AHBPeriphClockCmd
                0x0000000000001c18       0x1e ./Peripheral/src/ch32v30x_rcc.o
                0x0000000000001c18                RCC_AHBPeriphClockCmd
 .text.RCC_APB2PeriphClockCmd
                0x0000000000001c36       0x1e ./Peripheral/src/ch32v30x_rcc.o
                0x0000000000001c36                RCC_APB2PeriphClockCmd
 .text.RCC_APB1PeriphClockCmd
                0x0000000000001c54       0x1e ./Peripheral/src/ch32v30x_rcc.o
                0x0000000000001c54                RCC_APB1PeriphClockCmd
 .text.RCC_MCOConfig
                0x0000000000001c72        0x8 ./Peripheral/src/ch32v30x_rcc.o
                0x0000000000001c72                RCC_MCOConfig
 .text.RCC_GetFlagStatus
                0x0000000000001c7a       0x2e ./Peripheral/src/ch32v30x_rcc.o
                0x0000000000001c7a                RCC_GetFlagStatus
 .text.RCC_PREDIV2Config
                0x0000000000001ca8       0x10 ./Peripheral/src/ch32v30x_rcc.o
                0x0000000000001ca8                RCC_PREDIV2Config
 .text.RCC_PLL3Config
                0x0000000000001cb8       0x12 ./Peripheral/src/ch32v30x_rcc.o
                0x0000000000001cb8                RCC_PLL3Config
 .text.RCC_PLL3Cmd
                0x0000000000001cca       0x24 ./Peripheral/src/ch32v30x_rcc.o
                0x0000000000001cca                RCC_PLL3Cmd
 .text.RCC_AHBPeriphResetCmd
                0x0000000000001cee       0x1e ./Peripheral/src/ch32v30x_rcc.o
                0x0000000000001cee                RCC_AHBPeriphResetCmd
 .text.TIM_TimeBaseInit
                0x0000000000001d0c       0xaa ./Peripheral/src/ch32v30x_tim.o
                0x0000000000001d0c                TIM_TimeBaseInit
 .text.TIM_Cmd  0x0000000000001db6       0x18 ./Peripheral/src/ch32v30x_tim.o
                0x0000000000001db6                TIM_Cmd
 .text.TIM_ITConfig
                0x0000000000001dce       0x12 ./Peripheral/src/ch32v30x_tim.o
                0x0000000000001dce                TIM_ITConfig
 .text.TIM_ClearITPendingBit
                0x0000000000001de0        0xc ./Peripheral/src/ch32v30x_tim.o
                0x0000000000001de0                TIM_ClearITPendingBit
 .text.USART_Init
                0x0000000000001dec       0xba ./Peripheral/src/ch32v30x_usart.o
                0x0000000000001dec                USART_Init
 .text.USART_Cmd
                0x0000000000001ea6       0x16 ./Peripheral/src/ch32v30x_usart.o
                0x0000000000001ea6                USART_Cmd
 .text.USART_DMACmd
                0x0000000000001ebc       0x12 ./Peripheral/src/ch32v30x_usart.o
                0x0000000000001ebc                USART_DMACmd
 .text.USART_SendData
                0x0000000000001ece        0x8 ./Peripheral/src/ch32v30x_usart.o
                0x0000000000001ece                USART_SendData
 .text.USART_GetFlagStatus
                0x0000000000001ed6        0xa ./Peripheral/src/ch32v30x_usart.o
                0x0000000000001ed6                USART_GetFlagStatus
 .text.Delay_Init
                0x0000000000001ee0       0x26 ./Debug/debug.o
                0x0000000000001ee0                Delay_Init
 .text.Delay_Ms
                0x0000000000001f06       0x2c ./Debug/debug.o
                0x0000000000001f06                Delay_Ms
 .text._write   0x0000000000001f32       0x3a ./Debug/debug.o
                0x0000000000001f32                _write
 .text.__get_MEPC
                0x0000000000001f6c        0x6 ./Core/core_riscv.o
                0x0000000000001f6c                __get_MEPC
 .text.__get_MCAUSE
                0x0000000000001f72        0x6 ./Core/core_riscv.o
                0x0000000000001f72                __get_MCAUSE
 .text.__get_MTVAL
                0x0000000000001f78        0x6 ./Core/core_riscv.o
                0x0000000000001f78                __get_MTVAL
 .text.low_level_output
                0x0000000000001f7e       0xac F:\Desktop\ch32v307\Application\8_uarts_server\bare_metal\8_uart_server\ETH\User\libwchnet.a(ethernetif.o)
 .text.low_level_init
                0x000000000000202a       0x7a F:\Desktop\ch32v307\Application\8_uarts_server\bare_metal\8_uart_server\ETH\User\libwchnet.a(ethernetif.o)
                0x000000000000202a                low_level_init
 .text.ethernetif_init
                0x00000000000020a4       0x36 F:\Desktop\ch32v307\Application\8_uarts_server\bare_metal\8_uart_server\ETH\User\libwchnet.a(ethernetif.o)
                0x00000000000020a4                ethernetif_init
 .text.WCHNET_SetHostname
                0x00000000000020da       0x16 F:\Desktop\ch32v307\Application\8_uarts_server\bare_metal\8_uart_server\ETH\User\libwchnet.a(ethernetif.o)
                0x00000000000020da                WCHNET_SetHostname
 .text.ethernetif_input
                0x00000000000020f0      0x18c F:\Desktop\ch32v307\Application\8_uarts_server\bare_metal\8_uart_server\ETH\User\libwchnet.a(ethernetif.o)
                0x00000000000020f0                ethernetif_input
 .text.SetupNetif
                0x000000000000227c       0xb8 F:\Desktop\ch32v307\Application\8_uarts_server\bare_metal\8_uart_server\ETH\User\libwchnet.a(ethernetif.o)
                0x000000000000227c                SetupNetif
 .text.LwIPPeriodicHandle
                0x0000000000002334      0x100 F:\Desktop\ch32v307\Application\8_uarts_server\bare_metal\8_uart_server\ETH\User\libwchnet.a(ethernetif.o)
                0x0000000000002334                LwIPPeriodicHandle
 .text.htons    0x0000000000002434        0xe F:\Desktop\ch32v307\Application\8_uarts_server\bare_metal\8_uart_server\ETH\User\libwchnet.a(inet.o)
                0x0000000000002434                htons
 .text.ntohs    0x0000000000002442        0xe F:\Desktop\ch32v307\Application\8_uarts_server\bare_metal\8_uart_server\ETH\User\libwchnet.a(inet.o)
                0x0000000000002442                ntohs
 .text.htonl    0x0000000000002450       0x24 F:\Desktop\ch32v307\Application\8_uarts_server\bare_metal\8_uart_server\ETH\User\libwchnet.a(inet.o)
                0x0000000000002450                htonl
 .text.ntohl    0x0000000000002474        0xa F:\Desktop\ch32v307\Application\8_uarts_server\bare_metal\8_uart_server\ETH\User\libwchnet.a(inet.o)
                0x0000000000002474                ntohl
 .text.ip_reass_tmr
                0x000000000000247e       0xe6 F:\Desktop\ch32v307\Application\8_uarts_server\bare_metal\8_uart_server\ETH\User\libwchnet.a(ip_frag.o)
                0x000000000000247e                ip_reass_tmr
 .text.ip_reass
                0x0000000000002564      0x3d2 F:\Desktop\ch32v307\Application\8_uarts_server\bare_metal\8_uart_server\ETH\User\libwchnet.a(ip_frag.o)
                0x0000000000002564                ip_reass
 .text.ip_frag  0x0000000000002936      0x176 F:\Desktop\ch32v307\Application\8_uarts_server\bare_metal\8_uart_server\ETH\User\libwchnet.a(ip_frag.o)
                0x0000000000002936                ip_frag
 .text.lwip_init
                0x0000000000002aac       0x18 F:\Desktop\ch32v307\Application\8_uarts_server\bare_metal\8_uart_server\ETH\User\libwchnet.a(init.o)
                0x0000000000002aac                lwip_init
 .text.mem_init
                0x0000000000002ac4       0x3e F:\Desktop\ch32v307\Application\8_uarts_server\bare_metal\8_uart_server\ETH\User\libwchnet.a(mem.o)
                0x0000000000002ac4                mem_init
 .text.mem_free
                0x0000000000002b02       0x84 F:\Desktop\ch32v307\Application\8_uarts_server\bare_metal\8_uart_server\ETH\User\libwchnet.a(mem.o)
                0x0000000000002b02                mem_free
 .text.mem_realloc
                0x0000000000002b86       0xca F:\Desktop\ch32v307\Application\8_uarts_server\bare_metal\8_uart_server\ETH\User\libwchnet.a(mem.o)
                0x0000000000002b86                mem_realloc
 .text.mem_malloc
                0x0000000000002c50       0xd0 F:\Desktop\ch32v307\Application\8_uarts_server\bare_metal\8_uart_server\ETH\User\libwchnet.a(mem.o)
                0x0000000000002c50                mem_malloc
 .text.memp_init
                0x0000000000002d20       0x50 F:\Desktop\ch32v307\Application\8_uarts_server\bare_metal\8_uart_server\ETH\User\libwchnet.a(memp.o)
                0x0000000000002d20                memp_init
 .text.memp_malloc
                0x0000000000002d70       0x20 F:\Desktop\ch32v307\Application\8_uarts_server\bare_metal\8_uart_server\ETH\User\libwchnet.a(memp.o)
                0x0000000000002d70                memp_malloc
 .text.memp_free
                0x0000000000002d90       0x18 F:\Desktop\ch32v307\Application\8_uarts_server\bare_metal\8_uart_server\ETH\User\libwchnet.a(memp.o)
                0x0000000000002d90                memp_free
 .text.netif_set_ipaddr
                0x0000000000002da8       0x96 F:\Desktop\ch32v307\Application\8_uarts_server\bare_metal\8_uart_server\ETH\User\libwchnet.a(netif.o)
                0x0000000000002da8                netif_set_ipaddr
 .text.netif_set_addr
                0x0000000000002e3e       0x4c F:\Desktop\ch32v307\Application\8_uarts_server\bare_metal\8_uart_server\ETH\User\libwchnet.a(netif.o)
                0x0000000000002e3e                netif_set_addr
 .text.netif_add
                0x0000000000002e8a       0x58 F:\Desktop\ch32v307\Application\8_uarts_server\bare_metal\8_uart_server\ETH\User\libwchnet.a(netif.o)
                0x0000000000002e8a                netif_add
 .text.netif_set_default
                0x0000000000002ee2        0x6 F:\Desktop\ch32v307\Application\8_uarts_server\bare_metal\8_uart_server\ETH\User\libwchnet.a(netif.o)
                0x0000000000002ee2                netif_set_default
 .text.netif_is_up
                0x0000000000002ee8        0x8 F:\Desktop\ch32v307\Application\8_uarts_server\bare_metal\8_uart_server\ETH\User\libwchnet.a(netif.o)
                0x0000000000002ee8                netif_is_up
 .text.pbuf_header
                0x0000000000002ef0       0x6e F:\Desktop\ch32v307\Application\8_uarts_server\bare_metal\8_uart_server\ETH\User\libwchnet.a(pbuf.o)
                0x0000000000002ef0                pbuf_header
 .text.pbuf_free
                0x0000000000002f5e       0x4e F:\Desktop\ch32v307\Application\8_uarts_server\bare_metal\8_uart_server\ETH\User\libwchnet.a(pbuf.o)
                0x0000000000002f5e                pbuf_free
 .text.pbuf_alloc
                0x0000000000002fac      0x13e F:\Desktop\ch32v307\Application\8_uarts_server\bare_metal\8_uart_server\ETH\User\libwchnet.a(pbuf.o)
                0x0000000000002fac                pbuf_alloc
 .text.pbuf_realloc
                0x00000000000030ea       0x58 F:\Desktop\ch32v307\Application\8_uarts_server\bare_metal\8_uart_server\ETH\User\libwchnet.a(pbuf.o)
                0x00000000000030ea                pbuf_realloc
 .text.pbuf_clen
                0x0000000000003142       0x12 F:\Desktop\ch32v307\Application\8_uarts_server\bare_metal\8_uart_server\ETH\User\libwchnet.a(pbuf.o)
                0x0000000000003142                pbuf_clen
 .text.pbuf_ref
                0x0000000000003154        0xa F:\Desktop\ch32v307\Application\8_uarts_server\bare_metal\8_uart_server\ETH\User\libwchnet.a(pbuf.o)
                0x0000000000003154                pbuf_ref
 .text.pbuf_cat
                0x000000000000315e       0x1c F:\Desktop\ch32v307\Application\8_uarts_server\bare_metal\8_uart_server\ETH\User\libwchnet.a(pbuf.o)
                0x000000000000315e                pbuf_cat
 .text.pbuf_chain
                0x000000000000317a       0x10 F:\Desktop\ch32v307\Application\8_uarts_server\bare_metal\8_uart_server\ETH\User\libwchnet.a(pbuf.o)
                0x000000000000317a                pbuf_chain
 .text.pbuf_copy
                0x000000000000318a       0x9c F:\Desktop\ch32v307\Application\8_uarts_server\bare_metal\8_uart_server\ETH\User\libwchnet.a(pbuf.o)
                0x000000000000318a                pbuf_copy
 .text.tcp_new_port
                0x0000000000003226       0x5c F:\Desktop\ch32v307\Application\8_uarts_server\bare_metal\8_uart_server\ETH\User\libwchnet.a(tcp.o)
 .text.tcp_bind
                0x0000000000003282      0x114 F:\Desktop\ch32v307\Application\8_uarts_server\bare_metal\8_uart_server\ETH\User\libwchnet.a(tcp.o)
                0x0000000000003282                tcp_bind
 .text.tcp_update_rcv_ann_wnd
                0x0000000000003396       0x44 F:\Desktop\ch32v307\Application\8_uarts_server\bare_metal\8_uart_server\ETH\User\libwchnet.a(tcp.o)
                0x0000000000003396                tcp_update_rcv_ann_wnd
 .text.tcp_recved
                0x00000000000033da       0x46 F:\Desktop\ch32v307\Application\8_uarts_server\bare_metal\8_uart_server\ETH\User\libwchnet.a(tcp.o)
                0x00000000000033da                tcp_recved
 .text.tcp_seg_free
                0x0000000000003420       0x2a F:\Desktop\ch32v307\Application\8_uarts_server\bare_metal\8_uart_server\ETH\User\libwchnet.a(tcp.o)
                0x0000000000003420                tcp_seg_free
 .text.tcp_segs_free
                0x000000000000344a       0x1c F:\Desktop\ch32v307\Application\8_uarts_server\bare_metal\8_uart_server\ETH\User\libwchnet.a(tcp.o)
                0x000000000000344a                tcp_segs_free
 .text.tcp_seg_copy
                0x0000000000003466       0x28 F:\Desktop\ch32v307\Application\8_uarts_server\bare_metal\8_uart_server\ETH\User\libwchnet.a(tcp.o)
                0x0000000000003466                tcp_seg_copy
 .text.tcp_arg  0x000000000000348e        0x4 F:\Desktop\ch32v307\Application\8_uarts_server\bare_metal\8_uart_server\ETH\User\libwchnet.a(tcp.o)
                0x000000000000348e                tcp_arg
 .text.tcp_recv
                0x0000000000003492        0x6 F:\Desktop\ch32v307\Application\8_uarts_server\bare_metal\8_uart_server\ETH\User\libwchnet.a(tcp.o)
                0x0000000000003492                tcp_recv
 .text.tcp_sent
                0x0000000000003498        0x6 F:\Desktop\ch32v307\Application\8_uarts_server\bare_metal\8_uart_server\ETH\User\libwchnet.a(tcp.o)
                0x0000000000003498                tcp_sent
 .text.tcp_err  0x000000000000349e        0x6 F:\Desktop\ch32v307\Application\8_uarts_server\bare_metal\8_uart_server\ETH\User\libwchnet.a(tcp.o)
                0x000000000000349e                tcp_err
 .text.tcp_poll
                0x00000000000034a4        0xa F:\Desktop\ch32v307\Application\8_uarts_server\bare_metal\8_uart_server\ETH\User\libwchnet.a(tcp.o)
                0x00000000000034a4                tcp_poll
 .text.tcp_pcb_purge
                0x00000000000034ae       0x4c F:\Desktop\ch32v307\Application\8_uarts_server\bare_metal\8_uart_server\ETH\User\libwchnet.a(tcp.o)
                0x00000000000034ae                tcp_pcb_purge
 .text.tcp_slowtmr
                0x00000000000034fa      0x274 F:\Desktop\ch32v307\Application\8_uarts_server\bare_metal\8_uart_server\ETH\User\libwchnet.a(tcp.o)
                0x00000000000034fa                tcp_slowtmr
 .text.RemoveTimeWaiTCP
                0x000000000000376e       0x32 F:\Desktop\ch32v307\Application\8_uarts_server\bare_metal\8_uart_server\ETH\User\libwchnet.a(tcp.o)
                0x000000000000376e                RemoveTimeWaiTCP
 .text.tcp_pcb_remove
                0x00000000000037a0       0x72 F:\Desktop\ch32v307\Application\8_uarts_server\bare_metal\8_uart_server\ETH\User\libwchnet.a(tcp.o)
                0x00000000000037a0                tcp_pcb_remove
 .text.tcp_close
                0x0000000000003812       0xb2 F:\Desktop\ch32v307\Application\8_uarts_server\bare_metal\8_uart_server\ETH\User\libwchnet.a(tcp.o)
                0x0000000000003812                tcp_close
 .text.tcp_recv_null
                0x00000000000038c4       0x30 F:\Desktop\ch32v307\Application\8_uarts_server\bare_metal\8_uart_server\ETH\User\libwchnet.a(tcp.o)
                0x00000000000038c4                tcp_recv_null
 .text.tcp_fasttmr
                0x00000000000038f4       0x62 F:\Desktop\ch32v307\Application\8_uarts_server\bare_metal\8_uart_server\ETH\User\libwchnet.a(tcp.o)
                0x00000000000038f4                tcp_fasttmr
 .text.tcp_tmr  0x0000000000003956       0x22 F:\Desktop\ch32v307\Application\8_uarts_server\bare_metal\8_uart_server\ETH\User\libwchnet.a(tcp.o)
                0x0000000000003956                tcp_tmr
 .text.tcp_abandon
                0x0000000000003978       0x98 F:\Desktop\ch32v307\Application\8_uarts_server\bare_metal\8_uart_server\ETH\User\libwchnet.a(tcp.o)
                0x0000000000003978                tcp_abandon
 .text.tcp_next_iss
                0x0000000000003a10       0x10 F:\Desktop\ch32v307\Application\8_uarts_server\bare_metal\8_uart_server\ETH\User\libwchnet.a(tcp.o)
                0x0000000000003a10                tcp_next_iss
 .text.tcp_alloc
                0x0000000000003a20      0x138 F:\Desktop\ch32v307\Application\8_uarts_server\bare_metal\8_uart_server\ETH\User\libwchnet.a(tcp.o)
                0x0000000000003a20                tcp_alloc
 .text.tcp_new  0x0000000000003b58       0x10 F:\Desktop\ch32v307\Application\8_uarts_server\bare_metal\8_uart_server\ETH\User\libwchnet.a(tcp.o)
                0x0000000000003b58                tcp_new
 .text.tcp_eff_send_mss
                0x0000000000003b68       0x2e F:\Desktop\ch32v307\Application\8_uarts_server\bare_metal\8_uart_server\ETH\User\libwchnet.a(tcp.o)
                0x0000000000003b68                tcp_eff_send_mss
 .text.tcp_connect
                0x0000000000003b96       0xe6 F:\Desktop\ch32v307\Application\8_uarts_server\bare_metal\8_uart_server\ETH\User\libwchnet.a(tcp.o)
                0x0000000000003b96                tcp_connect
 .text.tcp_output_set_header.isra.0.constprop.1
                0x0000000000003c7c       0xcc F:\Desktop\ch32v307\Application\8_uarts_server\bare_metal\8_uart_server\ETH\User\libwchnet.a(tcp_out.o)
 .text.tcp_enqueue
                0x0000000000003d48      0x440 F:\Desktop\ch32v307\Application\8_uarts_server\bare_metal\8_uart_server\ETH\User\libwchnet.a(tcp_out.o)
                0x0000000000003d48                tcp_enqueue
 .text.tcp_send_ctrl
                0x0000000000004188       0x16 F:\Desktop\ch32v307\Application\8_uarts_server\bare_metal\8_uart_server\ETH\User\libwchnet.a(tcp_out.o)
                0x0000000000004188                tcp_send_ctrl
 .text.tcp_write
                0x000000000000419e       0x30 F:\Desktop\ch32v307\Application\8_uarts_server\bare_metal\8_uart_server\ETH\User\libwchnet.a(tcp_out.o)
                0x000000000000419e                tcp_write
 .text.tcp_send_empty_ack
                0x00000000000041ce       0x6c F:\Desktop\ch32v307\Application\8_uarts_server\bare_metal\8_uart_server\ETH\User\libwchnet.a(tcp_out.o)
                0x00000000000041ce                tcp_send_empty_ack
 .text.tcp_output
                0x000000000000423a      0x35a F:\Desktop\ch32v307\Application\8_uarts_server\bare_metal\8_uart_server\ETH\User\libwchnet.a(tcp_out.o)
                0x000000000000423a                tcp_output
 .text.tcp_rst  0x0000000000004594      0x108 F:\Desktop\ch32v307\Application\8_uarts_server\bare_metal\8_uart_server\ETH\User\libwchnet.a(tcp_out.o)
                0x0000000000004594                tcp_rst
 .text.tcp_rexmit_rto
                0x000000000000469c       0x34 F:\Desktop\ch32v307\Application\8_uarts_server\bare_metal\8_uart_server\ETH\User\libwchnet.a(tcp_out.o)
                0x000000000000469c                tcp_rexmit_rto
 .text.tcp_rexmit
                0x00000000000046d0       0x78 F:\Desktop\ch32v307\Application\8_uarts_server\bare_metal\8_uart_server\ETH\User\libwchnet.a(tcp_out.o)
                0x00000000000046d0                tcp_rexmit
 .text.tcp_rexmit_fast
                0x0000000000004748       0x5e F:\Desktop\ch32v307\Application\8_uarts_server\bare_metal\8_uart_server\ETH\User\libwchnet.a(tcp_out.o)
                0x0000000000004748                tcp_rexmit_fast
 .text.tcp_keepalive
                0x00000000000047a6       0x5e F:\Desktop\ch32v307\Application\8_uarts_server\bare_metal\8_uart_server\ETH\User\libwchnet.a(tcp_out.o)
                0x00000000000047a6                tcp_keepalive
 .text.tcp_zero_window_probe
                0x0000000000004804       0xd0 F:\Desktop\ch32v307\Application\8_uarts_server\bare_metal\8_uart_server\ETH\User\libwchnet.a(tcp_out.o)
                0x0000000000004804                tcp_zero_window_probe
 .text.WCH_GetMac
                0x00000000000048d4       0x20 F:\Desktop\ch32v307\Application\8_uarts_server\bare_metal\8_uart_server\ETH\User\libwchnet.a(eth_driver.o)
                0x00000000000048d4                WCH_GetMac
 .text.ETH_RxPkt_Handle
                0x00000000000048f4       0xe4 F:\Desktop\ch32v307\Application\8_uarts_server\bare_metal\8_uart_server\ETH\User\libwchnet.a(eth_driver.o)
                0x00000000000048f4                ETH_RxPkt_Handle
 .text.ETH_TxPkt_ChainMode
                0x00000000000049d8       0x38 F:\Desktop\ch32v307\Application\8_uarts_server\bare_metal\8_uart_server\ETH\User\libwchnet.a(eth_driver.o)
                0x00000000000049d8                ETH_TxPkt_ChainMode
 .text.mac_send
                0x0000000000004a10       0x32 F:\Desktop\ch32v307\Application\8_uarts_server\bare_metal\8_uart_server\ETH\User\libwchnet.a(eth_driver.o)
                0x0000000000004a10                mac_send
 .text.ETH_Init
                0x0000000000004a42      0x166 F:\Desktop\ch32v307\Application\8_uarts_server\bare_metal\8_uart_server\ETH\User\libwchnet.a(eth_driver.o)
                0x0000000000004a42                ETH_Init
 .text.Ethernet_LED_Configuration
                0x0000000000004ba8       0x4e F:\Desktop\ch32v307\Application\8_uarts_server\bare_metal\8_uart_server\ETH\User\libwchnet.a(eth_driver.o)
                0x0000000000004ba8                Ethernet_LED_Configuration
 .text.Ethernet_LED_LINKSET
                0x0000000000004bf6       0x28 F:\Desktop\ch32v307\Application\8_uarts_server\bare_metal\8_uart_server\ETH\User\libwchnet.a(eth_driver.o)
                0x0000000000004bf6                Ethernet_LED_LINKSET
 .text.Ethernet_LED_DATASET
                0x0000000000004c1e       0x28 F:\Desktop\ch32v307\Application\8_uarts_server\bare_metal\8_uart_server\ETH\User\libwchnet.a(eth_driver.o)
                0x0000000000004c1e                Ethernet_LED_DATASET
 .text.Ethernet_Configuration
                0x0000000000004c46       0xb0 F:\Desktop\ch32v307\Application\8_uarts_server\bare_metal\8_uart_server\ETH\User\libwchnet.a(eth_driver.o)
                0x0000000000004c46                Ethernet_Configuration
 .text.IPCheckParaInit
                0x0000000000004cf6       0x1e F:\Desktop\ch32v307\Application\8_uarts_server\bare_metal\8_uart_server\ETH\User\libwchnet.a(ipcheck.o)
                0x0000000000004cf6                IPCheckParaInit
 .text.SelIPARPSend
                0x0000000000004d14       0x38 F:\Desktop\ch32v307\Application\8_uarts_server\bare_metal\8_uart_server\ETH\User\libwchnet.a(ipcheck.o)
                0x0000000000004d14                SelIPARPSend
 .text.IPCheckTmr
                0x0000000000004d4c       0x42 F:\Desktop\ch32v307\Application\8_uarts_server\bare_metal\8_uart_server\ETH\User\libwchnet.a(ipcheck.o)
                0x0000000000004d4c                IPCheckTmr
 .text.ArpCheck
                0x0000000000004d8e       0x24 F:\Desktop\ch32v307\Application\8_uarts_server\bare_metal\8_uart_server\ETH\User\libwchnet.a(ipcheck.o)
                0x0000000000004d8e                ArpCheck
 .text.IPConflictHandle
                0x0000000000004db2       0x2e F:\Desktop\ch32v307\Application\8_uarts_server\bare_metal\8_uart_server\ETH\User\libwchnet.a(ipcheck.o)
                0x0000000000004db2                IPConflictHandle
 .text.CH563TCPError
                0x0000000000004de0        0x2 F:\Desktop\ch32v307\Application\8_uarts_server\bare_metal\8_uart_server\ETH\User\libwchnet.a(socket.o)
                0x0000000000004de0                CH563TCPError
 .text.LwipTCPSendCallBack
                0x0000000000004de2       0x3c F:\Desktop\ch32v307\Application\8_uarts_server\bare_metal\8_uart_server\ETH\User\libwchnet.a(socket.o)
                0x0000000000004de2                LwipTCPSendCallBack
 .text.LwipTCPPollCallBack
                0x0000000000004e1e        0x4 F:\Desktop\ch32v307\Application\8_uarts_server\bare_metal\8_uart_server\ETH\User\libwchnet.a(socket.o)
                0x0000000000004e1e                LwipTCPPollCallBack
 .text.SocketIPRAWReceive
                0x0000000000004e22       0xc2 F:\Desktop\ch32v307\Application\8_uarts_server\bare_metal\8_uart_server\ETH\User\libwchnet.a(socket.o)
                0x0000000000004e22                SocketIPRAWReceive
 .text.SocketUdpReceive
                0x0000000000004ee4       0xfc F:\Desktop\ch32v307\Application\8_uarts_server\bare_metal\8_uart_server\ETH\User\libwchnet.a(socket.o)
                0x0000000000004ee4                SocketUdpReceive
 .text.WCHSocketTCPReceive
                0x0000000000004fe0      0x13e F:\Desktop\ch32v307\Application\8_uarts_server\bare_metal\8_uart_server\ETH\User\libwchnet.a(socket.o)
                0x0000000000004fe0                WCHSocketTCPReceive
 .text.LwipTcpConnectedCallBack
                0x000000000000511e       0x42 F:\Desktop\ch32v307\Application\8_uarts_server\bare_metal\8_uart_server\ETH\User\libwchnet.a(socket.o)
                0x000000000000511e                LwipTcpConnectedCallBack
 .text.ErrorEncode
                0x0000000000005160       0x1a F:\Desktop\ch32v307\Application\8_uarts_server\bare_metal\8_uart_server\ETH\User\libwchnet.a(socket.o)
                0x0000000000005160                ErrorEncode
 .text.MemShortCopy
                0x000000000000517a       0x1e F:\Desktop\ch32v307\Application\8_uarts_server\bare_metal\8_uart_server\ETH\User\libwchnet.a(socket.o)
                0x000000000000517a                MemShortCopy
 .text.WCHSocketInit
                0x0000000000005198       0x4c F:\Desktop\ch32v307\Application\8_uarts_server\bare_metal\8_uart_server\ETH\User\libwchnet.a(socket.o)
                0x0000000000005198                WCHSocketInit
 .text.WCHNET_Init
                0x00000000000051e4       0xfc F:\Desktop\ch32v307\Application\8_uarts_server\bare_metal\8_uart_server\ETH\User\libwchnet.a(socket.o)
                0x00000000000051e4                WCHNET_Init
 .text.WCHNET_ConfigLIB
                0x00000000000052e0       0x20 F:\Desktop\ch32v307\Application\8_uarts_server\bare_metal\8_uart_server\ETH\User\libwchnet.a(socket.o)
                0x00000000000052e0                WCHNET_ConfigLIB
 .text.PhyDataLed_fun
                0x0000000000005300       0x40 F:\Desktop\ch32v307\Application\8_uarts_server\bare_metal\8_uart_server\ETH\User\libwchnet.a(socket.o)
                0x0000000000005300                PhyDataLed_fun
 .text.WCHNET_ETHIsr
                0x0000000000005340       0xb0 F:\Desktop\ch32v307\Application\8_uarts_server\bare_metal\8_uart_server\ETH\User\libwchnet.a(socket.o)
                0x0000000000005340                WCHNET_ETHIsr
 .text.WCHNET_TimeIsr
                0x00000000000053f0        0xc F:\Desktop\ch32v307\Application\8_uarts_server\bare_metal\8_uart_server\ETH\User\libwchnet.a(socket.o)
                0x00000000000053f0                WCHNET_TimeIsr
 .text.WCHFindCorrectTCBPcb
                0x00000000000053fc       0x5c F:\Desktop\ch32v307\Application\8_uarts_server\bare_metal\8_uart_server\ETH\User\libwchnet.a(socket.o)
                0x00000000000053fc                WCHFindCorrectTCBPcb
 .text.WCHNET_SocketCreat
                0x0000000000005458      0x1ce F:\Desktop\ch32v307\Application\8_uarts_server\bare_metal\8_uart_server\ETH\User\libwchnet.a(socket.o)
                0x0000000000005458                WCHNET_SocketCreat
 .text.tcp_recved_socket
                0x0000000000005626       0x28 F:\Desktop\ch32v307\Application\8_uarts_server\bare_metal\8_uart_server\ETH\User\libwchnet.a(socket.o)
                0x0000000000005626                tcp_recved_socket
 .text.WCHNET_SocketRecv
                0x000000000000564e      0x1d4 F:\Desktop\ch32v307\Application\8_uarts_server\bare_metal\8_uart_server\ETH\User\libwchnet.a(socket.o)
                0x000000000000564e                WCHNET_SocketRecv
 .text.WCHNET_SocketRecvLen
                0x0000000000005822       0x26 F:\Desktop\ch32v307\Application\8_uarts_server\bare_metal\8_uart_server\ETH\User\libwchnet.a(socket.o)
                0x0000000000005822                WCHNET_SocketRecvLen
 .text.SocketIPRawSend
                0x0000000000005848       0xec F:\Desktop\ch32v307\Application\8_uarts_server\bare_metal\8_uart_server\ETH\User\libwchnet.a(socket.o)
                0x0000000000005848                SocketIPRawSend
 .text.SocketUdpSend
                0x0000000000005934       0xd0 F:\Desktop\ch32v307\Application\8_uarts_server\bare_metal\8_uart_server\ETH\User\libwchnet.a(socket.o)
                0x0000000000005934                SocketUdpSend
 .text.WCHScokedIntHandle
                0x0000000000005a04       0x62 F:\Desktop\ch32v307\Application\8_uarts_server\bare_metal\8_uart_server\ETH\User\libwchnet.a(socket.o)
                0x0000000000005a04                WCHScokedIntHandle
 .text.LwipRemoveTcpPcb
                0x0000000000005a66       0xa4 F:\Desktop\ch32v307\Application\8_uarts_server\bare_metal\8_uart_server\ETH\User\libwchnet.a(socket.o)
                0x0000000000005a66                LwipRemoveTcpPcb
 .text.WCHNET_QueryGlobalInt
                0x0000000000005b0a       0x34 F:\Desktop\ch32v307\Application\8_uarts_server\bare_metal\8_uart_server\ETH\User\libwchnet.a(socket.o)
                0x0000000000005b0a                WCHNET_QueryGlobalInt
 .text.WCHNET_GetGlobalInt
                0x0000000000005b3e       0x14 F:\Desktop\ch32v307\Application\8_uarts_server\bare_metal\8_uart_server\ETH\User\libwchnet.a(socket.o)
                0x0000000000005b3e                WCHNET_GetGlobalInt
 .text.WCHNET_GetSocketInt
                0x0000000000005b52       0x24 F:\Desktop\ch32v307\Application\8_uarts_server\bare_metal\8_uart_server\ETH\User\libwchnet.a(socket.o)
                0x0000000000005b52                WCHNET_GetSocketInt
 .text.CH563IPSetSocketRecvInit
                0x0000000000005b76       0x2a F:\Desktop\ch32v307\Application\8_uarts_server\bare_metal\8_uart_server\ETH\User\libwchnet.a(socket.o)
                0x0000000000005b76                CH563IPSetSocketRecvInit
 .text.WCHNET_MainTask
                0x0000000000005ba0       0x32 F:\Desktop\ch32v307\Application\8_uarts_server\bare_metal\8_uart_server\ETH\User\libwchnet.a(socket.o)
                0x0000000000005ba0                WCHNET_MainTask
 .text.SocketTcpSend
                0x0000000000005bd2      0x11a F:\Desktop\ch32v307\Application\8_uarts_server\bare_metal\8_uart_server\ETH\User\libwchnet.a(socket.o)
                0x0000000000005bd2                SocketTcpSend
 .text.WCHNET_SocketSend
                0x0000000000005cec       0x56 F:\Desktop\ch32v307\Application\8_uarts_server\bare_metal\8_uart_server\ETH\User\libwchnet.a(socket.o)
                0x0000000000005cec                WCHNET_SocketSend
 .text.WCHNET_GetPHYStatus
                0x0000000000005d42        0xa F:\Desktop\ch32v307\Application\8_uarts_server\bare_metal\8_uart_server\ETH\User\libwchnet.a(socket.o)
                0x0000000000005d42                WCHNET_GetPHYStatus
 .text.WCHNET_SocketConnect
                0x0000000000005d4c       0x6c F:\Desktop\ch32v307\Application\8_uarts_server\bare_metal\8_uart_server\ETH\User\libwchnet.a(socket.o)
                0x0000000000005d4c                WCHNET_SocketConnect
 .text.QueryPingEnable
                0x0000000000005db8        0x4 F:\Desktop\ch32v307\Application\8_uarts_server\bare_metal\8_uart_server\ETH\User\libwchnet.a(socket.o)
                0x0000000000005db8                QueryPingEnable
 .text.LwipUnreachPort
                0x0000000000005dbc       0x1a F:\Desktop\ch32v307\Application\8_uarts_server\bare_metal\8_uart_server\ETH\User\libwchnet.a(socket.o)
                0x0000000000005dbc                LwipUnreachPort
 .text.LwipArpCheck
                0x0000000000005dd6        0xc F:\Desktop\ch32v307\Application\8_uarts_server\bare_metal\8_uart_server\ETH\User\libwchnet.a(socket.o)
                0x0000000000005dd6                LwipArpCheck
 .text.find_entry
                0x0000000000005de2      0x17e F:\Desktop\ch32v307\Application\8_uarts_server\bare_metal\8_uart_server\ETH\User\libwchnet.a(etharp.o)
 .text.update_arp_entry
                0x0000000000005f60       0xae F:\Desktop\ch32v307\Application\8_uarts_server\bare_metal\8_uart_server\ETH\User\libwchnet.a(etharp.o)
 .text.etharp_tmr
                0x000000000000600e       0x4e F:\Desktop\ch32v307\Application\8_uarts_server\bare_metal\8_uart_server\ETH\User\libwchnet.a(etharp.o)
                0x000000000000600e                etharp_tmr
 .text.etharp_ip_input
                0x000000000000605c       0x38 F:\Desktop\ch32v307\Application\8_uarts_server\bare_metal\8_uart_server\ETH\User\libwchnet.a(etharp.o)
                0x000000000000605c                etharp_ip_input
 .text.etharp_arp_input
                0x0000000000006094      0x162 F:\Desktop\ch32v307\Application\8_uarts_server\bare_metal\8_uart_server\ETH\User\libwchnet.a(etharp.o)
                0x0000000000006094                etharp_arp_input
 .text.etharp_request
                0x00000000000061f6       0xd8 F:\Desktop\ch32v307\Application\8_uarts_server\bare_metal\8_uart_server\ETH\User\libwchnet.a(etharp.o)
                0x00000000000061f6                etharp_request
 .text.etharp_query
                0x00000000000062ce       0xe4 F:\Desktop\ch32v307\Application\8_uarts_server\bare_metal\8_uart_server\ETH\User\libwchnet.a(etharp.o)
                0x00000000000062ce                etharp_query
 .text.etharp_output
                0x00000000000063b2      0x148 F:\Desktop\ch32v307\Application\8_uarts_server\bare_metal\8_uart_server\ETH\User\libwchnet.a(etharp.o)
                0x00000000000063b2                etharp_output
 .text.ethernet_input
                0x00000000000064fa       0x5a F:\Desktop\ch32v307\Application\8_uarts_server\bare_metal\8_uart_server\ETH\User\libwchnet.a(etharp.o)
                0x00000000000064fa                ethernet_input
 .text.icmp_send_response.isra.0
                0x0000000000006554       0x76 F:\Desktop\ch32v307\Application\8_uarts_server\bare_metal\8_uart_server\ETH\User\libwchnet.a(icmp.o)
 .text.icmp_input
                0x00000000000065ca      0x24e F:\Desktop\ch32v307\Application\8_uarts_server\bare_metal\8_uart_server\ETH\User\libwchnet.a(icmp.o)
                0x00000000000065ca                icmp_input
 .text.icmp_dest_unreach
                0x0000000000006818       0x14 F:\Desktop\ch32v307\Application\8_uarts_server\bare_metal\8_uart_server\ETH\User\libwchnet.a(icmp.o)
                0x0000000000006818                icmp_dest_unreach
 .text.icmp_time_exceeded
                0x000000000000682c       0x14 F:\Desktop\ch32v307\Application\8_uarts_server\bare_metal\8_uart_server\ETH\User\libwchnet.a(icmp.o)
                0x000000000000682c                icmp_time_exceeded
 .text.lwip_standard_chksum
                0x0000000000006840       0x7e F:\Desktop\ch32v307\Application\8_uarts_server\bare_metal\8_uart_server\ETH\User\libwchnet.a(inet_chksum.o)
 .text.inet_chksum_pseudo
                0x00000000000068be       0xf8 F:\Desktop\ch32v307\Application\8_uarts_server\bare_metal\8_uart_server\ETH\User\libwchnet.a(inet_chksum.o)
                0x00000000000068be                inet_chksum_pseudo
 .text.inet_chksum
                0x00000000000069b6       0x14 F:\Desktop\ch32v307\Application\8_uarts_server\bare_metal\8_uart_server\ETH\User\libwchnet.a(inet_chksum.o)
                0x00000000000069b6                inet_chksum
 .text.inet_chksum_pbuf
                0x00000000000069ca       0x6a F:\Desktop\ch32v307\Application\8_uarts_server\bare_metal\8_uart_server\ETH\User\libwchnet.a(inet_chksum.o)
                0x00000000000069ca                inet_chksum_pbuf
 .text.ip_route
                0x0000000000006a34       0x4c F:\Desktop\ch32v307\Application\8_uarts_server\bare_metal\8_uart_server\ETH\User\libwchnet.a(ip.o)
                0x0000000000006a34                ip_route
 .text.ip_input
                0x0000000000006a80      0x2b8 F:\Desktop\ch32v307\Application\8_uarts_server\bare_metal\8_uart_server\ETH\User\libwchnet.a(ip.o)
                0x0000000000006a80                ip_input
 .text.ip_output_if
                0x0000000000006d38      0x15c F:\Desktop\ch32v307\Application\8_uarts_server\bare_metal\8_uart_server\ETH\User\libwchnet.a(ip.o)
                0x0000000000006d38                ip_output_if
 .text.ip_output
                0x0000000000006e94       0x36 F:\Desktop\ch32v307\Application\8_uarts_server\bare_metal\8_uart_server\ETH\User\libwchnet.a(ip.o)
                0x0000000000006e94                ip_output
 .text.ip_addr_isbroadcast
                0x0000000000006eca       0x4a F:\Desktop\ch32v307\Application\8_uarts_server\bare_metal\8_uart_server\ETH\User\libwchnet.a(ip_addr.o)
                0x0000000000006eca                ip_addr_isbroadcast
 .text.raw_input
                0x0000000000006f14       0x68 F:\Desktop\ch32v307\Application\8_uarts_server\bare_metal\8_uart_server\ETH\User\libwchnet.a(raw.o)
                0x0000000000006f14                raw_input
 .text.raw_bind
                0x0000000000006f7c       0x1e F:\Desktop\ch32v307\Application\8_uarts_server\bare_metal\8_uart_server\ETH\User\libwchnet.a(raw.o)
                0x0000000000006f7c                raw_bind
 .text.raw_connect
                0x0000000000006f9a       0x1e F:\Desktop\ch32v307\Application\8_uarts_server\bare_metal\8_uart_server\ETH\User\libwchnet.a(raw.o)
                0x0000000000006f9a                raw_connect
 .text.raw_recv
                0x0000000000006fb8        0x6 F:\Desktop\ch32v307\Application\8_uarts_server\bare_metal\8_uart_server\ETH\User\libwchnet.a(raw.o)
                0x0000000000006fb8                raw_recv
 .text.raw_sendto
                0x0000000000006fbe       0x7e F:\Desktop\ch32v307\Application\8_uarts_server\bare_metal\8_uart_server\ETH\User\libwchnet.a(raw.o)
                0x0000000000006fbe                raw_sendto
 .text.raw_send
                0x000000000000703c       0x10 F:\Desktop\ch32v307\Application\8_uarts_server\bare_metal\8_uart_server\ETH\User\libwchnet.a(raw.o)
                0x000000000000703c                raw_send
 .text.raw_new  0x000000000000704c       0x30 F:\Desktop\ch32v307\Application\8_uarts_server\bare_metal\8_uart_server\ETH\User\libwchnet.a(raw.o)
                0x000000000000704c                raw_new
 .text.tcp_oos_insert_segment
                0x000000000000707c       0xce F:\Desktop\ch32v307\Application\8_uarts_server\bare_metal\8_uart_server\ETH\User\libwchnet.a(tcp_in.o)
 .text.tcp_receive
                0x000000000000714a      0x8e4 F:\Desktop\ch32v307\Application\8_uarts_server\bare_metal\8_uart_server\ETH\User\libwchnet.a(tcp_in.o)
 .text.tcp_parseopt.isra.0
                0x0000000000007a2e       0xa6 F:\Desktop\ch32v307\Application\8_uarts_server\bare_metal\8_uart_server\ETH\User\libwchnet.a(tcp_in.o)
 .text.tcp_input
                0x0000000000007ad4      0x9ba F:\Desktop\ch32v307\Application\8_uarts_server\bare_metal\8_uart_server\ETH\User\libwchnet.a(tcp_in.o)
                0x0000000000007ad4                tcp_input
 .text.udp_input
                0x000000000000848e      0x23a F:\Desktop\ch32v307\Application\8_uarts_server\bare_metal\8_uart_server\ETH\User\libwchnet.a(udp.o)
                0x000000000000848e                udp_input
 .text.udp_bind
                0x00000000000086c8       0x9a F:\Desktop\ch32v307\Application\8_uarts_server\bare_metal\8_uart_server\ETH\User\libwchnet.a(udp.o)
                0x00000000000086c8                udp_bind
 .text.udp_sendto_if
                0x0000000000008762       0xd8 F:\Desktop\ch32v307\Application\8_uarts_server\bare_metal\8_uart_server\ETH\User\libwchnet.a(udp.o)
                0x0000000000008762                udp_sendto_if
 .text.udp_sendto
                0x000000000000883a       0x2e F:\Desktop\ch32v307\Application\8_uarts_server\bare_metal\8_uart_server\ETH\User\libwchnet.a(udp.o)
                0x000000000000883a                udp_sendto
 .text.udp_send
                0x0000000000008868       0x12 F:\Desktop\ch32v307\Application\8_uarts_server\bare_metal\8_uart_server\ETH\User\libwchnet.a(udp.o)
                0x0000000000008868                udp_send
 .text.udp_connect
                0x000000000000887a       0x7e F:\Desktop\ch32v307\Application\8_uarts_server\bare_metal\8_uart_server\ETH\User\libwchnet.a(udp.o)
                0x000000000000887a                udp_connect
 .text.udp_recv
                0x00000000000088f8        0x6 F:\Desktop\ch32v307\Application\8_uarts_server\bare_metal\8_uart_server\ETH\User\libwchnet.a(udp.o)
                0x00000000000088f8                udp_recv
 .text.udp_new  0x00000000000088fe       0x24 F:\Desktop\ch32v307\Application\8_uarts_server\bare_metal\8_uart_server\ETH\User\libwchnet.a(udp.o)
                0x00000000000088fe                udp_new
 .text.dhcp_set_state
                0x0000000000008922        0xe F:\Desktop\ch32v307\Application\8_uarts_server\bare_metal\8_uart_server\ETH\User\libwchnet.a(wchnet_dhcp.o)
 .text.dhcp_option
                0x0000000000008930       0x20 F:\Desktop\ch32v307\Application\8_uarts_server\bare_metal\8_uart_server\ETH\User\libwchnet.a(wchnet_dhcp.o)
 .text.dhcp_option_byte
                0x0000000000008950       0x12 F:\Desktop\ch32v307\Application\8_uarts_server\bare_metal\8_uart_server\ETH\User\libwchnet.a(wchnet_dhcp.o)
 .text.dhcp_option_long
                0x0000000000008962       0x48 F:\Desktop\ch32v307\Application\8_uarts_server\bare_metal\8_uart_server\ETH\User\libwchnet.a(wchnet_dhcp.o)
 .text.dhcp_option_trailer
                0x00000000000089aa       0x34 F:\Desktop\ch32v307\Application\8_uarts_server\bare_metal\8_uart_server\ETH\User\libwchnet.a(wchnet_dhcp.o)
 .text.dhcp_create_request
                0x00000000000089de      0x17e F:\Desktop\ch32v307\Application\8_uarts_server\bare_metal\8_uart_server\ETH\User\libwchnet.a(wchnet_dhcp.o)
 .text.dhcp_delete_request
                0x0000000000008b5c       0x20 F:\Desktop\ch32v307\Application\8_uarts_server\bare_metal\8_uart_server\ETH\User\libwchnet.a(wchnet_dhcp.o)
 .text.dhcp_arp_reply
                0x0000000000008b7c      0x184 F:\Desktop\ch32v307\Application\8_uarts_server\bare_metal\8_uart_server\ETH\User\libwchnet.a(wchnet_dhcp.o)
                0x0000000000008b7c                dhcp_arp_reply
 .text.memcpy   0x0000000000008d00       0xb6 d:/mounriver/mounriver_studio/toolchain/risc-v embedded gcc/bin/../lib/gcc/riscv-none-embed/8.2.0/../../../../riscv-none-embed/lib\libc_nano.a(lib_a-memcpy.o)
                0x0000000000008d00                memcpy
 .text.printf   0x0000000000008db6       0x40 d:/mounriver/mounriver_studio/toolchain/risc-v embedded gcc/bin/../lib/gcc/riscv-none-embed/8.2.0/../../../../riscv-none-embed/lib\libc_nano.a(lib_a-printf.o)
                0x0000000000008db6                iprintf
                0x0000000000008db6                printf
 .text._puts_r  0x0000000000008df6       0xda d:/mounriver/mounriver_studio/toolchain/risc-v embedded gcc/bin/../lib/gcc/riscv-none-embed/8.2.0/../../../../riscv-none-embed/lib\libc_nano.a(lib_a-puts.o)
                0x0000000000008df6                _puts_r
 .text.puts     0x0000000000008ed0        0xc d:/mounriver/mounriver_studio/toolchain/risc-v embedded gcc/bin/../lib/gcc/riscv-none-embed/8.2.0/../../../../riscv-none-embed/lib\libc_nano.a(lib_a-puts.o)
                0x0000000000008ed0                puts
 .text.strcpy   0x0000000000008edc       0x12 d:/mounriver/mounriver_studio/toolchain/risc-v embedded gcc/bin/../lib/gcc/riscv-none-embed/8.2.0/../../../../riscv-none-embed/lib\libc_nano.a(lib_a-strcpy.o)
                0x0000000000008edc                strcpy
 .text.__swbuf_r
                0x0000000000008eee       0xc0 d:/mounriver/mounriver_studio/toolchain/risc-v embedded gcc/bin/../lib/gcc/riscv-none-embed/8.2.0/../../../../riscv-none-embed/lib\libc_nano.a(lib_a-wbuf.o)
                0x0000000000008eee                __swbuf_r
 .text.__swsetup_r
                0x0000000000008fae      0x10c d:/mounriver/mounriver_studio/toolchain/risc-v embedded gcc/bin/../lib/gcc/riscv-none-embed/8.2.0/../../../../riscv-none-embed/lib\libc_nano.a(lib_a-wsetup.o)
                0x0000000000008fae                __swsetup_r
 .text.__sflush_r
                0x00000000000090ba      0x13c d:/mounriver/mounriver_studio/toolchain/risc-v embedded gcc/bin/../lib/gcc/riscv-none-embed/8.2.0/../../../../riscv-none-embed/lib\libc_nano.a(lib_a-fflush.o)
                0x00000000000090ba                __sflush_r
 .text._fflush_r
                0x00000000000091f6       0x66 d:/mounriver/mounriver_studio/toolchain/risc-v embedded gcc/bin/../lib/gcc/riscv-none-embed/8.2.0/../../../../riscv-none-embed/lib\libc_nano.a(lib_a-fflush.o)
                0x00000000000091f6                _fflush_r
 .text.std      0x000000000000925c       0x6a d:/mounriver/mounriver_studio/toolchain/risc-v embedded gcc/bin/../lib/gcc/riscv-none-embed/8.2.0/../../../../riscv-none-embed/lib\libc_nano.a(lib_a-findfp.o)
 .text._cleanup_r
                0x00000000000092c6        0xa d:/mounriver/mounriver_studio/toolchain/risc-v embedded gcc/bin/../lib/gcc/riscv-none-embed/8.2.0/../../../../riscv-none-embed/lib\libc_nano.a(lib_a-findfp.o)
                0x00000000000092c6                _cleanup_r
 .text.__sfmoreglue
                0x00000000000092d0       0x46 d:/mounriver/mounriver_studio/toolchain/risc-v embedded gcc/bin/../lib/gcc/riscv-none-embed/8.2.0/../../../../riscv-none-embed/lib\libc_nano.a(lib_a-findfp.o)
                0x00000000000092d0                __sfmoreglue
 .text.__sinit  0x0000000000009316       0x6c d:/mounriver/mounriver_studio/toolchain/risc-v embedded gcc/bin/../lib/gcc/riscv-none-embed/8.2.0/../../../../riscv-none-embed/lib\libc_nano.a(lib_a-findfp.o)
                0x0000000000009316                __sinit
 .text.__sfp    0x0000000000009382       0xa0 d:/mounriver/mounriver_studio/toolchain/risc-v embedded gcc/bin/../lib/gcc/riscv-none-embed/8.2.0/../../../../riscv-none-embed/lib\libc_nano.a(lib_a-findfp.o)
                0x0000000000009382                __sfp
 .text._fwalk_reent
                0x0000000000009422       0x6c d:/mounriver/mounriver_studio/toolchain/risc-v embedded gcc/bin/../lib/gcc/riscv-none-embed/8.2.0/../../../../riscv-none-embed/lib\libc_nano.a(lib_a-fwalk.o)
                0x0000000000009422                _fwalk_reent
 .text.__swhatbuf_r
                0x000000000000948e       0x5a d:/mounriver/mounriver_studio/toolchain/risc-v embedded gcc/bin/../lib/gcc/riscv-none-embed/8.2.0/../../../../riscv-none-embed/lib\libc_nano.a(lib_a-makebuf.o)
                0x000000000000948e                __swhatbuf_r
 .text.__smakebuf_r
                0x00000000000094e8       0xa0 d:/mounriver/mounriver_studio/toolchain/risc-v embedded gcc/bin/../lib/gcc/riscv-none-embed/8.2.0/../../../../riscv-none-embed/lib\libc_nano.a(lib_a-makebuf.o)
                0x00000000000094e8                __smakebuf_r
 .text._free_r  0x0000000000009588       0xa8 d:/mounriver/mounriver_studio/toolchain/risc-v embedded gcc/bin/../lib/gcc/riscv-none-embed/8.2.0/../../../../riscv-none-embed/lib\libc_nano.a(lib_a-nano-freer.o)
                0x0000000000009588                _free_r
 .text._malloc_r
                0x0000000000009630       0xd4 d:/mounriver/mounriver_studio/toolchain/risc-v embedded gcc/bin/../lib/gcc/riscv-none-embed/8.2.0/../../../../riscv-none-embed/lib\libc_nano.a(lib_a-nano-mallocr.o)
                0x0000000000009630                _malloc_r
 .text.__sfputc_r
                0x0000000000009704       0x2a d:/mounriver/mounriver_studio/toolchain/risc-v embedded gcc/bin/../lib/gcc/riscv-none-embed/8.2.0/../../../../riscv-none-embed/lib\libc_nano.a(lib_a-nano-vfprintf.o)
 .text.__sfputs_r
                0x000000000000972e       0x44 d:/mounriver/mounriver_studio/toolchain/risc-v embedded gcc/bin/../lib/gcc/riscv-none-embed/8.2.0/../../../../riscv-none-embed/lib\libc_nano.a(lib_a-nano-vfprintf.o)
                0x000000000000972e                __sfputs_r
 .text._vfprintf_r
                0x0000000000009772      0x29c d:/mounriver/mounriver_studio/toolchain/risc-v embedded gcc/bin/../lib/gcc/riscv-none-embed/8.2.0/../../../../riscv-none-embed/lib\libc_nano.a(lib_a-nano-vfprintf.o)
                0x0000000000009772                _vfprintf_r
                0x0000000000009772                _vfiprintf_r
 .text._printf_common
                0x0000000000009a0e      0x10c d:/mounriver/mounriver_studio/toolchain/risc-v embedded gcc/bin/../lib/gcc/riscv-none-embed/8.2.0/../../../../riscv-none-embed/lib\libc_nano.a(lib_a-nano-vfprintf_i.o)
                0x0000000000009a0e                _printf_common
 .text._printf_i
                0x0000000000009b1a      0x2a4 d:/mounriver/mounriver_studio/toolchain/risc-v embedded gcc/bin/../lib/gcc/riscv-none-embed/8.2.0/../../../../riscv-none-embed/lib\libc_nano.a(lib_a-nano-vfprintf_i.o)
                0x0000000000009b1a                _printf_i
 .text._sbrk_r  0x0000000000009dbe       0x30 d:/mounriver/mounriver_studio/toolchain/risc-v embedded gcc/bin/../lib/gcc/riscv-none-embed/8.2.0/../../../../riscv-none-embed/lib\libc_nano.a(lib_a-sbrkr.o)
                0x0000000000009dbe                _sbrk_r
 .text.__sread  0x0000000000009dee       0x30 d:/mounriver/mounriver_studio/toolchain/risc-v embedded gcc/bin/../lib/gcc/riscv-none-embed/8.2.0/../../../../riscv-none-embed/lib\libc_nano.a(lib_a-stdio.o)
                0x0000000000009dee                __sread
 .text.__swrite
                0x0000000000009e1e       0x4e d:/mounriver/mounriver_studio/toolchain/risc-v embedded gcc/bin/../lib/gcc/riscv-none-embed/8.2.0/../../../../riscv-none-embed/lib\libc_nano.a(lib_a-stdio.o)
                0x0000000000009e1e                __swrite
 .text.__sseek  0x0000000000009e6c       0x36 d:/mounriver/mounriver_studio/toolchain/risc-v embedded gcc/bin/../lib/gcc/riscv-none-embed/8.2.0/../../../../riscv-none-embed/lib\libc_nano.a(lib_a-stdio.o)
                0x0000000000009e6c                __sseek
 .text.__sclose
                0x0000000000009ea2        0x6 d:/mounriver/mounriver_studio/toolchain/risc-v embedded gcc/bin/../lib/gcc/riscv-none-embed/8.2.0/../../../../riscv-none-embed/lib\libc_nano.a(lib_a-stdio.o)
                0x0000000000009ea2                __sclose
 .text._write_r
                0x0000000000009ea8       0x36 d:/mounriver/mounriver_studio/toolchain/risc-v embedded gcc/bin/../lib/gcc/riscv-none-embed/8.2.0/../../../../riscv-none-embed/lib\libc_nano.a(lib_a-writer.o)
                0x0000000000009ea8                _write_r
 .text._close_r
                0x0000000000009ede       0x30 d:/mounriver/mounriver_studio/toolchain/risc-v embedded gcc/bin/../lib/gcc/riscv-none-embed/8.2.0/../../../../riscv-none-embed/lib\libc_nano.a(lib_a-closer.o)
                0x0000000000009ede                _close_r
 .text._fstat_r
                0x0000000000009f0e       0x32 d:/mounriver/mounriver_studio/toolchain/risc-v embedded gcc/bin/../lib/gcc/riscv-none-embed/8.2.0/../../../../riscv-none-embed/lib\libc_nano.a(lib_a-fstatr.o)
                0x0000000000009f0e                _fstat_r
 .text._isatty_r
                0x0000000000009f40       0x30 d:/mounriver/mounriver_studio/toolchain/risc-v embedded gcc/bin/../lib/gcc/riscv-none-embed/8.2.0/../../../../riscv-none-embed/lib\libc_nano.a(lib_a-isattyr.o)
                0x0000000000009f40                _isatty_r
 .text._lseek_r
                0x0000000000009f70       0x34 d:/mounriver/mounriver_studio/toolchain/risc-v embedded gcc/bin/../lib/gcc/riscv-none-embed/8.2.0/../../../../riscv-none-embed/lib\libc_nano.a(lib_a-lseekr.o)
                0x0000000000009f70                _lseek_r
 .text.memchr   0x0000000000009fa4       0x1a d:/mounriver/mounriver_studio/toolchain/risc-v embedded gcc/bin/../lib/gcc/riscv-none-embed/8.2.0/../../../../riscv-none-embed/lib\libc_nano.a(lib_a-memchr.o)
                0x0000000000009fa4                memchr
 .text.__malloc_lock
                0x0000000000009fbe        0x2 d:/mounriver/mounriver_studio/toolchain/risc-v embedded gcc/bin/../lib/gcc/riscv-none-embed/8.2.0/../../../../riscv-none-embed/lib\libc_nano.a(lib_a-mlock.o)
                0x0000000000009fbe                __malloc_lock
 .text.__malloc_unlock
                0x0000000000009fc0        0x2 d:/mounriver/mounriver_studio/toolchain/risc-v embedded gcc/bin/../lib/gcc/riscv-none-embed/8.2.0/../../../../riscv-none-embed/lib\libc_nano.a(lib_a-mlock.o)
                0x0000000000009fc0                __malloc_unlock
 .text._read_r  0x0000000000009fc2       0x34 d:/mounriver/mounriver_studio/toolchain/risc-v embedded gcc/bin/../lib/gcc/riscv-none-embed/8.2.0/../../../../riscv-none-embed/lib\libc_nano.a(lib_a-readr.o)
                0x0000000000009fc2                _read_r
 .text._close   0x0000000000009ff6       0x10 d:/mounriver/mounriver_studio/toolchain/risc-v embedded gcc/bin/../lib/gcc/riscv-none-embed/8.2.0/../../../../riscv-none-embed/lib\libnosys.a(close.o)
                0x0000000000009ff6                _close
 .text._fstat   0x000000000000a006       0x10 d:/mounriver/mounriver_studio/toolchain/risc-v embedded gcc/bin/../lib/gcc/riscv-none-embed/8.2.0/../../../../riscv-none-embed/lib\libnosys.a(fstat.o)
                0x000000000000a006                _fstat
 .text._isatty  0x000000000000a016       0x10 d:/mounriver/mounriver_studio/toolchain/risc-v embedded gcc/bin/../lib/gcc/riscv-none-embed/8.2.0/../../../../riscv-none-embed/lib\libnosys.a(isatty.o)
                0x000000000000a016                _isatty
 .text._lseek   0x000000000000a026       0x10 d:/mounriver/mounriver_studio/toolchain/risc-v embedded gcc/bin/../lib/gcc/riscv-none-embed/8.2.0/../../../../riscv-none-embed/lib\libnosys.a(lseek.o)
                0x000000000000a026                _lseek
 .text._read    0x000000000000a036       0x10 d:/mounriver/mounriver_studio/toolchain/risc-v embedded gcc/bin/../lib/gcc/riscv-none-embed/8.2.0/../../../../riscv-none-embed/lib\libnosys.a(read.o)
                0x000000000000a036                _read
 .text._sbrk    0x000000000000a046       0x24 d:/mounriver/mounriver_studio/toolchain/risc-v embedded gcc/bin/../lib/gcc/riscv-none-embed/8.2.0/../../../../riscv-none-embed/lib\libnosys.a(sbrk.o)
                0x000000000000a046                _sbrk
 *(.rodata)
 *(.rodata*)
 *fill*         0x000000000000a06a        0x2 
 .rodata.HardFault_Handler.str1.4
                0x000000000000a06c       0x42 ./User/ch32v30x_it.o
 *fill*         0x000000000000a0ae        0x2 
 .rodata.uart_tx
                0x000000000000a0b0       0x1c ./User/main.o
 .rodata.uart_rx
                0x000000000000a0cc       0x1c ./User/main.o
 .rodata.MemNum
                0x000000000000a0e8       0x10 ./User/main.o
                0x000000000000a0e8                MemNum
 .rodata.MemSize
                0x000000000000a0f8       0x10 ./User/main.o
                0x000000000000a0f8                MemSize
 .rodata.main.str1.4
                0x000000000000a108        0x9 ./User/main.o
 *fill*         0x000000000000a111        0x3 
 .rodata.tcp_close
                0x000000000000a114       0x20 F:\Desktop\ch32v307\Application\8_uarts_server\bare_metal\8_uart_server\ETH\User\libwchnet.a(tcp.o)
 .rodata.tcp_backoff
                0x000000000000a134       0x14 F:\Desktop\ch32v307\Application\8_uarts_server\bare_metal\8_uart_server\ETH\User\libwchnet.a(tcp.o)
                0x000000000000a134                tcp_backoff
 .rodata.ErrTable
                0x000000000000a148       0x10 F:\Desktop\ch32v307\Application\8_uarts_server\bare_metal\8_uart_server\ETH\User\libwchnet.a(socket.o)
                0x000000000000a148                ErrTable
 .rodata.WCHNET_ETHIsr.str1.4
                0x000000000000a158        0xa F:\Desktop\ch32v307\Application\8_uarts_server\bare_metal\8_uart_server\ETH\User\libwchnet.a(socket.o)
 *fill*         0x000000000000a162        0x2 
 .rodata.etharp_output.str1.4
                0x000000000000a164       0x1f F:\Desktop\ch32v307\Application\8_uarts_server\bare_metal\8_uart_server\ETH\User\libwchnet.a(etharp.o)
 *fill*         0x000000000000a183        0x1 
 .rodata.tcp_input
                0x000000000000a184       0x20 F:\Desktop\ch32v307\Application\8_uarts_server\bare_metal\8_uart_server\ETH\User\libwchnet.a(tcp_in.o)
 .rodata.__sf_fake_stderr
                0x000000000000a1a4       0x20 d:/mounriver/mounriver_studio/toolchain/risc-v embedded gcc/bin/../lib/gcc/riscv-none-embed/8.2.0/../../../../riscv-none-embed/lib\libc_nano.a(lib_a-findfp.o)
                0x000000000000a1a4                __sf_fake_stderr
 .rodata.__sf_fake_stdin
                0x000000000000a1c4       0x20 d:/mounriver/mounriver_studio/toolchain/risc-v embedded gcc/bin/../lib/gcc/riscv-none-embed/8.2.0/../../../../riscv-none-embed/lib\libc_nano.a(lib_a-findfp.o)
                0x000000000000a1c4                __sf_fake_stdin
 .rodata.__sf_fake_stdout
                0x000000000000a1e4       0x20 d:/mounriver/mounriver_studio/toolchain/risc-v embedded gcc/bin/../lib/gcc/riscv-none-embed/8.2.0/../../../../riscv-none-embed/lib\libc_nano.a(lib_a-findfp.o)
                0x000000000000a1e4                __sf_fake_stdout
 .rodata._vfprintf_r.str1.4
                0x000000000000a204       0x13 d:/mounriver/mounriver_studio/toolchain/risc-v embedded gcc/bin/../lib/gcc/riscv-none-embed/8.2.0/../../../../riscv-none-embed/lib\libc_nano.a(lib_a-nano-vfprintf.o)
 *fill*         0x000000000000a217        0x1 
 .rodata._printf_i.str1.4
                0x000000000000a218       0x28 d:/mounriver/mounriver_studio/toolchain/risc-v embedded gcc/bin/../lib/gcc/riscv-none-embed/8.2.0/../../../../riscv-none-embed/lib\libc_nano.a(lib_a-nano-vfprintf_i.o)
                                         0x25 (size before relaxing)
 *(.glue_7)
 *(.glue_7t)
 *(.gnu.linkonce.t.*)
                0x000000000000a240                . = ALIGN (0x4)

.rela.dyn       0x000000000000a240        0x0
 .rela.init     0x000000000000a240        0x0 ./User/bsp_uart.o
 .rela.vector   0x000000000000a240        0x0 ./User/bsp_uart.o
 .rela.text.handle_reset
                0x000000000000a240        0x0 ./User/bsp_uart.o
 .rela.text._vfprintf_r
                0x000000000000a240        0x0 ./User/bsp_uart.o
 .rela.text._sbrk_r
                0x000000000000a240        0x0 ./User/bsp_uart.o
 .rela.text._write_r
                0x000000000000a240        0x0 ./User/bsp_uart.o
 .rela.text._close_r
                0x000000000000a240        0x0 ./User/bsp_uart.o
 .rela.text._fstat_r
                0x000000000000a240        0x0 ./User/bsp_uart.o
 .rela.text._isatty_r
                0x000000000000a240        0x0 ./User/bsp_uart.o
 .rela.text._lseek_r
                0x000000000000a240        0x0 ./User/bsp_uart.o
 .rela.text._read_r
                0x000000000000a240        0x0 ./User/bsp_uart.o
 .rela.text._close
                0x000000000000a240        0x0 ./User/bsp_uart.o
 .rela.text._fstat
                0x000000000000a240        0x0 ./User/bsp_uart.o
 .rela.text._isatty
                0x000000000000a240        0x0 ./User/bsp_uart.o
 .rela.text._lseek
                0x000000000000a240        0x0 ./User/bsp_uart.o
 .rela.text._read
                0x000000000000a240        0x0 ./User/bsp_uart.o
 .rela.text._sbrk
                0x000000000000a240        0x0 ./User/bsp_uart.o

.fini           0x000000000000a240        0x0
 *(SORT_NONE(.fini))
                0x000000000000a240                . = ALIGN (0x4)
                [!provide]                        PROVIDE (_etext = .)
                [!provide]                        PROVIDE (_eitcm = .)

.preinit_array  0x000000000000a240        0x0
                [!provide]                        PROVIDE (__preinit_array_start = .)
 *(.preinit_array)
                [!provide]                        PROVIDE (__preinit_array_end = .)

.init_array     0x000000000000a240        0x0
                [!provide]                        PROVIDE (__init_array_start = .)
 *(SORT_BY_INIT_PRIORITY(.init_array.*) SORT_BY_INIT_PRIORITY(.ctors.*))
 *(.init_array EXCLUDE_FILE(*crtend?.o *crtend.o *crtbegin?.o *crtbegin.o) .ctors)
                [!provide]                        PROVIDE (__init_array_end = .)

.fini_array     0x000000000000a240        0x0
                [!provide]                        PROVIDE (__fini_array_start = .)
 *(SORT_BY_INIT_PRIORITY(.fini_array.*) SORT_BY_INIT_PRIORITY(.dtors.*))
 *(.fini_array EXCLUDE_FILE(*crtend?.o *crtend.o *crtbegin?.o *crtbegin.o) .dtors)
                [!provide]                        PROVIDE (__fini_array_end = .)

.ctors
 *crtbegin.o(.ctors)
 *crtbegin?.o(.ctors)
 *(EXCLUDE_FILE(*crtend?.o *crtend.o) .ctors)
 *(SORT_BY_NAME(.ctors.*))
 *(.ctors)

.dtors
 *crtbegin.o(.dtors)
 *crtbegin?.o(.dtors)
 *(EXCLUDE_FILE(*crtend?.o *crtend.o) .dtors)
 *(SORT_BY_NAME(.dtors.*))
 *(.dtors)

.dalign         0x0000000020000000        0x0 load address 0x000000000000a240
                0x0000000020000000                . = ALIGN (0x4)
                0x0000000020000000                PROVIDE (_data_vma = .)

.dlalign        0x000000000000a240        0x0
                0x000000000000a240                . = ALIGN (0x4)
                0x000000000000a240                PROVIDE (_data_lma = .)

.data           0x0000000020000000       0xd8 load address 0x000000000000a240
 *(.gnu.linkonce.r.*)
 *(.data .data.*)
 .data.APBAHBPrescTable
                0x0000000020000000       0x10 ./Peripheral/src/ch32v30x_rcc.o
 .data.impure_data
                0x0000000020000010       0x60 d:/mounriver/mounriver_studio/toolchain/risc-v embedded gcc/bin/../lib/gcc/riscv-none-embed/8.2.0/../../../../riscv-none-embed/lib\libc_nano.a(lib_a-impure.o)
 *(.gnu.linkonce.d.*)
                0x0000000020000070                . = ALIGN (0x8)
                0x0000000020000870                PROVIDE (__global_pointer$ = (. + 0x800))
 *(.sdata .sdata.*)
 .sdata.DESIP   0x0000000020000070        0x4 ./User/main.o
                0x0000000020000070                DESIP
 .sdata.GWIPAddr
                0x0000000020000074        0x4 ./User/main.o
                0x0000000020000074                GWIPAddr
 .sdata.IPAddr  0x0000000020000078        0x4 ./User/main.o
                0x0000000020000078                IPAddr
 .sdata.IPMask  0x000000002000007c        0x4 ./User/main.o
                0x000000002000007c                IPMask
 .sdata.MACAddr
                0x0000000020000080        0x6 ./User/main.o
                0x0000000020000080                MACAddr
 .sdata.desport
                0x0000000020000086        0x2 ./User/main.o
                0x0000000020000086                desport
 .sdata.srcport
                0x0000000020000088        0x2 ./User/main.o
                0x0000000020000088                srcport
 *fill*         0x000000002000008a        0x2 
 .sdata.SystemCoreClock
                0x000000002000008c        0x4 ./User/system_ch32v30x.o
                0x000000002000008c                SystemCoreClock
 .sdata.ADCPrescTable
                0x0000000020000090        0x4 ./Peripheral/src/ch32v30x_rcc.o
 .sdata.memp_num
                0x0000000020000094        0x4 F:\Desktop\ch32v307\Application\8_uarts_server\bare_metal\8_uart_server\ETH\User\libwchnet.a(memp.o)
                0x0000000020000094                memp_num
 .sdata.memp_sizes
                0x0000000020000098        0x4 F:\Desktop\ch32v307\Application\8_uarts_server\bare_metal\8_uart_server\ETH\User\libwchnet.a(memp.o)
                0x0000000020000098                memp_sizes
 .sdata.iss.6791
                0x000000002000009c        0x4 F:\Desktop\ch32v307\Application\8_uarts_server\bare_metal\8_uart_server\ETH\User\libwchnet.a(tcp.o)
 .sdata.port.6623
                0x00000000200000a0        0x2 F:\Desktop\ch32v307\Application\8_uarts_server\bare_metal\8_uart_server\ETH\User\libwchnet.a(tcp.o)
 *fill*         0x00000000200000a2        0x2 
 .sdata.arp_table
                0x00000000200000a4        0x4 F:\Desktop\ch32v307\Application\8_uarts_server\bare_metal\8_uart_server\ETH\User\libwchnet.a(etharp.o)
                0x00000000200000a4                arp_table
 .sdata.xid.6638
                0x00000000200000a8        0x4 F:\Desktop\ch32v307\Application\8_uarts_server\bare_metal\8_uart_server\ETH\User\libwchnet.a(wchnet_dhcp.o)
 .sdata._impure_ptr
                0x00000000200000ac        0x4 d:/mounriver/mounriver_studio/toolchain/risc-v embedded gcc/bin/../lib/gcc/riscv-none-embed/8.2.0/../../../../riscv-none-embed/lib\libc_nano.a(lib_a-impure.o)
                0x00000000200000ac                _impure_ptr
 *(.sdata2.*)
 .sdata2.tcp_persist_backoff
                0x00000000200000b0        0x7 F:\Desktop\ch32v307\Application\8_uarts_server\bare_metal\8_uart_server\ETH\User\libwchnet.a(tcp.o)
                0x00000000200000b0                tcp_persist_backoff
 *fill*         0x00000000200000b7        0x1 
 .sdata2.ethbroadcast
                0x00000000200000b8        0x6 F:\Desktop\ch32v307\Application\8_uarts_server\bare_metal\8_uart_server\ETH\User\libwchnet.a(etharp.o)
                0x00000000200000b8                ethbroadcast
 *fill*         0x00000000200000be        0x2 
 .sdata2.ethzero
                0x00000000200000c0        0x6 F:\Desktop\ch32v307\Application\8_uarts_server\bare_metal\8_uart_server\ETH\User\libwchnet.a(etharp.o)
                0x00000000200000c0                ethzero
 *fill*         0x00000000200000c6        0x2 
 .sdata2.ip_addr_any
                0x00000000200000c8        0x4 F:\Desktop\ch32v307\Application\8_uarts_server\bare_metal\8_uart_server\ETH\User\libwchnet.a(ip_addr.o)
                0x00000000200000c8                ip_addr_any
 .sdata2.ip_addr_broadcast
                0x00000000200000cc        0x4 F:\Desktop\ch32v307\Application\8_uarts_server\bare_metal\8_uart_server\ETH\User\libwchnet.a(ip_addr.o)
                0x00000000200000cc                ip_addr_broadcast
 .sdata2._global_impure_ptr
                0x00000000200000d0        0x4 d:/mounriver/mounriver_studio/toolchain/risc-v embedded gcc/bin/../lib/gcc/riscv-none-embed/8.2.0/../../../../riscv-none-embed/lib\libc_nano.a(lib_a-impure.o)
                0x00000000200000d0                _global_impure_ptr
 *(.gnu.linkonce.s.*)
                0x00000000200000d8                . = ALIGN (0x8)
 *fill*         0x00000000200000d4        0x4 
 *(.srodata.cst16)
 *(.srodata.cst8)
 *(.srodata.cst4)
 *(.srodata.cst2)
 *(.srodata .srodata.*)
                0x00000000200000d8                . = ALIGN (0x4)
                0x00000000200000d8                PROVIDE (_edata = .)

.bss            0x00000000200000d8    0x1ddf8 load address 0x000000000000a318
                0x00000000200000d8                . = ALIGN (0x4)
                0x00000000200000d8                PROVIDE (_sbss = .)
 *(.sbss*)
 .sbss.SocketId
                0x00000000200000d8        0x8 ./User/main.o
                0x00000000200000d8                SocketId
 .sbss.tcp_connect_num
                0x00000000200000e0        0x1 ./User/main.o
                0x00000000200000e0                tcp_connect_num
 *fill*         0x00000000200000e1        0x3 
 .sbss.DMARxDescToGet
                0x00000000200000e4        0x4 ./Peripheral/src/ch32v30x_eth.o
                0x00000000200000e4                DMARxDescToGet
 .sbss.DMATxDescToSet
                0x00000000200000e8        0x4 ./Peripheral/src/ch32v30x_eth.o
                0x00000000200000e8                DMATxDescToSet
 .sbss.NVIC_Priority_Group
                0x00000000200000ec        0x4 ./Peripheral/src/ch32v30x_misc.o
                0x00000000200000ec                NVIC_Priority_Group
 .sbss.p_ms     0x00000000200000f0        0x2 ./Debug/debug.o
 .sbss.p_us     0x00000000200000f2        0x1 ./Debug/debug.o
 *fill*         0x00000000200000f3        0x1 
 .sbss.ARPTimer
                0x00000000200000f4        0x4 F:\Desktop\ch32v307\Application\8_uarts_server\bare_metal\8_uart_server\ETH\User\libwchnet.a(ethernetif.o)
                0x00000000200000f4                ARPTimer
 .sbss.DHCPTestTimer
                0x00000000200000f8        0x4 F:\Desktop\ch32v307\Application\8_uarts_server\bare_metal\8_uart_server\ETH\User\libwchnet.a(ethernetif.o)
                0x00000000200000f8                DHCPTestTimer
 .sbss.DHCPcoarseTimer
                0x00000000200000fc        0x4 F:\Desktop\ch32v307\Application\8_uarts_server\bare_metal\8_uart_server\ETH\User\libwchnet.a(ethernetif.o)
                0x00000000200000fc                DHCPcoarseTimer
 .sbss.DHCPfineTimer
                0x0000000020000100        0x4 F:\Desktop\ch32v307\Application\8_uarts_server\bare_metal\8_uart_server\ETH\User\libwchnet.a(ethernetif.o)
                0x0000000020000100                DHCPfineTimer
 .sbss.DNSTimer
                0x0000000020000104        0x4 F:\Desktop\ch32v307\Application\8_uarts_server\bare_metal\8_uart_server\ETH\User\libwchnet.a(ethernetif.o)
                0x0000000020000104                DNSTimer
 .sbss.DataLED  0x0000000020000108        0x1 F:\Desktop\ch32v307\Application\8_uarts_server\bare_metal\8_uart_server\ETH\User\libwchnet.a(ethernetif.o)
                0x0000000020000108                DataLED
 *fill*         0x0000000020000109        0x3 
 .sbss.IPFragTimer
                0x000000002000010c        0x4 F:\Desktop\ch32v307\Application\8_uarts_server\bare_metal\8_uart_server\ETH\User\libwchnet.a(ethernetif.o)
                0x000000002000010c                IPFragTimer
 .sbss.LocalTime
                0x0000000020000110        0x4 F:\Desktop\ch32v307\Application\8_uarts_server\bare_metal\8_uart_server\ETH\User\libwchnet.a(ethernetif.o)
                0x0000000020000110                LocalTime
 .sbss.MacRevcNull
                0x0000000020000114        0x1 F:\Desktop\ch32v307\Application\8_uarts_server\bare_metal\8_uart_server\ETH\User\libwchnet.a(ethernetif.o)
 *fill*         0x0000000020000115        0x3 
 .sbss.SuccessPackets
                0x0000000020000118        0x4 F:\Desktop\ch32v307\Application\8_uarts_server\bare_metal\8_uart_server\ETH\User\libwchnet.a(ethernetif.o)
                0x0000000020000118                SuccessPackets
 .sbss.TCPTimer
                0x000000002000011c        0x4 F:\Desktop\ch32v307\Application\8_uarts_server\bare_metal\8_uart_server\ETH\User\libwchnet.a(ethernetif.o)
                0x000000002000011c                TCPTimer
 .sbss.WCHGWIPAddr
                0x0000000020000120        0x4 F:\Desktop\ch32v307\Application\8_uarts_server\bare_metal\8_uart_server\ETH\User\libwchnet.a(ethernetif.o)
                0x0000000020000120                WCHGWIPAddr
 .sbss.WCHIPAddr
                0x0000000020000124        0x4 F:\Desktop\ch32v307\Application\8_uarts_server\bare_metal\8_uart_server\ETH\User\libwchnet.a(ethernetif.o)
                0x0000000020000124                WCHIPAddr
 .sbss.WCHIPMask
                0x0000000020000128        0x4 F:\Desktop\ch32v307\Application\8_uarts_server\bare_metal\8_uart_server\ETH\User\libwchnet.a(ethernetif.o)
                0x0000000020000128                WCHIPMask
 .sbss.WCHMACAddr
                0x000000002000012c        0x4 F:\Desktop\ch32v307\Application\8_uarts_server\bare_metal\8_uart_server\ETH\User\libwchnet.a(ethernetif.o)
                0x000000002000012c                WCHMACAddr
 .sbss.ip_reass_pbufcount
                0x0000000020000130        0x2 F:\Desktop\ch32v307\Application\8_uarts_server\bare_metal\8_uart_server\ETH\User\libwchnet.a(ip_frag.o)
 *fill*         0x0000000020000132        0x2 
 .sbss.reassdatagrams
                0x0000000020000134        0x4 F:\Desktop\ch32v307\Application\8_uarts_server\bare_metal\8_uart_server\ETH\User\libwchnet.a(ip_frag.o)
 .sbss.lfree    0x0000000020000138        0x4 F:\Desktop\ch32v307\Application\8_uarts_server\bare_metal\8_uart_server\ETH\User\libwchnet.a(mem.o)
 .sbss.ram      0x000000002000013c        0x4 F:\Desktop\ch32v307\Application\8_uarts_server\bare_metal\8_uart_server\ETH\User\libwchnet.a(mem.o)
 .sbss.ram_end  0x0000000020000140        0x4 F:\Desktop\ch32v307\Application\8_uarts_server\bare_metal\8_uart_server\ETH\User\libwchnet.a(mem.o)
 .sbss.netif_default
                0x0000000020000144        0x4 F:\Desktop\ch32v307\Application\8_uarts_server\bare_metal\8_uart_server\ETH\User\libwchnet.a(netif.o)
                0x0000000020000144                netif_default
 .sbss.netif_list
                0x0000000020000148        0x4 F:\Desktop\ch32v307\Application\8_uarts_server\bare_metal\8_uart_server\ETH\User\libwchnet.a(netif.o)
                0x0000000020000148                netif_list
 .sbss.netifnum.6387
                0x000000002000014c        0x1 F:\Desktop\ch32v307\Application\8_uarts_server\bare_metal\8_uart_server\ETH\User\libwchnet.a(netif.o)
 *fill*         0x000000002000014d        0x3 
 .sbss.tcp_active_pcbs
                0x0000000020000150        0x4 F:\Desktop\ch32v307\Application\8_uarts_server\bare_metal\8_uart_server\ETH\User\libwchnet.a(tcp.o)
                0x0000000020000150                tcp_active_pcbs
 .sbss.tcp_bound_pcbs
                0x0000000020000154        0x4 F:\Desktop\ch32v307\Application\8_uarts_server\bare_metal\8_uart_server\ETH\User\libwchnet.a(tcp.o)
                0x0000000020000154                tcp_bound_pcbs
 .sbss.tcp_listen_pcbs
                0x0000000020000158        0x4 F:\Desktop\ch32v307\Application\8_uarts_server\bare_metal\8_uart_server\ETH\User\libwchnet.a(tcp.o)
                0x0000000020000158                tcp_listen_pcbs
 .sbss.tcp_ticks
                0x000000002000015c        0x4 F:\Desktop\ch32v307\Application\8_uarts_server\bare_metal\8_uart_server\ETH\User\libwchnet.a(tcp.o)
                0x000000002000015c                tcp_ticks
 .sbss.tcp_timer
                0x0000000020000160        0x1 F:\Desktop\ch32v307\Application\8_uarts_server\bare_metal\8_uart_server\ETH\User\libwchnet.a(tcp.o)
 *fill*         0x0000000020000161        0x3 
 .sbss.tcp_tmp_pcb
                0x0000000020000164        0x4 F:\Desktop\ch32v307\Application\8_uarts_server\bare_metal\8_uart_server\ETH\User\libwchnet.a(tcp.o)
                0x0000000020000164                tcp_tmp_pcb
 .sbss.tcp_tw_pcbs
                0x0000000020000168        0x4 F:\Desktop\ch32v307\Application\8_uarts_server\bare_metal\8_uart_server\ETH\User\libwchnet.a(tcp.o)
                0x0000000020000168                tcp_tw_pcbs
 .sbss.ArpCheckTime
                0x000000002000016c        0x4 F:\Desktop\ch32v307\Application\8_uarts_server\bare_metal\8_uart_server\ETH\User\libwchnet.a(ipcheck.o)
                0x000000002000016c                ArpCheckTime
 .sbss.phydata  0x0000000020000170        0x4 F:\Desktop\ch32v307\Application\8_uarts_server\bare_metal\8_uart_server\ETH\User\libwchnet.a(socket.o)
                0x0000000020000170                phydata
 .sbss.phydatatime
                0x0000000020000174        0x4 F:\Desktop\ch32v307\Application\8_uarts_server\bare_metal\8_uart_server\ETH\User\libwchnet.a(socket.o)
                0x0000000020000174                phydatatime
 .sbss.tcppackt
                0x0000000020000178        0x4 F:\Desktop\ch32v307\Application\8_uarts_server\bare_metal\8_uart_server\ETH\User\libwchnet.a(socket.o)
                0x0000000020000178                tcppackt
 .sbss.etharp_cached_entry
                0x000000002000017c        0x1 F:\Desktop\ch32v307\Application\8_uarts_server\bare_metal\8_uart_server\ETH\User\libwchnet.a(etharp.o)
 *fill*         0x000000002000017d        0x3 
 .sbss.current_header
                0x0000000020000180        0x4 F:\Desktop\ch32v307\Application\8_uarts_server\bare_metal\8_uart_server\ETH\User\libwchnet.a(ip.o)
                0x0000000020000180                current_header
 .sbss.current_netif
                0x0000000020000184        0x4 F:\Desktop\ch32v307\Application\8_uarts_server\bare_metal\8_uart_server\ETH\User\libwchnet.a(ip.o)
                0x0000000020000184                current_netif
 .sbss.ip_id.6659
                0x0000000020000188        0x2 F:\Desktop\ch32v307\Application\8_uarts_server\bare_metal\8_uart_server\ETH\User\libwchnet.a(ip.o)
 *fill*         0x000000002000018a        0x2 
 .sbss.raw_pcbs
                0x000000002000018c        0x4 F:\Desktop\ch32v307\Application\8_uarts_server\bare_metal\8_uart_server\ETH\User\libwchnet.a(raw.o)
 .sbss.ackno    0x0000000020000190        0x4 F:\Desktop\ch32v307\Application\8_uarts_server\bare_metal\8_uart_server\ETH\User\libwchnet.a(tcp_in.o)
 .sbss.flags    0x0000000020000194        0x1 F:\Desktop\ch32v307\Application\8_uarts_server\bare_metal\8_uart_server\ETH\User\libwchnet.a(tcp_in.o)
 *fill*         0x0000000020000195        0x3 
 .sbss.iphdr    0x0000000020000198        0x4 F:\Desktop\ch32v307\Application\8_uarts_server\bare_metal\8_uart_server\ETH\User\libwchnet.a(tcp_in.o)
 .sbss.recv_data
                0x000000002000019c        0x4 F:\Desktop\ch32v307\Application\8_uarts_server\bare_metal\8_uart_server\ETH\User\libwchnet.a(tcp_in.o)
 .sbss.recv_flags
                0x00000000200001a0        0x1 F:\Desktop\ch32v307\Application\8_uarts_server\bare_metal\8_uart_server\ETH\User\libwchnet.a(tcp_in.o)
 *fill*         0x00000000200001a1        0x3 
 .sbss.seqno    0x00000000200001a4        0x4 F:\Desktop\ch32v307\Application\8_uarts_server\bare_metal\8_uart_server\ETH\User\libwchnet.a(tcp_in.o)
 .sbss.tcp_input_pcb
                0x00000000200001a8        0x4 F:\Desktop\ch32v307\Application\8_uarts_server\bare_metal\8_uart_server\ETH\User\libwchnet.a(tcp_in.o)
                0x00000000200001a8                tcp_input_pcb
 .sbss.tcphdr   0x00000000200001ac        0x4 F:\Desktop\ch32v307\Application\8_uarts_server\bare_metal\8_uart_server\ETH\User\libwchnet.a(tcp_in.o)
 .sbss.tcplen   0x00000000200001b0        0x2 F:\Desktop\ch32v307\Application\8_uarts_server\bare_metal\8_uart_server\ETH\User\libwchnet.a(tcp_in.o)
 *fill*         0x00000000200001b2        0x2 
 .sbss.udp_pcbs
                0x00000000200001b4        0x4 F:\Desktop\ch32v307\Application\8_uarts_server\bare_metal\8_uart_server\ETH\User\libwchnet.a(udp.o)
                0x00000000200001b4                udp_pcbs
 .sbss.__malloc_free_list
                0x00000000200001b8        0x4 d:/mounriver/mounriver_studio/toolchain/risc-v embedded gcc/bin/../lib/gcc/riscv-none-embed/8.2.0/../../../../riscv-none-embed/lib\libc_nano.a(lib_a-nano-mallocr.o)
                0x00000000200001b8                __malloc_free_list
 .sbss.__malloc_sbrk_start
                0x00000000200001bc        0x4 d:/mounriver/mounriver_studio/toolchain/risc-v embedded gcc/bin/../lib/gcc/riscv-none-embed/8.2.0/../../../../riscv-none-embed/lib\libc_nano.a(lib_a-nano-mallocr.o)
                0x00000000200001bc                __malloc_sbrk_start
 .sbss.heap_end.1518
                0x00000000200001c0        0x4 d:/mounriver/mounriver_studio/toolchain/risc-v embedded gcc/bin/../lib/gcc/riscv-none-embed/8.2.0/../../../../riscv-none-embed/lib\libnosys.a(sbrk.o)
 *(.gnu.linkonce.sb.*)
 *(.bss*)
 .bss.UART1_RX_DMA_DataBuf
                0x00000000200001c4      0x800 ./User/bsp_uart.o
                0x00000000200001c4                UART1_RX_DMA_DataBuf
 .bss.UART1_TX_Buf_Length
                0x00000000200009c4        0xa ./User/bsp_uart.o
                0x00000000200009c4                UART1_TX_Buf_Length
 *fill*         0x00000000200009ce        0x2 
 .bss.UART1_TX_DMA_DataBuf
                0x00000000200009d0      0xfa0 ./User/bsp_uart.o
                0x00000000200009d0                UART1_TX_DMA_DataBuf
 .bss.UART2_RX_DMA_DataBuf
                0x0000000020001970      0x800 ./User/bsp_uart.o
                0x0000000020001970                UART2_RX_DMA_DataBuf
 .bss.UART2_TX_Buf_Length
                0x0000000020002170        0xa ./User/bsp_uart.o
                0x0000000020002170                UART2_TX_Buf_Length
 *fill*         0x000000002000217a        0x2 
 .bss.UART2_TX_DMA_DataBuf
                0x000000002000217c      0xfa0 ./User/bsp_uart.o
                0x000000002000217c                UART2_TX_DMA_DataBuf
 .bss.UART3_RX_DMA_DataBuf
                0x000000002000311c      0x800 ./User/bsp_uart.o
                0x000000002000311c                UART3_RX_DMA_DataBuf
 .bss.UART3_TX_Buf_Length
                0x000000002000391c        0xa ./User/bsp_uart.o
                0x000000002000391c                UART3_TX_Buf_Length
 *fill*         0x0000000020003926        0x2 
 .bss.UART3_TX_DMA_DataBuf
                0x0000000020003928      0xfa0 ./User/bsp_uart.o
                0x0000000020003928                UART3_TX_DMA_DataBuf
 .bss.UART4_RX_DMA_DataBuf
                0x00000000200048c8      0x800 ./User/bsp_uart.o
                0x00000000200048c8                UART4_RX_DMA_DataBuf
 .bss.UART4_TX_Buf_Length
                0x00000000200050c8        0xa ./User/bsp_uart.o
                0x00000000200050c8                UART4_TX_Buf_Length
 *fill*         0x00000000200050d2        0x2 
 .bss.UART4_TX_DMA_DataBuf
                0x00000000200050d4      0xfa0 ./User/bsp_uart.o
                0x00000000200050d4                UART4_TX_DMA_DataBuf
 .bss.UART5_RX_DMA_DataBuf
                0x0000000020006074      0x800 ./User/bsp_uart.o
                0x0000000020006074                UART5_RX_DMA_DataBuf
 .bss.UART5_TX_Buf_Length
                0x0000000020006874        0xa ./User/bsp_uart.o
                0x0000000020006874                UART5_TX_Buf_Length
 *fill*         0x000000002000687e        0x2 
 .bss.UART5_TX_DMA_DataBuf
                0x0000000020006880      0xfa0 ./User/bsp_uart.o
                0x0000000020006880                UART5_TX_DMA_DataBuf
 .bss.UART6_RX_DMA_DataBuf
                0x0000000020007820      0x800 ./User/bsp_uart.o
                0x0000000020007820                UART6_RX_DMA_DataBuf
 .bss.UART6_TX_Buf_Length
                0x0000000020008020        0xa ./User/bsp_uart.o
                0x0000000020008020                UART6_TX_Buf_Length
 *fill*         0x000000002000802a        0x2 
 .bss.UART6_TX_DMA_DataBuf
                0x000000002000802c      0xfa0 ./User/bsp_uart.o
                0x000000002000802c                UART6_TX_DMA_DataBuf
 .bss.UART7_RX_DMA_DataBuf
                0x0000000020008fcc      0x800 ./User/bsp_uart.o
                0x0000000020008fcc                UART7_RX_DMA_DataBuf
 .bss.UART7_TX_Buf_Length
                0x00000000200097cc        0xa ./User/bsp_uart.o
                0x00000000200097cc                UART7_TX_Buf_Length
 *fill*         0x00000000200097d6        0x2 
 .bss.UART7_TX_DMA_DataBuf
                0x00000000200097d8      0xfa0 ./User/bsp_uart.o
                0x00000000200097d8                UART7_TX_DMA_DataBuf
 .bss.UART8_RX_DMA_DataBuf
                0x000000002000a778      0x800 ./User/bsp_uart.o
                0x000000002000a778                UART8_RX_DMA_DataBuf
 .bss.UART8_TX_Buf_Length
                0x000000002000af78        0xa ./User/bsp_uart.o
                0x000000002000af78                UART8_TX_Buf_Length
 *fill*         0x000000002000af82        0x2 
 .bss.UART8_TX_DMA_DataBuf
                0x000000002000af84      0xfa0 ./User/bsp_uart.o
                0x000000002000af84                UART8_TX_DMA_DataBuf
 .bss.uart_data_t
                0x000000002000bf24      0x100 ./User/bsp_uart.o
                0x000000002000bf24                uart_data_t
 .bss.DMARxDscrTab
                0x000000002000c024       0xa0 ./User/main.o
                0x000000002000c024                DMARxDscrTab
 .bss.DMATxDscrTab
                0x000000002000c0c4       0xa0 ./User/main.o
                0x000000002000c0c4                DMATxDscrTab
 .bss.MACRxBuf  0x000000002000c164     0x3b60 ./User/main.o
                0x000000002000c164                MACRxBuf
 .bss.MACTxBuf  0x000000002000fcc4     0x3b60 ./User/main.o
                0x000000002000fcc4                MACTxBuf
 .bss.Mem_ArpTable
                0x0000000020013824      0x140 ./User/main.o
                0x0000000020013824                Mem_ArpTable
 .bss.Mem_Heap_Memory
                0x0000000020013964     0x1214 ./User/main.o
                0x0000000020013964                Mem_Heap_Memory
 .bss.Memp_Memory
                0x0000000020014b78     0x2b53 ./User/main.o
                0x0000000020014b78                Memp_Memory
 *fill*         0x00000000200176cb        0x1 
 .bss.SocketInf
                0x00000000200176cc      0x1e0 ./User/main.o
                0x00000000200176cc                SocketInf
 .bss.SocketRecvBuf
                0x00000000200178ac     0x6400 ./User/main.o
                0x00000000200178ac                SocketRecvBuf
 .bss.DHCPCtrl  0x000000002001dcac       0x18 F:\Desktop\ch32v307\Application\8_uarts_server\bare_metal\8_uart_server\ETH\User\libwchnet.a(ethernetif.o)
                0x000000002001dcac                DHCPCtrl
 .bss.RxCtrl    0x000000002001dcc4       0xd0 F:\Desktop\ch32v307\Application\8_uarts_server\bare_metal\8_uart_server\ETH\User\libwchnet.a(ethernetif.o)
                0x000000002001dcc4                RxCtrl
 .bss.TXCtrl    0x000000002001dd94       0x14 F:\Desktop\ch32v307\Application\8_uarts_server\bare_metal\8_uart_server\ETH\User\libwchnet.a(ethernetif.o)
                0x000000002001dd94                TXCtrl
 .bss.WCHNetIf  0x000000002001dda8       0x38 F:\Desktop\ch32v307\Application\8_uarts_server\bare_metal\8_uart_server\ETH\User\libwchnet.a(ethernetif.o)
                0x000000002001dda8                WCHNetIf
 .bss.dhcp_host_name
                0x000000002001dde0       0x32 F:\Desktop\ch32v307\Application\8_uarts_server\bare_metal\8_uart_server\ETH\User\libwchnet.a(ethernetif.o)
                0x000000002001dde0                dhcp_host_name
 *fill*         0x000000002001de12        0x2 
 .bss.memp_tab  0x000000002001de14       0x20 F:\Desktop\ch32v307\Application\8_uarts_server\bare_metal\8_uart_server\ETH\User\libwchnet.a(memp.o)
 .bss.SelARP    0x000000002001de34        0xc F:\Desktop\ch32v307\Application\8_uarts_server\bare_metal\8_uart_server\ETH\User\libwchnet.a(ipcheck.o)
                0x000000002001de34                SelARP
 .bss.KeepLiveCfg
                0x000000002001de40        0xc F:\Desktop\ch32v307\Application\8_uarts_server\bare_metal\8_uart_server\ETH\User\libwchnet.a(socket.o)
                0x000000002001de40                KeepLiveCfg
 .bss.NetInf    0x000000002001de4c       0x44 F:\Desktop\ch32v307\Application\8_uarts_server\bare_metal\8_uart_server\ETH\User\libwchnet.a(socket.o)
                0x000000002001de4c                NetInf
 .bss.WCHCfg    0x000000002001de90       0x14 F:\Desktop\ch32v307\Application\8_uarts_server\bare_metal\8_uart_server\ETH\User\libwchnet.a(socket.o)
                0x000000002001de90                WCHCfg
 .bss.DNSInf    0x000000002001dea4       0x14 F:\Desktop\ch32v307\Application\8_uarts_server\bare_metal\8_uart_server\ETH\User\libwchnet.a(wchnet_dns.o)
                0x000000002001dea4                DNSInf
 .bss.inseg     0x000000002001deb8       0x14 F:\Desktop\ch32v307\Application\8_uarts_server\bare_metal\8_uart_server\ETH\User\libwchnet.a(tcp_in.o)
 *(.gnu.linkonce.b.*)
 *(COMMON*)
 COMMON         0x000000002001decc        0x4 d:/mounriver/mounriver_studio/toolchain/risc-v embedded gcc/bin/../lib/gcc/riscv-none-embed/8.2.0/../../../../riscv-none-embed/lib\libc_nano.a(lib_a-reent.o)
                0x000000002001decc                errno
                0x000000002001ded0                . = ALIGN (0x4)
                0x000000002001ded0                PROVIDE (_ebss = .)
                [!provide]                        PROVIDE (_end = _ebss)
                0x000000002001ded0                PROVIDE (end = .)

.stack          0x000000002001f800      0x800
                0x000000002001f800                . = ALIGN (0x4)
                [!provide]                        PROVIDE (_susrstack = .)
                0x0000000020020000                . = (. + __stack_size)
 *fill*         0x000000002001f800      0x800 
                0x0000000020020000                PROVIDE (_eusrstack = .)
OUTPUT(8_uart_server.elf elf32-littleriscv)

.comment        0x0000000000000000       0x33
 .comment       0x0000000000000000       0x33 ./User/bsp_uart.o
                                         0x34 (size before relaxing)
 .comment       0x0000000000000033       0x34 ./User/ch32v30x_it.o
 .comment       0x0000000000000033       0x34 ./User/main.o
 .comment       0x0000000000000033       0x34 ./User/system_ch32v30x.o
 .comment       0x0000000000000033       0x34 ./Peripheral/src/ch32v30x_dma.o
 .comment       0x0000000000000033       0x34 ./Peripheral/src/ch32v30x_eth.o
 .comment       0x0000000000000033       0x34 ./Peripheral/src/ch32v30x_gpio.o
 .comment       0x0000000000000033       0x34 ./Peripheral/src/ch32v30x_misc.o
 .comment       0x0000000000000033       0x34 ./Peripheral/src/ch32v30x_rcc.o
 .comment       0x0000000000000033       0x34 ./Peripheral/src/ch32v30x_tim.o
 .comment       0x0000000000000033       0x34 ./Peripheral/src/ch32v30x_usart.o
 .comment       0x0000000000000033       0x34 ./Debug/debug.o
 .comment       0x0000000000000033       0x34 ./Core/core_riscv.o
 .comment       0x0000000000000033       0x34 F:\Desktop\ch32v307\Application\8_uarts_server\bare_metal\8_uart_server\ETH\User\libwchnet.a(ethernetif.o)
 .comment       0x0000000000000033       0x34 F:\Desktop\ch32v307\Application\8_uarts_server\bare_metal\8_uart_server\ETH\User\libwchnet.a(inet.o)
 .comment       0x0000000000000033       0x34 F:\Desktop\ch32v307\Application\8_uarts_server\bare_metal\8_uart_server\ETH\User\libwchnet.a(ip_frag.o)
 .comment       0x0000000000000033       0x34 F:\Desktop\ch32v307\Application\8_uarts_server\bare_metal\8_uart_server\ETH\User\libwchnet.a(init.o)
 .comment       0x0000000000000033       0x34 F:\Desktop\ch32v307\Application\8_uarts_server\bare_metal\8_uart_server\ETH\User\libwchnet.a(mem.o)
 .comment       0x0000000000000033       0x34 F:\Desktop\ch32v307\Application\8_uarts_server\bare_metal\8_uart_server\ETH\User\libwchnet.a(memp.o)
 .comment       0x0000000000000033       0x34 F:\Desktop\ch32v307\Application\8_uarts_server\bare_metal\8_uart_server\ETH\User\libwchnet.a(netif.o)
 .comment       0x0000000000000033       0x34 F:\Desktop\ch32v307\Application\8_uarts_server\bare_metal\8_uart_server\ETH\User\libwchnet.a(pbuf.o)
 .comment       0x0000000000000033       0x34 F:\Desktop\ch32v307\Application\8_uarts_server\bare_metal\8_uart_server\ETH\User\libwchnet.a(tcp.o)
 .comment       0x0000000000000033       0x34 F:\Desktop\ch32v307\Application\8_uarts_server\bare_metal\8_uart_server\ETH\User\libwchnet.a(tcp_out.o)
 .comment       0x0000000000000033       0x34 F:\Desktop\ch32v307\Application\8_uarts_server\bare_metal\8_uart_server\ETH\User\libwchnet.a(eth_driver.o)
 .comment       0x0000000000000033       0x34 F:\Desktop\ch32v307\Application\8_uarts_server\bare_metal\8_uart_server\ETH\User\libwchnet.a(ipcheck.o)
 .comment       0x0000000000000033       0x34 F:\Desktop\ch32v307\Application\8_uarts_server\bare_metal\8_uart_server\ETH\User\libwchnet.a(socket.o)
 .comment       0x0000000000000033       0x34 F:\Desktop\ch32v307\Application\8_uarts_server\bare_metal\8_uart_server\ETH\User\libwchnet.a(wchnet_dns.o)
 .comment       0x0000000000000033       0x34 F:\Desktop\ch32v307\Application\8_uarts_server\bare_metal\8_uart_server\ETH\User\libwchnet.a(etharp.o)
 .comment       0x0000000000000033       0x34 F:\Desktop\ch32v307\Application\8_uarts_server\bare_metal\8_uart_server\ETH\User\libwchnet.a(icmp.o)
 .comment       0x0000000000000033       0x34 F:\Desktop\ch32v307\Application\8_uarts_server\bare_metal\8_uart_server\ETH\User\libwchnet.a(inet_chksum.o)
 .comment       0x0000000000000033       0x34 F:\Desktop\ch32v307\Application\8_uarts_server\bare_metal\8_uart_server\ETH\User\libwchnet.a(ip.o)
 .comment       0x0000000000000033       0x34 F:\Desktop\ch32v307\Application\8_uarts_server\bare_metal\8_uart_server\ETH\User\libwchnet.a(ip_addr.o)
 .comment       0x0000000000000033       0x34 F:\Desktop\ch32v307\Application\8_uarts_server\bare_metal\8_uart_server\ETH\User\libwchnet.a(raw.o)
 .comment       0x0000000000000033       0x34 F:\Desktop\ch32v307\Application\8_uarts_server\bare_metal\8_uart_server\ETH\User\libwchnet.a(tcp_in.o)
 .comment       0x0000000000000033       0x34 F:\Desktop\ch32v307\Application\8_uarts_server\bare_metal\8_uart_server\ETH\User\libwchnet.a(udp.o)
 .comment       0x0000000000000033       0x34 F:\Desktop\ch32v307\Application\8_uarts_server\bare_metal\8_uart_server\ETH\User\libwchnet.a(wchnet_dhcp.o)

.debug_frame    0x0000000000000000      0x974
 .debug_frame   0x0000000000000000       0x20 d:/mounriver/mounriver_studio/toolchain/risc-v embedded gcc/bin/../lib/gcc/riscv-none-embed/8.2.0/../../../../riscv-none-embed/lib\libc_nano.a(lib_a-memcpy.o)
 .debug_frame   0x0000000000000020       0x54 d:/mounriver/mounriver_studio/toolchain/risc-v embedded gcc/bin/../lib/gcc/riscv-none-embed/8.2.0/../../../../riscv-none-embed/lib\libc_nano.a(lib_a-printf.o)
 .debug_frame   0x0000000000000074       0x54 d:/mounriver/mounriver_studio/toolchain/risc-v embedded gcc/bin/../lib/gcc/riscv-none-embed/8.2.0/../../../../riscv-none-embed/lib\libc_nano.a(lib_a-puts.o)
 .debug_frame   0x00000000000000c8       0x20 d:/mounriver/mounriver_studio/toolchain/risc-v embedded gcc/bin/../lib/gcc/riscv-none-embed/8.2.0/../../../../riscv-none-embed/lib\libc_nano.a(lib_a-strcpy.o)
 .debug_frame   0x00000000000000e8       0x50 d:/mounriver/mounriver_studio/toolchain/risc-v embedded gcc/bin/../lib/gcc/riscv-none-embed/8.2.0/../../../../riscv-none-embed/lib\libc_nano.a(lib_a-wbuf.o)
 .debug_frame   0x0000000000000138       0x3c d:/mounriver/mounriver_studio/toolchain/risc-v embedded gcc/bin/../lib/gcc/riscv-none-embed/8.2.0/../../../../riscv-none-embed/lib\libc_nano.a(lib_a-wsetup.o)
 .debug_frame   0x0000000000000174       0x7c d:/mounriver/mounriver_studio/toolchain/risc-v embedded gcc/bin/../lib/gcc/riscv-none-embed/8.2.0/../../../../riscv-none-embed/lib\libc_nano.a(lib_a-fflush.o)
 .debug_frame   0x00000000000001f0      0x148 d:/mounriver/mounriver_studio/toolchain/risc-v embedded gcc/bin/../lib/gcc/riscv-none-embed/8.2.0/../../../../riscv-none-embed/lib\libc_nano.a(lib_a-findfp.o)
 .debug_frame   0x0000000000000338       0x88 d:/mounriver/mounriver_studio/toolchain/risc-v embedded gcc/bin/../lib/gcc/riscv-none-embed/8.2.0/../../../../riscv-none-embed/lib\libc_nano.a(lib_a-fwalk.o)
 .debug_frame   0x00000000000003c0       0x64 d:/mounriver/mounriver_studio/toolchain/risc-v embedded gcc/bin/../lib/gcc/riscv-none-embed/8.2.0/../../../../riscv-none-embed/lib\libc_nano.a(lib_a-makebuf.o)
 .debug_frame   0x0000000000000424       0x40 d:/mounriver/mounriver_studio/toolchain/risc-v embedded gcc/bin/../lib/gcc/riscv-none-embed/8.2.0/../../../../riscv-none-embed/lib\libc_nano.a(lib_a-nano-freer.o)
 .debug_frame   0x0000000000000464       0x40 d:/mounriver/mounriver_studio/toolchain/risc-v embedded gcc/bin/../lib/gcc/riscv-none-embed/8.2.0/../../../../riscv-none-embed/lib\libc_nano.a(lib_a-nano-mallocr.o)
 .debug_frame   0x00000000000004a4       0xd0 d:/mounriver/mounriver_studio/toolchain/risc-v embedded gcc/bin/../lib/gcc/riscv-none-embed/8.2.0/../../../../riscv-none-embed/lib\libc_nano.a(lib_a-nano-vfprintf.o)
 .debug_frame   0x0000000000000574       0x8c d:/mounriver/mounriver_studio/toolchain/risc-v embedded gcc/bin/../lib/gcc/riscv-none-embed/8.2.0/../../../../riscv-none-embed/lib\libc_nano.a(lib_a-nano-vfprintf_i.o)
 .debug_frame   0x0000000000000600       0x30 d:/mounriver/mounriver_studio/toolchain/risc-v embedded gcc/bin/../lib/gcc/riscv-none-embed/8.2.0/../../../../riscv-none-embed/lib\libc_nano.a(lib_a-sbrkr.o)
 .debug_frame   0x0000000000000630       0xa4 d:/mounriver/mounriver_studio/toolchain/risc-v embedded gcc/bin/../lib/gcc/riscv-none-embed/8.2.0/../../../../riscv-none-embed/lib\libc_nano.a(lib_a-stdio.o)
 .debug_frame   0x00000000000006d4       0x30 d:/mounriver/mounriver_studio/toolchain/risc-v embedded gcc/bin/../lib/gcc/riscv-none-embed/8.2.0/../../../../riscv-none-embed/lib\libc_nano.a(lib_a-writer.o)
 .debug_frame   0x0000000000000704       0x30 d:/mounriver/mounriver_studio/toolchain/risc-v embedded gcc/bin/../lib/gcc/riscv-none-embed/8.2.0/../../../../riscv-none-embed/lib\libc_nano.a(lib_a-closer.o)
 .debug_frame   0x0000000000000734       0x30 d:/mounriver/mounriver_studio/toolchain/risc-v embedded gcc/bin/../lib/gcc/riscv-none-embed/8.2.0/../../../../riscv-none-embed/lib\libc_nano.a(lib_a-fstatr.o)
 .debug_frame   0x0000000000000764       0x30 d:/mounriver/mounriver_studio/toolchain/risc-v embedded gcc/bin/../lib/gcc/riscv-none-embed/8.2.0/../../../../riscv-none-embed/lib\libc_nano.a(lib_a-isattyr.o)
 .debug_frame   0x0000000000000794       0x30 d:/mounriver/mounriver_studio/toolchain/risc-v embedded gcc/bin/../lib/gcc/riscv-none-embed/8.2.0/../../../../riscv-none-embed/lib\libc_nano.a(lib_a-lseekr.o)
 .debug_frame   0x00000000000007c4       0x20 d:/mounriver/mounriver_studio/toolchain/risc-v embedded gcc/bin/../lib/gcc/riscv-none-embed/8.2.0/../../../../riscv-none-embed/lib\libc_nano.a(lib_a-memchr.o)
 .debug_frame   0x00000000000007e4       0x30 d:/mounriver/mounriver_studio/toolchain/risc-v embedded gcc/bin/../lib/gcc/riscv-none-embed/8.2.0/../../../../riscv-none-embed/lib\libc_nano.a(lib_a-mlock.o)
 .debug_frame   0x0000000000000814       0x30 d:/mounriver/mounriver_studio/toolchain/risc-v embedded gcc/bin/../lib/gcc/riscv-none-embed/8.2.0/../../../../riscv-none-embed/lib\libc_nano.a(lib_a-readr.o)
 .debug_frame   0x0000000000000844       0x70 d:/mounriver/mounriver_studio/toolchain/risc-v embedded gcc/bin/../lib/gcc/riscv-none-embed/8.2.0/../../../../riscv-none-embed/lib\libc_nano.a(lib_a-reent.o)
 .debug_frame   0x00000000000008b4       0x20 d:/mounriver/mounriver_studio/toolchain/risc-v embedded gcc/bin/../lib/gcc/riscv-none-embed/8.2.0/../../../../riscv-none-embed/lib\libnosys.a(close.o)
 .debug_frame   0x00000000000008d4       0x20 d:/mounriver/mounriver_studio/toolchain/risc-v embedded gcc/bin/../lib/gcc/riscv-none-embed/8.2.0/../../../../riscv-none-embed/lib\libnosys.a(fstat.o)
 .debug_frame   0x00000000000008f4       0x20 d:/mounriver/mounriver_studio/toolchain/risc-v embedded gcc/bin/../lib/gcc/riscv-none-embed/8.2.0/../../../../riscv-none-embed/lib\libnosys.a(isatty.o)
 .debug_frame   0x0000000000000914       0x20 d:/mounriver/mounriver_studio/toolchain/risc-v embedded gcc/bin/../lib/gcc/riscv-none-embed/8.2.0/../../../../riscv-none-embed/lib\libnosys.a(lseek.o)
 .debug_frame   0x0000000000000934       0x20 d:/mounriver/mounriver_studio/toolchain/risc-v embedded gcc/bin/../lib/gcc/riscv-none-embed/8.2.0/../../../../riscv-none-embed/lib\libnosys.a(read.o)
 .debug_frame   0x0000000000000954       0x20 d:/mounriver/mounriver_studio/toolchain/risc-v embedded gcc/bin/../lib/gcc/riscv-none-embed/8.2.0/../../../../riscv-none-embed/lib\libnosys.a(sbrk.o)

.stab           0x0000000000000000       0x84
 .stab          0x0000000000000000       0x24 d:/mounriver/mounriver_studio/toolchain/risc-v embedded gcc/bin/../lib/gcc/riscv-none-embed/8.2.0/../../../../riscv-none-embed/lib\libnosys.a(close.o)
 .stab          0x0000000000000024       0x18 d:/mounriver/mounriver_studio/toolchain/risc-v embedded gcc/bin/../lib/gcc/riscv-none-embed/8.2.0/../../../../riscv-none-embed/lib\libnosys.a(fstat.o)
                                         0x24 (size before relaxing)
 .stab          0x000000000000003c       0x18 d:/mounriver/mounriver_studio/toolchain/risc-v embedded gcc/bin/../lib/gcc/riscv-none-embed/8.2.0/../../../../riscv-none-embed/lib\libnosys.a(isatty.o)
                                         0x24 (size before relaxing)
 .stab          0x0000000000000054       0x18 d:/mounriver/mounriver_studio/toolchain/risc-v embedded gcc/bin/../lib/gcc/riscv-none-embed/8.2.0/../../../../riscv-none-embed/lib\libnosys.a(lseek.o)
                                         0x24 (size before relaxing)
 .stab          0x000000000000006c       0x18 d:/mounriver/mounriver_studio/toolchain/risc-v embedded gcc/bin/../lib/gcc/riscv-none-embed/8.2.0/../../../../riscv-none-embed/lib\libnosys.a(read.o)
                                         0x24 (size before relaxing)

.stabstr        0x0000000000000000      0x117
 .stabstr       0x0000000000000000      0x117 d:/mounriver/mounriver_studio/toolchain/risc-v embedded gcc/bin/../lib/gcc/riscv-none-embed/8.2.0/../../../../riscv-none-embed/lib\libnosys.a(close.o)
