
8_uart_server.elf:     file format elf32-littleriscv
8_uart_server.elf
architecture: riscv:rv32, flags 0x00000112:
EXEC_P, HAS_SYMS, D_PAGED
start address 0x00000000

Program Header:
    LOAD off    0x00001000 vaddr 0x00000000 paddr 0x00000000 align 2**12
         filesz 0x0000a240 memsz 0x0000a240 flags r-x
    LOAD off    0x0000c000 vaddr 0x20000000 paddr 0x0000a240 align 2**12
         filesz 0x000000d8 memsz 0x0001ded0 flags rw-
    LOAD off    0x0000c800 vaddr 0x2001f800 paddr 0x2001f800 align 2**12
         filesz 0x00000000 memsz 0x00000800 flags rw-

Sections:
Idx Name          Size      VMA       LMA       File off  Algn  Flags
  0 .init         00000038  00000000  00000000  00001000  2**1  CONTENTS, ALLOC, LOAD, READONLY, CODE
  1 .vector       000001c8  00000038  00000038  00001038  2**1  CONTENTS, ALLOC, LOAD, READONLY, CODE
  2 .text         0000a040  00000200  00000200  00001200  2**2  CONTENTS, ALLOC, LOAD, READONLY, CODE
  3 .fini         00000000  0000a240  0000a240  0000c0d8  2**0  CONTENTS, ALLOC, LOAD, CODE
  4 .dalign       00000000  20000000  20000000  0000c0d8  2**0  CONTENTS
  5 .dlalign      00000000  0000a240  0000a240  0000c0d8  2**0  CONTENTS
  6 .data         000000d8  20000000  0000a240  0000c000  2**2  CONTENTS, ALLOC, LOAD, DATA
  7 .bss          0001ddf8  200000d8  0000a318  0000c0d8  2**2  ALLOC
  8 .stack        00000800  2001f800  2001f800  0000c800  2**0  ALLOC
  9 .comment      00000033  00000000  00000000  0000c0d8  2**0  CONTENTS, READONLY
 10 .debug_frame  00000974  00000000  00000000  0000c10c  2**2  CONTENTS, READONLY, DEBUGGING
 11 .stab         00000084  00000000  00000000  0000ca80  2**2  CONTENTS, READONLY, DEBUGGING
 12 .stabstr      00000117  00000000  00000000  0000cb04  2**0  CONTENTS, READONLY, DEBUGGING
SYMBOL TABLE:
00000000 l    d  .init	00000000 .init
00000038 l    d  .vector	00000000 .vector
00000200 l    d  .text	00000000 .text
0000a240 l    d  .fini	00000000 .fini
20000000 l    d  .dalign	00000000 .dalign
0000a240 l    d  .dlalign	00000000 .dlalign
20000000 l    d  .data	00000000 .data
200000d8 l    d  .bss	00000000 .bss
2001f800 l    d  .stack	00000000 .stack
00000000 l    d  .comment	00000000 .comment
00000000 l    d  .debug_frame	00000000 .debug_frame
00000000 l    d  .stab	00000000 .stab
00000000 l    d  .stabstr	00000000 .stabstr
00000000 l    df *ABS*	00000000 ./Startup/startup_ch32v30x.o
00000038 l       .vector	00000000 _vector_base
00000000 l    df *ABS*	00000000 bsp_uart.c
00000000 l    df *ABS*	00000000 ch32v30x_it.c
00000000 l    df *ABS*	00000000 main.c
00000000 l    df *ABS*	00000000 system_ch32v30x.c
00000000 l    df *ABS*	00000000 ch32v30x_dma.c
00000000 l    df *ABS*	00000000 ch32v30x_eth.c
00000000 l    df *ABS*	00000000 ch32v30x_gpio.c
00000000 l    df *ABS*	00000000 ch32v30x_misc.c
00000000 l    df *ABS*	00000000 ch32v30x_rcc.c
20000000 l     O .data	00000010 APBAHBPrescTable
20000090 l     O .data	00000004 ADCPrescTable
00000000 l    df *ABS*	00000000 ch32v30x_tim.c
00000000 l    df *ABS*	00000000 ch32v30x_usart.c
00000000 l    df *ABS*	00000000 debug.c
200000f0 l     O .bss	00000002 p_ms
200000f2 l     O .bss	00000001 p_us
00000000 l    df *ABS*	00000000 core_riscv.c
00000000 l    df *ABS*	00000000 ethernetif.c
00001f7e l     F .text	000000ac low_level_output
20000114 l     O .bss	00000001 MacRevcNull
00000000 l    df *ABS*	00000000 inet.c
00000000 l    df *ABS*	00000000 ip_frag.c
20000130 l     O .bss	00000002 ip_reass_pbufcount
20000134 l     O .bss	00000004 reassdatagrams
00000000 l    df *ABS*	00000000 init.c
00000000 l    df *ABS*	00000000 mem.c
20000138 l     O .bss	00000004 lfree
2000013c l     O .bss	00000004 ram
20000140 l     O .bss	00000004 ram_end
00000000 l    df *ABS*	00000000 memp.c
2001de14 l     O .bss	00000020 memp_tab
00000000 l    df *ABS*	00000000 netif.c
2000014c l     O .bss	00000001 netifnum.6387
00000000 l    df *ABS*	00000000 pbuf.c
00000000 l    df *ABS*	00000000 tcp.c
00003226 l     F .text	0000005c tcp_new_port
20000160 l     O .bss	00000001 tcp_timer
2000009c l     O .data	00000004 iss.6791
200000a0 l     O .data	00000002 port.6623
00000000 l    df *ABS*	00000000 tcp_out.c
00003c7c l     F .text	000000cc tcp_output_set_header.isra.0.constprop.1
00000000 l    df *ABS*	00000000 eth_driver.c
00000000 l    df *ABS*	00000000 ipcheck.c
00000000 l    df *ABS*	00000000 socket.c
00000000 l    df *ABS*	00000000 etharp.c
00005de2 l     F .text	0000017e find_entry
00005f60 l     F .text	000000ae update_arp_entry
2000017c l     O .bss	00000001 etharp_cached_entry
00000000 l    df *ABS*	00000000 icmp.c
00006554 l     F .text	00000076 icmp_send_response.isra.0
00000000 l    df *ABS*	00000000 inet_chksum.c
00006840 l     F .text	0000007e lwip_standard_chksum
00000000 l    df *ABS*	00000000 ip.c
20000188 l     O .bss	00000002 ip_id.6659
00000000 l    df *ABS*	00000000 ip_addr.c
00000000 l    df *ABS*	00000000 raw.c
2000018c l     O .bss	00000004 raw_pcbs
00000000 l    df *ABS*	00000000 tcp_in.c
0000707c l     F .text	000000ce tcp_oos_insert_segment
0000714a l     F .text	000008e4 tcp_receive
00007a2e l     F .text	000000a6 tcp_parseopt.isra.0
2001deb8 l     O .bss	00000014 inseg
20000190 l     O .bss	00000004 ackno
20000194 l     O .bss	00000001 flags
20000198 l     O .bss	00000004 iphdr
2000019c l     O .bss	00000004 recv_data
200001a0 l     O .bss	00000001 recv_flags
200001a4 l     O .bss	00000004 seqno
200001ac l     O .bss	00000004 tcphdr
200001b0 l     O .bss	00000002 tcplen
00000000 l    df *ABS*	00000000 udp.c
00000000 l    df *ABS*	00000000 wchnet_dhcp.c
00008922 l     F .text	0000000e dhcp_set_state
00008930 l     F .text	00000020 dhcp_option
00008950 l     F .text	00000012 dhcp_option_byte
00008962 l     F .text	00000048 dhcp_option_long
000089aa l     F .text	00000034 dhcp_option_trailer
000089de l     F .text	0000017e dhcp_create_request
00008b5c l     F .text	00000020 dhcp_delete_request
200000a8 l     O .data	00000004 xid.6638
00000000 l    df *ABS*	00000000 memcpy.c
00000000 l    df *ABS*	00000000 printf.c
00000000 l    df *ABS*	00000000 puts.c
00000000 l    df *ABS*	00000000 strcpy.c
00000000 l    df *ABS*	00000000 wbuf.c
00000000 l    df *ABS*	00000000 wsetup.c
00000000 l    df *ABS*	00000000 fflush.c
00000000 l    df *ABS*	00000000 findfp.c
0000925c l     F .text	0000006a std
00000000 l    df *ABS*	00000000 fwalk.c
00000000 l    df *ABS*	00000000 makebuf.c
00000000 l    df *ABS*	00000000 nano-mallocr.c
00000000 l    df *ABS*	00000000 nano-mallocr.c
00000000 l    df *ABS*	00000000 nano-vfprintf.c
00009704 l     F .text	0000002a __sfputc_r
00000000 l    df *ABS*	00000000 nano-vfprintf_i.c
00000000 l    df *ABS*	00000000 sbrkr.c
00000000 l    df *ABS*	00000000 stdio.c
00000000 l    df *ABS*	00000000 writer.c
00000000 l    df *ABS*	00000000 closer.c
00000000 l    df *ABS*	00000000 fstatr.c
00000000 l    df *ABS*	00000000 isattyr.c
00000000 l    df *ABS*	00000000 lseekr.c
00000000 l    df *ABS*	00000000 memchr.c
00000000 l    df *ABS*	00000000 mlock.c
00000000 l    df *ABS*	00000000 readr.c
00000000 l    df *ABS*	00000000 close.c
00000000 l    df *ABS*	00000000 fstat.c
00000000 l    df *ABS*	00000000 isatty.c
00000000 l    df *ABS*	00000000 lseek.c
00000000 l    df *ABS*	00000000 read.c
00000000 l    df *ABS*	00000000 sbrk.c
200001c0 l     O .bss	00000004 heap_end.1518
00000000 l    df *ABS*	00000000 impure.c
20000010 l     O .data	00000060 impure_data
00000000 l    df *ABS*	00000000 reent.c
00001398  w      .text	00000000 EXTI2_IRQHandler
000069b6 g     F .text	00000014 inet_chksum
00000f86 g     F .text	0000003c WCHNET_HandleGlobalInt
000013e2  w      .text	00000000 TIM8_TRG_COM_IRQHandler
00006f7c g     F .text	0000001e raw_bind
00002564 g     F .text	000003d2 ip_reass
000013e4  w      .text	00000000 TIM8_CC_IRQHandler
000030ea g     F .text	00000058 pbuf_realloc
00009f40 g     F .text	00000030 _isatty_r
00008edc g     F .text	00000012 strcpy
20000088 g     O .data	00000002 srcport
00003a10 g     F .text	00000010 tcp_next_iss
00008df6 g     F .text	000000da _puts_r
00003396 g     F .text	00000044 tcp_update_rcv_ann_wnd
0000193c g     F .text	00000010 ETH_FlushTransmitFIFO
00009f70 g     F .text	00000034 _lseek_r
0000166a g     F .text	00000014 DMA_Cmd
00001cee g     F .text	0000001e RCC_AHBPeriphResetCmd
20000148 g     O .bss	00000004 netif_list
0000141a  w      .text	00000000 UART8_IRQHandler
20000124 g     O .bss	00000004 WCHIPAddr
00004594 g     F .text	00000108 tcp_rst
2000011c g     O .bss	00000004 TCPTimer
000061f6 g     F .text	000000d8 etharp_request
20000178 g     O .bss	00000004 tcppackt
00008db6 g     F .text	00000040 printf
20000870 g       .data	00000000 __global_pointer$
00000208 g     F .text	00000028 .hidden __riscv_save_8
000016ee g     F .text	0000000a DMA_GetITStatus
20006874 g     O .bss	0000000a UART5_TX_Buf_Length
0000349e g     F .text	00000006 tcp_err
200000c8 g     O .data	00000004 ip_addr_any
000013be  w      .text	00000000 TIM1_CC_IRQHandler
000068be g     F .text	000000f8 inet_chksum_pseudo
00001716 g     F .text	000000d8 ETH_StructInit
00009e6c g     F .text	00000036 __sseek
00009316 g     F .text	0000006c __sinit
00004188 g     F .text	00000016 tcp_send_ctrl
00008eee g     F .text	000000c0 __swbuf_r
00000b6e g     F .text	00000044 HardFault_Handler
00006d38 g     F .text	0000015c ip_output_if
000092d0 g     F .text	00000046 __sfmoreglue
00002d90 g     F .text	00000018 memp_free
00009fc0 g     F .text	00000002 __malloc_unlock
00002f5e g     F .text	0000004e pbuf_free
00005b3e g     F .text	00000014 WCHNET_GetGlobalInt
00000254 g     F .text	0000000c .hidden __riscv_restore_3
00003492 g     F .text	00000006 tcp_recv
000013f4  w      .text	00000000 TIM6_IRQHandler
00004a42 g     F .text	00000166 ETH_Init
00001384  w      .text	00000000 SysTick_Handler
0000315e g     F .text	0000001c pbuf_cat
2000217c g     O .bss	00000fa0 UART2_TX_DMA_DataBuf
00001c72 g     F .text	00000008 RCC_MCOConfig
00001a6c g     F .text	000000a6 NVIC_Init
0000138a  w      .text	00000000 PVD_IRQHandler
000013ea  w      .text	00000000 SDIO_IRQHandler
00006e94 g     F .text	00000036 ip_output
0000141c  w      .text	00000000 TIM9_BRK_IRQHandler
00000240 g     F .text	00000020 .hidden __riscv_restore_10
0000883a g     F .text	0000002e udp_sendto
20000174 g     O .bss	00000004 phydatatime
00000d20 g     F .text	00000046 DMA2_Channel8_IRQHandler
00000b6a g     F .text	00000004 NMI_Handler
000047a6 g     F .text	0000005e tcp_keepalive
0000140a  w      .text	00000000 CAN2_RX1_IRQHandler
0000139a  w      .text	00000000 EXTI3_IRQHandler
000051e4 g     F .text	000000fc WCHNET_Init
0000600e g     F .text	0000004e etharp_tmr
00000208 g     F .text	00000028 .hidden __riscv_save_11
00003a20 g     F .text	00000138 tcp_alloc
0000202a g     F .text	0000007a low_level_init
0000a0f8 g     O .text	00000010 MemSize
00008762 g     F .text	000000d8 udp_sendto_if
00005340 g     F .text	000000b0 WCHNET_ETHIsr
2000802c g     O .bss	00000fa0 UART6_TX_DMA_DataBuf
0000348e g     F .text	00000004 tcp_arg
00001412  w      .text	00000000 USBHS_IRQHandler
00001386  w      .text	00000000 SW_handler
00006094 g     F .text	00000162 etharp_arp_input
20000150 g     O .bss	00000004 tcp_active_pcbs
00001ed6 g     F .text	0000000a USART_GetFlagStatus
00001432  w      .text	00000000 DMA2_Channel9_IRQHandler
00009f0e g     F .text	00000032 _fstat_r
200001b4 g     O .bss	00000004 udp_pcbs
0000142a  w      .text	00000000 TIM10_CC_IRQHandler
2001decc g     O .bss	00000004 errno
20000080 g     O .data	00000006 MACAddr
000064fa g     F .text	0000005a ethernet_input
200000d8 g       .bss	00000000 _sbss
00000800 g       *ABS*	00000000 __stack_size
00003154 g     F .text	0000000a pbuf_ref
00005cec g     F .text	00000056 WCHNET_SocketSend
000038c4 g     F .text	00000030 tcp_recv_null
00001632 g     F .text	00000038 DMA_Init
20000184 g     O .bss	00000004 current_netif
2000311c g     O .bss	00000800 UART3_RX_DMA_DataBuf
00003812 g     F .text	000000b2 tcp_close
2001de34 g     O .bss	0000000c SelARP
000033da g     F .text	00000046 tcp_recved
00000f10 g     F .text	00000076 WCHNET_HandleSockInt
00000254 g     F .text	0000000c .hidden __riscv_restore_2
000034ae g     F .text	0000004c tcp_pcb_purge
200000b0 g     O .data	00000007 tcp_persist_backoff
00001702 g     F .text	00000014 ETH_DeInit
00008d00 g     F .text	000000b6 memcpy
00002b02 g     F .text	00000084 mem_free
2000015c g     O .bss	00000004 tcp_ticks
20000158 g     O .bss	00000004 tcp_listen_pcbs
0000469c g     F .text	00000034 tcp_rexmit_rto
000092c6 g     F .text	0000000a _cleanup_r
00006eca g     F .text	0000004a ip_addr_isbroadcast
200000e4 g     O .bss	00000004 DMARxDescToGet
00003b58 g     F .text	00000010 tcp_new
00001394  w      .text	00000000 EXTI0_IRQHandler
000013ca  w      .text	00000000 I2C2_EV_IRQHandler
00001428  w      .text	00000000 TIM10_TRG_COM_IRQHandler
00004d4c g     F .text	00000042 IPCheckTmr
00001db6 g     F .text	00000018 TIM_Cmd
00008ed0 g     F .text	0000000c puts
00005300 g     F .text	00000040 PhyDataLed_fun
20000120 g     O .bss	00000004 WCHGWIPAddr
00000308 g     F .text	0000013e UART_GPIO_Init
2001dcac g     O .bss	00000018 DHCPCtrl
2000008c g     O .data	00000004 SystemCoreClock
2000af78 g     O .bss	0000000a UART8_TX_Buf_Length
0000703c g     F .text	00000010 raw_send
00000df0 g     F .text	00000046 SET_MCO
000069ca g     F .text	0000006a inet_chksum_pbuf
0000a006 g     F .text	00000010 _fstat
000065ca g     F .text	0000024e icmp_input
00000038 g       .init	00000000 _einit
2001dcc4 g     O .bss	000000d0 RxCtrl
00001de0 g     F .text	0000000c TIM_ClearITPendingBit
2000a778 g     O .bss	00000800 UART8_RX_DMA_DataBuf
00002e8a g     F .text	00000058 netif_add
00001c36 g     F .text	0000001e RCC_APB2PeriphClockCmd
00000200 g     F .text	00000030 .hidden __riscv_save_12
0000344a g     F .text	0000001c tcp_segs_free
00005b0a g     F .text	00000034 WCHNET_QueryGlobalInt
0000140c  w      .text	00000000 CAN2_SCE_IRQHandler
000013ac  w      .text	00000000 ADC1_2_IRQHandler
000019a4 g     F .text	000000c0 GPIO_Init
00001382  w      .text	00000000 Break_Point_Handler
00002da8 g     F .text	00000096 netif_set_ipaddr
00000240 g     F .text	00000020 .hidden __riscv_restore_11
200000ec g     O .bss	00000004 NVIC_Priority_Group
000013ce  w      .text	00000000 SPI1_IRQHandler
00001ea6 g     F .text	00000016 USART_Cmd
00005b52 g     F .text	00000024 WCHNET_GetSocketInt
00009dbe g     F .text	00000030 _sbrk_r
0000419e g     F .text	00000030 tcp_write
0000138c  w      .text	00000000 TAMPER_IRQHandler
00000230 g     F .text	0000000c .hidden __riscv_save_1
00004de0 g     F .text	00000002 CH563TCPError
2001de90 g     O .bss	00000014 WCHCfg
00000254 g     F .text	0000000c .hidden __riscv_restore_0
00009fc2 g     F .text	00000034 _read_r
20003928 g     O .bss	00000fa0 UART3_TX_DMA_DataBuf
00000216 g     F .text	0000001a .hidden __riscv_save_7
00001408  w      .text	00000000 CAN2_RX0_IRQHandler
00003282 g     F .text	00000114 tcp_bind
0000682c g     F .text	00000014 icmp_time_exceeded
000016f8 g     F .text	0000000a DMA_ClearITPendingBit
2000c164 g     O .bss	00003b60 MACRxBuf
000013e0  w      .text	00000000 TIM8_UP_IRQHandler
00002936 g     F .text	00000176 ip_frag
00001c54 g     F .text	0000001e RCC_APB1PeriphClockCmd
0000564e g     F .text	000001d4 WCHNET_SocketRecv
0000137e  w      .text	00000000 Ecall_M_Mode_Handler
20006880 g     O .bss	00000fa0 UART5_TX_DMA_DataBuf
2001dde0 g     O .bss	00000032 dhcp_host_name
00006fbe g     F .text	0000007e raw_sendto
0000a016 g     F .text	00000010 _isatty
000020da g     F .text	00000016 WCHNET_SetHostname
200000d0 g     O .data	00000004 _global_impure_ptr
0000024a g     F .text	00000016 .hidden __riscv_restore_5
200000d8 g     O .bss	00000008 SocketId
200097cc g     O .bss	0000000a UART7_TX_Buf_Length
000013fa  w      .text	00000000 DMA2_Channel2_IRQHandler
00001c18 g     F .text	0000001e RCC_AHBPeriphClockCmd
00000bce g     F .text	00000032 DMA1_Channel4_IRQHandler
0000a046 g     F .text	00000024 _sbrk
0000318a g     F .text	0000009c pbuf_copy
000046d0 g     F .text	00000078 tcp_rexmit
00005b76 g     F .text	0000002a CH563IPSetSocketRecvInit
00004e1e g     F .text	00000004 LwipTCPPollCallBack
200048c8 g     O .bss	00000800 UART4_RX_DMA_DataBuf
200000e8 g     O .bss	00000004 DMATxDescToSet
2000007c g     O .data	00000004 IPMask
0000141e  w      .text	00000000 TIM9_UP_IRQHandler
00001690 g     F .text	00000032 DMA_GetFlagStatus
0000024a g     F .text	00000016 .hidden __riscv_restore_6
000013d6  w      .text	00000000 USART3_IRQHandler
0000138e  w      .text	00000000 RTC_IRQHandler
20000164 g     O .bss	00000004 tcp_tmp_pcb
2001ded0 g       .bss	00000000 _ebss
20013964 g     O .bss	00001214 Mem_Heap_Memory
00000c00 g     F .text	0000003a DMA1_Channel7_IRQHandler
200000fc g     O .bss	00000004 DHCPcoarseTimer
20008020 g     O .bss	0000000a UART6_TX_Buf_Length
000013b2  w      .text	00000000 CAN1_RX1_IRQHandler
00004c46 g     F .text	000000b0 Ethernet_Configuration
00001ee0 g     F .text	00000026 Delay_Init
00002ac4 g     F .text	0000003e mem_init
00001934 g     F .text	00000008 ETH_DMAClearITPendingBit
00001414  w      .text	00000000 DVP_IRQHandler
000013f2  w      .text	00000000 UART5_IRQHandler
00001c7a g     F .text	0000002e RCC_GetFlagStatus
0000423a g     F .text	0000035a tcp_output
00001a64 g     F .text	00000004 GPIO_SetBits
000013c4  w      .text	00000000 TIM4_IRQHandler
200001a8 g     O .bss	00000004 tcp_input_pcb
00006f14 g     F .text	00000068 raw_input
000041ce g     F .text	0000006c tcp_send_empty_ack
00000208 g     F .text	00000028 .hidden __riscv_save_9
00000fc2 g     F .text	0000016c uart_tx
00004748 g     F .text	0000005e tcp_rexmit_fast
000013f8  w      .text	00000000 DMA2_Channel1_IRQHandler
20014b78 g     O .bss	00002b53 Memp_Memory
0000197e g     F .text	0000001e ETH_DMAITConfig
00002474 g     F .text	0000000a ntohl
00001926 g     F .text	0000000e ETH_SoftwareReset
0000a1a4 g     O .text	00000020 __sf_fake_stderr
00000216 g     F .text	0000001a .hidden __riscv_save_4
00005198 g     F .text	0000004c WCHSocketInit
00002ee2 g     F .text	00000006 netif_set_default
00001846 g     F .text	00000052 ETH_WritePHYRegister
000088f8 g     F .text	00000006 udp_recv
2001ded0 g       .bss	00000000 end
20000108 g     O .bss	00000001 DataLED
000013c6  w      .text	00000000 I2C1_EV_IRQHandler
00004db2 g     F .text	0000002e IPConflictHandle
00002fac g     F .text	0000013e pbuf_alloc
00004d14 g     F .text	00000038 SelIPARPSend
00004bf6 g     F .text	00000028 Ethernet_LED_LINKSET
00005a04 g     F .text	00000062 WCHScokedIntHandle
0000517a g     F .text	0000001e MemShortCopy
00001b12 g     F .text	00000106 RCC_GetClocksFreq
000013a8  w      .text	00000000 DMA1_Channel6_IRQHandler
0000972e g     F .text	00000044 __sfputs_r
00000e9c g     F .text	00000074 WCHNET_CreatTcpSocket
000013f0  w      .text	00000000 UART4_IRQHandler
00000cac g     F .text	0000003a DMA2_Channel4_IRQHandler
00009fa4 g     F .text	0000001a memchr
200000cc g     O .data	00000004 ip_addr_broadcast
0000247e g     F .text	000000e6 ip_reass_tmr
00001dec g     F .text	000000ba USART_Init
20000098 g     O .data	00000004 memp_sizes
00009588 g     F .text	000000a8 _free_r
000013c2  w      .text	00000000 TIM3_IRQHandler
00001392  w      .text	00000000 RCC_IRQHandler
2000c0c4 g     O .bss	000000a0 DMATxDscrTab
00000230 g     F .text	0000000c .hidden __riscv_save_3
0000887a g     F .text	0000007e udp_connect
000013bc  w      .text	00000000 TIM1_TRG_COM_IRQHandler
20000180 g     O .bss	00000004 current_header
0000a148 g     O .text	00000010 ErrTable
0000139e  w      .text	00000000 DMA1_Channel1_IRQHandler
00002e3e g     F .text	0000004c netif_set_addr
00008b7c g     F .text	00000184 dhcp_arp_reply
00000000 g       .init	00000000 _start
0000142e  w      .text	00000000 DMA2_Channel7_IRQHandler
20000128 g     O .bss	00000004 WCHIPMask
20001970 g     O .bss	00000800 UART2_RX_DMA_DataBuf
0000a026 g     F .text	00000010 _lseek
20007820 g     O .bss	00000800 UART6_RX_DMA_DataBuf
00002d70 g     F .text	00000020 memp_malloc
00004804 g     F .text	000000d0 tcp_zero_window_probe
200000f8 g     O .bss	00000004 DHCPTestTimer
000013d8  w      .text	00000000 EXTI15_10_IRQHandler
00001dce g     F .text	00000012 TIM_ITConfig
2001de40 g     O .bss	0000000c KeepLiveCfg
200009d0 g     O .bss	00000fa0 UART1_TX_DMA_DataBuf
00005458 g     F .text	000001ce WCHNET_SocketCreat
2001dda8 g     O .bss	00000038 WCHNetIf
0000112e g     F .text	000000ea uart_rx
20000154 g     O .bss	00000004 tcp_bound_pcbs
00002450 g     F .text	00000024 htonl
00003420 g     F .text	0000002a tcp_seg_free
20002170 g     O .bss	0000000a UART2_TX_Buf_Length
00005a66 g     F .text	000000a4 LwipRemoveTcpPcb
00002334 g     F .text	00000100 LwIPPeriodicHandle
00001a68 g     F .text	00000004 GPIO_ResetBits
00001f72 g     F .text	00000006 __get_MCAUSE
000048f4 g     F .text	000000e4 ETH_RxPkt_Handle
00004a10 g     F .text	00000032 mac_send
000013f6  w      .text	00000000 TIM7_IRQHandler
00003b96 g     F .text	000000e6 tcp_connect
00009ede g     F .text	00000030 _close_r
00002c50 g     F .text	000000d0 mem_malloc
00001406  w      .text	00000000 CAN2_TX_IRQHandler
000049d8 g     F .text	00000038 ETH_TxPkt_ChainMode
20000000 g       .dalign	00000000 _data_vma
200097d8 g     O .bss	00000fa0 UART7_TX_DMA_DataBuf
000013ec  w      .text	00000000 TIM5_IRQHandler
000018da g     F .text	0000004c ETH_DMARxDescChainInit
00008fae g     F .text	0000010c __swsetup_r
000017ee g     F .text	00000058 ETH_ReadPHYRegister
000013b6  w      .text	00000000 EXTI9_5_IRQHandler
00009382 g     F .text	000000a0 __sfp
00003d48 g     F .text	00000440 tcp_enqueue
00003b68 g     F .text	0000002e tcp_eff_send_mss
000053fc g     F .text	0000005c WCHFindCorrectTCBPcb
20008fcc g     O .bss	00000800 UART7_RX_DMA_DataBuf
200000e0 g     O .bss	00000001 tcp_connect_num
00000208 g     F .text	00000028 .hidden __riscv_save_10
00009dee g     F .text	00000030 __sread
00001ca8 g     F .text	00000010 RCC_PREDIV2Config
00004fe0 g     F .text	0000013e WCHSocketTCPReceive
00001404  w      .text	00000000 ETH_WKUP_IRQHandler
00009fbe g     F .text	00000002 __malloc_lock
0000024a g     F .text	00000016 .hidden __riscv_restore_4
00001f78 g     F .text	00000006 __get_MTVAL
00000240 g     F .text	00000020 .hidden __riscv_restore_8
00001f6c g     F .text	00000006 __get_MEPC
000091f6 g     F .text	00000066 _fflush_r
00000216 g     F .text	0000001a .hidden __riscv_save_6
00006f9a g     F .text	0000001e raw_connect
000013d0  w      .text	00000000 SPI2_IRQHandler
0000a1c4 g     O .text	00000020 __sf_fake_stdin
200050d4 g     O .bss	00000fa0 UART4_TX_DMA_DataBuf
20000070 g     O .data	00000004 DESIP
00000260 g     F .text	000000a8 memset
00000240 g     F .text	00000020 .hidden __riscv_restore_9
0000024a g     F .text	00000016 .hidden __riscv_restore_7
00001218 g     F .text	0000006e main
00004c1e g     F .text	00000028 Ethernet_LED_DATASET
20000110 g     O .bss	00000004 LocalTime
20000094 g     O .data	00000004 memp_num
00001424  w      .text	00000000 TIM10_BRK_IRQHandler
20000074 g     O .data	00000004 GWIPAddr
00001422  w      .text	00000000 TIM9_CC_IRQHandler
00006818 g     F .text	00000014 icmp_dest_unreach
00004e22 g     F .text	000000c2 SocketIPRAWReceive
00003498 g     F .text	00000006 tcp_sent
00002ee8 g     F .text	00000008 netif_is_up
00009ea2 g     F .text	00000006 __sclose
00000c72 g     F .text	0000003a DMA2_Channel5_IRQHandler
00002442 g     F .text	0000000e ntohs
00009630 g     F .text	000000d4 _malloc_r
0000704c g     F .text	00000030 raw_new
2000010c g     O .bss	00000004 IPFragTimer
000020f0 g     F .text	0000018c ethernetif_input
000013a6  w      .text	00000000 DMA1_Channel5_IRQHandler
0000139c  w      .text	00000000 EXTI4_IRQHandler
00001f06 g     F .text	0000002c Delay_Ms
000013b0  w      .text	00000000 USB_LP_CAN1_RX0_IRQHandler
2001dea4 g     O .bss	00000014 DNSInf
00005934 g     F .text	000000d0 SocketUdpSend
00000dac g     F .text	00000044 WCHNET_LibInit
000086c8 g     F .text	0000009a udp_bind
00003956 g     F .text	00000022 tcp_tmr
000062ce g     F .text	000000e4 etharp_query
00005ba0 g     F .text	00000032 WCHNET_MainTask
00002aac g     F .text	00000018 lwip_init
000063b2 g     F .text	00000148 etharp_output
20006074 g     O .bss	00000800 UART5_RX_DMA_DataBuf
00001286 g     F .text	000000f4 SystemInit
000013e6  w      .text	00000000 RNG_IRQHandler
2000c024 g     O .bss	000000a0 DMARxDscrTab
00008db6 g     F .text	00000040 iprintf
00005bd2 g     F .text	0000011a SocketTcpSend
000013ae  w      .text	00000000 USB_HP_CAN1_TX_IRQHandler
00003142 g     F .text	00000012 pbuf_clen
00000000 g       .init	00000000 _sinit
00009ea8 g     F .text	00000036 _write_r
00005160 g     F .text	0000001a ErrorEncode
00008868 g     F .text	00000012 udp_send
000013a2  w      .text	00000000 DMA1_Channel3_IRQHandler
00006fb8 g     F .text	00000006 raw_recv
000013e8  w      .text	00000000 FSMC_IRQHandler
0000a0e8 g     O .text	00000010 MemNum
00000bb2 g     F .text	00000008 ETH_IRQHandler
00009a0e g     F .text	0000010c _printf_common
200000ac g     O .data	00000004 _impure_ptr
000013ba  w      .text	00000000 TIM1_UP_IRQHandler
000034fa g     F .text	00000274 tcp_slowtmr
000090ba g     F .text	0000013c __sflush_r
20000078 g     O .data	00000004 IPAddr
00001388  w      .text	00000000 WWDG_IRQHandler
00001410  w      .text	00000000 USBHSWakeup_IRQHandler
00001436  w      .text	00000000 DMA2_Channel11_IRQHandler
0000194c g     F .text	00000032 ETH_Start
00001380  w      .text	00000000 Ecall_U_Mode_Handler
0000167e g     F .text	00000012 DMA_ITConfig
000020a4 g     F .text	00000036 ethernetif_init
00000ce6 g     F .text	0000003a DMA2_Channel6_IRQHandler
00000bba g     F .text	00000014 TIM2_IRQHandler
20020000 g       .stack	00000000 _eusrstack
00000230 g     F .text	0000000c .hidden __riscv_save_2
00005626 g     F .text	00000028 tcp_recved_socket
2000fcc4 g     O .bss	00003b60 MACTxBuf
00005d42 g     F .text	0000000a WCHNET_GetPHYStatus
00004cf6 g     F .text	0000001e IPCheckParaInit
000013b8  w      .text	00000000 TIM1_BRK_IRQHandler
0000948e g     F .text	0000005a __swhatbuf_r
00001ece g     F .text	00000008 USART_SendData
20000168 g     O .bss	00000004 tcp_tw_pcbs
00000d66 g     F .text	00000046 DMA2_Channel10_IRQHandler
00001396  w      .text	00000000 EXTI1_IRQHandler
0000848e g     F .text	0000023a udp_input
00000216 g     F .text	0000001a .hidden __riscv_save_5
20000100 g     O .bss	00000004 DHCPfineTimer
00001f32 g     F .text	0000003a _write
200000d8 g       .data	00000000 _edata
00002434 g     F .text	0000000e htons
20000104 g     O .bss	00000004 DNSTimer
2000016c g     O .bss	00000004 ArpCheckTime
00001d0c g     F .text	000000aa TIM_TimeBaseInit
00006a34 g     F .text	0000004c ip_route
000013da  w      .text	00000000 RTCAlarm_IRQHandler
2000bf24 g     O .bss	00000100 uart_data_t
0000a240 g       .dlalign	00000000 _data_lma
00001426  w      .text	00000000 TIM10_UP_IRQHandler
00001420  w      .text	00000000 TIM9_TRG_COM_IRQHandler
00001418  w      .text	00000000 UART7_IRQHandler
00002ef0 g     F .text	0000006e pbuf_header
00002b86 g     F .text	000000ca mem_realloc
20000144 g     O .bss	00000004 netif_default
000037a0 g     F .text	00000072 tcp_pcb_remove
200001c4 g     O .bss	00000800 UART1_RX_DMA_DataBuf
000013d4  w      .text	00000000 USART2_IRQHandler
00001416  w      .text	00000000 UART6_IRQHandler
00009e1e g     F .text	0000004e __swrite
0000317a g     F .text	00000010 pbuf_chain
20013824 g     O .bss	00000140 Mem_ArpTable
200000f4 g     O .bss	00000004 ARPTimer
20000086 g     O .data	00000002 desport
00003978 g     F .text	00000098 tcp_abandon
200000a4 g     O .data	00000004 arp_table
00004ee4 g     F .text	000000fc SocketUdpReceive
00009772 g     F .text	0000029c _vfiprintf_r
0000511e g     F .text	00000042 LwipTcpConnectedCallBack
2000391c g     O .bss	0000000a UART3_TX_Buf_Length
00009422 g     F .text	0000006c _fwalk_reent
200176cc g     O .bss	000001e0 SocketInf
00002d20 g     F .text	00000050 memp_init
000038f4 g     F .text	00000062 tcp_fasttmr
00005848 g     F .text	000000ec SocketIPRawSend
000013cc  w      .text	00000000 I2C2_ER_IRQHandler
20000170 g     O .bss	00000004 phydata
00000c3a g     F .text	00000038 DMA1_Channel2_IRQHandler
200009c4 g     O .bss	0000000a UART1_TX_Buf_Length
0000a1e4 g     O .text	00000020 __sf_fake_stdout
00001cca g     F .text	00000024 RCC_PLL3Cmd
0000605c g     F .text	00000038 etharp_ip_input
0000023c g     F .text	00000024 .hidden __riscv_restore_12
000013de  w      .text	00000000 TIM8_BRK_IRQHandler
0000088a g     F .text	000002e0 BSP_Uart_Init
000016c2 g     F .text	0000002c DMA_ClearFlag
0000a036 g     F .text	00000010 _read
00001438  w      .text	00000000 handle_reset
000013b4  w      .text	00000000 CAN1_SCE_IRQHandler
200178ac g     O .bss	00006400 SocketRecvBuf
00001390  w      .text	00000000 FLASH_IRQHandler
00000230 g     F .text	0000000c .hidden __riscv_save_0
00005db8 g     F .text	00000004 QueryPingEnable
00003466 g     F .text	00000028 tcp_seg_copy
00000446 g     F .text	00000364 UART_DMA_Init
00000e36 g     F .text	00000066 TIM2_Init
000013d2  w      .text	00000000 USART1_IRQHandler
000094e8 g     F .text	000000a0 __smakebuf_r
0000227c g     F .text	000000b8 SetupNetif
000034a4 g     F .text	0000000a tcp_poll
0000140e  w      .text	00000000 OTG_FS_IRQHandler
00009b1a g     F .text	000002a4 _printf_i
00004ba8 g     F .text	0000004e Ethernet_LED_Configuration
000013ee  w      .text	00000000 SPI3_IRQHandler
000088fe g     F .text	00000024 udp_new
200050c8 g     O .bss	0000000a UART4_TX_Buf_Length
00004d8e g     F .text	00000024 ArpCheck
200001bc g     O .bss	00000004 __malloc_sbrk_start
000007aa g     F .text	000000e0 UART_Interrupt_Init
000013c8  w      .text	00000000 I2C1_ER_IRQHandler
0000199c g     F .text	00000008 ETH_GetCurrentTxBufferAddress
200000b8 g     O .data	00000006 ethbroadcast
0000a134 g     O .text	00000014 tcp_backoff
000053f0 g     F .text	0000000c WCHNET_TimeIsr
000014c6 g     F .text	0000016c DMA_DeInit
200001b8 g     O .bss	00000004 __malloc_free_list
00000254 g     F .text	0000000c .hidden __riscv_restore_1
2001de4c g     O .bss	00000044 NetInf
2000012c g     O .bss	00000004 WCHMACAddr
00009772 g     F .text	0000029c _vfprintf_r
00004de2 g     F .text	0000003c LwipTCPSendCallBack
20000118 g     O .bss	00000004 SuccessPackets
00005dd6 g     F .text	0000000c LwipArpCheck
00005d4c g     F .text	0000006c WCHNET_SocketConnect
2000af84 g     O .bss	00000fa0 UART8_TX_DMA_DataBuf
00001ebc g     F .text	00000012 USART_DMACmd
00007ad4 g     F .text	000009ba tcp_input
0000376e g     F .text	00000032 RemoveTimeWaiTCP
00006a80 g     F .text	000002b8 ip_input
000048d4 g     F .text	00000020 WCH_GetMac
00005822 g     F .text	00000026 WCHNET_SocketRecvLen
2001dd94 g     O .bss	00000014 TXCtrl
200000c0 g     O .data	00000006 ethzero
000013dc  w      .text	00000000 USBWakeUp_IRQHandler
00001cb8 g     F .text	00000012 RCC_PLL3Config
000052e0 g     F .text	00000020 WCHNET_ConfigLIB
00009ff6 g     F .text	00000010 _close
00005dbc g     F .text	0000001a LwipUnreachPort
000013fc  w      .text	00000000 DMA2_Channel3_IRQHandler
00001898 g     F .text	00000042 ETH_DMATxDescChainInit



Disassembly of section .init:

00000000 <_sinit>:
_start():
   0:	4380106f          	j	1438 <handle_reset>
   4:	00000013          	nop
   8:	00000013          	nop
   c:	00000013          	nop
  10:	00000013          	nop
  14:	00000013          	nop
  18:	00000013          	nop
  1c:	00000013          	nop
  20:	00000013          	nop
  24:	00000013          	nop
  28:	00000013          	nop
  2c:	00000013          	nop
  30:	00000013          	nop
  34:	00100073          	ebreak

Disassembly of section .vector:

00000038 <_vector_base>:
	...
_vector_base():
  40:	0b6a                	slli	s6,s6,0x1a
  42:	0000                	unimp
  44:	0b6e                	slli	s6,s6,0x1b
  46:	0000                	unimp
  48:	0000                	unimp
  4a:	0000                	unimp
  4c:	137e                	slli	t1,t1,0x3f
	...
  56:	0000                	unimp
  58:	1380                	addi	s0,sp,480
  5a:	0000                	unimp
  5c:	1382                	slli	t2,t2,0x20
	...
  66:	0000                	unimp
  68:	1384                	addi	s1,sp,480
  6a:	0000                	unimp
  6c:	0000                	unimp
  6e:	0000                	unimp
  70:	1386                	slli	t2,t2,0x21
  72:	0000                	unimp
  74:	0000                	unimp
  76:	0000                	unimp
  78:	1388                	addi	a0,sp,480
  7a:	0000                	unimp
  7c:	138a                	slli	t2,t2,0x22
  7e:	0000                	unimp
  80:	138c                	addi	a1,sp,480
  82:	0000                	unimp
  84:	138e                	slli	t2,t2,0x23
  86:	0000                	unimp
  88:	1390                	addi	a2,sp,480
  8a:	0000                	unimp
  8c:	1392                	slli	t2,t2,0x24
  8e:	0000                	unimp
  90:	1394                	addi	a3,sp,480
  92:	0000                	unimp
  94:	1396                	slli	t2,t2,0x25
  96:	0000                	unimp
  98:	1398                	addi	a4,sp,480
  9a:	0000                	unimp
  9c:	139a                	slli	t2,t2,0x26
  9e:	0000                	unimp
  a0:	139c                	addi	a5,sp,480
  a2:	0000                	unimp
  a4:	139e                	slli	t2,t2,0x27
  a6:	0000                	unimp
  a8:	0c3a                	slli	s8,s8,0xe
  aa:	0000                	unimp
  ac:	13a2                	slli	t2,t2,0x28
  ae:	0000                	unimp
  b0:	0bce                	slli	s7,s7,0x13
  b2:	0000                	unimp
  b4:	13a6                	slli	t2,t2,0x29
  b6:	0000                	unimp
  b8:	13a8                	addi	a0,sp,488
  ba:	0000                	unimp
  bc:	0c00                	addi	s0,sp,528
  be:	0000                	unimp
  c0:	13ac                	addi	a1,sp,488
  c2:	0000                	unimp
  c4:	13ae                	slli	t2,t2,0x2b
  c6:	0000                	unimp
  c8:	13b0                	addi	a2,sp,488
  ca:	0000                	unimp
  cc:	13b2                	slli	t2,t2,0x2c
  ce:	0000                	unimp
  d0:	13b4                	addi	a3,sp,488
  d2:	0000                	unimp
  d4:	13b6                	slli	t2,t2,0x2d
  d6:	0000                	unimp
  d8:	13b8                	addi	a4,sp,488
  da:	0000                	unimp
  dc:	13ba                	slli	t2,t2,0x2e
  de:	0000                	unimp
  e0:	13bc                	addi	a5,sp,488
  e2:	0000                	unimp
  e4:	13be                	slli	t2,t2,0x2f
  e6:	0000                	unimp
  e8:	0bba                	slli	s7,s7,0xe
  ea:	0000                	unimp
  ec:	13c2                	slli	t2,t2,0x30
  ee:	0000                	unimp
  f0:	13c4                	addi	s1,sp,484
  f2:	0000                	unimp
  f4:	13c6                	slli	t2,t2,0x31
  f6:	0000                	unimp
  f8:	13c8                	addi	a0,sp,484
  fa:	0000                	unimp
  fc:	13ca                	slli	t2,t2,0x32
  fe:	0000                	unimp
 100:	13cc                	addi	a1,sp,484
 102:	0000                	unimp
 104:	13ce                	slli	t2,t2,0x33
 106:	0000                	unimp
 108:	13d0                	addi	a2,sp,484
 10a:	0000                	unimp
 10c:	13d2                	slli	t2,t2,0x34
 10e:	0000                	unimp
 110:	13d4                	addi	a3,sp,484
 112:	0000                	unimp
 114:	13d6                	slli	t2,t2,0x35
 116:	0000                	unimp
 118:	13d8                	addi	a4,sp,484
 11a:	0000                	unimp
 11c:	13da                	slli	t2,t2,0x36
 11e:	0000                	unimp
 120:	13dc                	addi	a5,sp,484
 122:	0000                	unimp
 124:	13de                	slli	t2,t2,0x37
 126:	0000                	unimp
 128:	13e0                	addi	s0,sp,492
 12a:	0000                	unimp
 12c:	13e2                	slli	t2,t2,0x38
 12e:	0000                	unimp
 130:	13e4                	addi	s1,sp,492
 132:	0000                	unimp
 134:	13e6                	slli	t2,t2,0x39
 136:	0000                	unimp
 138:	13e8                	addi	a0,sp,492
 13a:	0000                	unimp
 13c:	13ea                	slli	t2,t2,0x3a
 13e:	0000                	unimp
 140:	13ec                	addi	a1,sp,492
 142:	0000                	unimp
 144:	13ee                	slli	t2,t2,0x3b
 146:	0000                	unimp
 148:	13f0                	addi	a2,sp,492
 14a:	0000                	unimp
 14c:	13f2                	slli	t2,t2,0x3c
 14e:	0000                	unimp
 150:	13f4                	addi	a3,sp,492
 152:	0000                	unimp
 154:	13f6                	slli	t2,t2,0x3d
 156:	0000                	unimp
 158:	13f8                	addi	a4,sp,492
 15a:	0000                	unimp
 15c:	13fa                	slli	t2,t2,0x3e
 15e:	0000                	unimp
 160:	13fc                	addi	a5,sp,492
 162:	0000                	unimp
 164:	0cac                	addi	a1,sp,600
 166:	0000                	unimp
 168:	0c72                	slli	s8,s8,0x1c
 16a:	0000                	unimp
 16c:	0bb2                	slli	s7,s7,0xc
 16e:	0000                	unimp
 170:	1404                	addi	s1,sp,544
 172:	0000                	unimp
 174:	1406                	slli	s0,s0,0x21
 176:	0000                	unimp
 178:	1408                	addi	a0,sp,544
 17a:	0000                	unimp
 17c:	140a                	slli	s0,s0,0x22
 17e:	0000                	unimp
 180:	140c                	addi	a1,sp,544
 182:	0000                	unimp
 184:	140e                	slli	s0,s0,0x23
 186:	0000                	unimp
 188:	1410                	addi	a2,sp,544
 18a:	0000                	unimp
 18c:	1412                	slli	s0,s0,0x24
 18e:	0000                	unimp
 190:	1414                	addi	a3,sp,544
 192:	0000                	unimp
 194:	1416                	slli	s0,s0,0x25
 196:	0000                	unimp
 198:	1418                	addi	a4,sp,544
 19a:	0000                	unimp
 19c:	141a                	slli	s0,s0,0x26
 19e:	0000                	unimp
 1a0:	141c                	addi	a5,sp,544
 1a2:	0000                	unimp
 1a4:	141e                	slli	s0,s0,0x27
 1a6:	0000                	unimp
 1a8:	1420                	addi	s0,sp,552
 1aa:	0000                	unimp
 1ac:	1422                	slli	s0,s0,0x28
 1ae:	0000                	unimp
 1b0:	1424                	addi	s1,sp,552
 1b2:	0000                	unimp
 1b4:	1426                	slli	s0,s0,0x29
 1b6:	0000                	unimp
 1b8:	1428                	addi	a0,sp,552
 1ba:	0000                	unimp
 1bc:	142a                	slli	s0,s0,0x2a
 1be:	0000                	unimp
 1c0:	0ce6                	slli	s9,s9,0x19
 1c2:	0000                	unimp
 1c4:	142e                	slli	s0,s0,0x2b
 1c6:	0000                	unimp
 1c8:	0d20                	addi	s0,sp,664
 1ca:	0000                	unimp
 1cc:	1432                	slli	s0,s0,0x2c
 1ce:	0000                	unimp
 1d0:	0d66                	slli	s10,s10,0x19
 1d2:	0000                	unimp
 1d4:	1436                	slli	s0,s0,0x2d
	...

Disassembly of section .text:

00000200 <__riscv_save_12>:
__riscv_save_12():
     200:	7139                	addi	sp,sp,-64
     202:	4301                	li	t1,0
     204:	c66e                	sw	s11,12(sp)
     206:	a019                	j	20c <__riscv_save_10+0x4>

00000208 <__riscv_save_10>:
     208:	7139                	addi	sp,sp,-64
     20a:	5341                	li	t1,-16
     20c:	c86a                	sw	s10,16(sp)
     20e:	ca66                	sw	s9,20(sp)
     210:	cc62                	sw	s8,24(sp)
     212:	ce5e                	sw	s7,28(sp)
     214:	a019                	j	21a <__riscv_save_4+0x4>

00000216 <__riscv_save_4>:
     216:	7139                	addi	sp,sp,-64
     218:	5301                	li	t1,-32
     21a:	d05a                	sw	s6,32(sp)
     21c:	d256                	sw	s5,36(sp)
     21e:	d452                	sw	s4,40(sp)
     220:	d64e                	sw	s3,44(sp)
     222:	d84a                	sw	s2,48(sp)
     224:	da26                	sw	s1,52(sp)
     226:	dc22                	sw	s0,56(sp)
     228:	de06                	sw	ra,60(sp)
     22a:	40610133          	sub	sp,sp,t1
     22e:	8282                	jr	t0

00000230 <__riscv_save_0>:
__riscv_save_1():
     230:	1141                	addi	sp,sp,-16
     232:	c04a                	sw	s2,0(sp)
     234:	c226                	sw	s1,4(sp)
     236:	c422                	sw	s0,8(sp)
     238:	c606                	sw	ra,12(sp)
     23a:	8282                	jr	t0

0000023c <__riscv_restore_12>:
__riscv_restore_12():
     23c:	4db2                	lw	s11,12(sp)
     23e:	0141                	addi	sp,sp,16

00000240 <__riscv_restore_10>:
     240:	4d02                	lw	s10,0(sp)
     242:	4c92                	lw	s9,4(sp)
     244:	4c22                	lw	s8,8(sp)
     246:	4bb2                	lw	s7,12(sp)
     248:	0141                	addi	sp,sp,16

0000024a <__riscv_restore_4>:
     24a:	4b02                	lw	s6,0(sp)
     24c:	4a92                	lw	s5,4(sp)
     24e:	4a22                	lw	s4,8(sp)
     250:	49b2                	lw	s3,12(sp)
     252:	0141                	addi	sp,sp,16

00000254 <__riscv_restore_0>:
     254:	4902                	lw	s2,0(sp)
     256:	4492                	lw	s1,4(sp)
     258:	4422                	lw	s0,8(sp)
     25a:	40b2                	lw	ra,12(sp)
     25c:	0141                	addi	sp,sp,16
     25e:	8082                	ret

00000260 <memset>:
memset():
     260:	433d                	li	t1,15
     262:	872a                	mv	a4,a0
     264:	02c37363          	bgeu	t1,a2,28a <memset+0x2a>
     268:	00f77793          	andi	a5,a4,15
     26c:	efbd                	bnez	a5,2ea <memset+0x8a>
     26e:	e5ad                	bnez	a1,2d8 <memset+0x78>
     270:	ff067693          	andi	a3,a2,-16
     274:	8a3d                	andi	a2,a2,15
     276:	96ba                	add	a3,a3,a4
     278:	c30c                	sw	a1,0(a4)
     27a:	c34c                	sw	a1,4(a4)
     27c:	c70c                	sw	a1,8(a4)
     27e:	c74c                	sw	a1,12(a4)
     280:	0741                	addi	a4,a4,16
     282:	fed76be3          	bltu	a4,a3,278 <memset+0x18>
     286:	e211                	bnez	a2,28a <memset+0x2a>
     288:	8082                	ret
     28a:	40c306b3          	sub	a3,t1,a2
     28e:	068a                	slli	a3,a3,0x2
     290:	00000297          	auipc	t0,0x0
     294:	9696                	add	a3,a3,t0
     296:	00a68067          	jr	10(a3)
     29a:	00b70723          	sb	a1,14(a4)
     29e:	00b706a3          	sb	a1,13(a4)
     2a2:	00b70623          	sb	a1,12(a4)
     2a6:	00b705a3          	sb	a1,11(a4)
     2aa:	00b70523          	sb	a1,10(a4)
     2ae:	00b704a3          	sb	a1,9(a4)
     2b2:	00b70423          	sb	a1,8(a4)
     2b6:	00b703a3          	sb	a1,7(a4)
     2ba:	00b70323          	sb	a1,6(a4)
     2be:	00b702a3          	sb	a1,5(a4)
     2c2:	00b70223          	sb	a1,4(a4)
     2c6:	00b701a3          	sb	a1,3(a4)
     2ca:	00b70123          	sb	a1,2(a4)
     2ce:	00b700a3          	sb	a1,1(a4)
     2d2:	00b70023          	sb	a1,0(a4)
     2d6:	8082                	ret
     2d8:	0ff5f593          	andi	a1,a1,255
     2dc:	00859693          	slli	a3,a1,0x8
     2e0:	8dd5                	or	a1,a1,a3
     2e2:	01059693          	slli	a3,a1,0x10
     2e6:	8dd5                	or	a1,a1,a3
     2e8:	b761                	j	270 <memset+0x10>
     2ea:	00279693          	slli	a3,a5,0x2
     2ee:	00000297          	auipc	t0,0x0
     2f2:	9696                	add	a3,a3,t0
     2f4:	8286                	mv	t0,ra
     2f6:	fa8680e7          	jalr	-88(a3)
     2fa:	8096                	mv	ra,t0
     2fc:	17c1                	addi	a5,a5,-16
     2fe:	8f1d                	sub	a4,a4,a5
     300:	963e                	add	a2,a2,a5
     302:	f8c374e3          	bgeu	t1,a2,28a <memset+0x2a>
     306:	b7a5                	j	26e <memset+0xe>

00000308 <UART_GPIO_Init>:
UART_GPIO_Init():
     308:	f01ff2ef          	jal	t0,208 <__riscv_save_10>
     30c:	1141                	addi	sp,sp,-16
     30e:	4585                	li	a1,1
     310:	03c00513          	li	a0,60
     314:	400119b7          	lui	s3,0x40011
     318:	c202                	sw	zero,4(sp)
     31a:	c402                	sw	zero,8(sp)
     31c:	c602                	sw	zero,12(sp)
     31e:	119010ef          	jal	ra,1c36 <RCC_APB2PeriphClockCmd>
     322:	20000793          	li	a5,512
     326:	490d                	li	s2,3
     328:	44e1                	li	s1,24
     32a:	004c                	addi	a1,sp,4
     32c:	80098513          	addi	a0,s3,-2048 # 40010800 <_eusrstack+0x1fff0800>
     330:	827c                	sh	a5,4(sp)
     332:	c44a                	sw	s2,8(sp)
     334:	c626                	sw	s1,12(sp)
     336:	66e010ef          	jal	ra,19a4 <GPIO_Init>
     33a:	4411                	li	s0,4
     33c:	40000a13          	li	s4,1024
     340:	004c                	addi	a1,sp,4
     342:	80098513          	addi	a0,s3,-2048
     346:	01411223          	sh	s4,4(sp)
     34a:	c622                	sw	s0,12(sp)
     34c:	658010ef          	jal	ra,19a4 <GPIO_Init>
     350:	004c                	addi	a1,sp,4
     352:	80098513          	addi	a0,s3,-2048
     356:	8260                	sh	s0,4(sp)
     358:	c44a                	sw	s2,8(sp)
     35a:	c626                	sw	s1,12(sp)
     35c:	648010ef          	jal	ra,19a4 <GPIO_Init>
     360:	4aa1                	li	s5,8
     362:	004c                	addi	a1,sp,4
     364:	80098513          	addi	a0,s3,-2048
     368:	01511223          	sh	s5,4(sp)
     36c:	c622                	sw	s0,12(sp)
     36e:	636010ef          	jal	ra,19a4 <GPIO_Init>
     372:	004c                	addi	a1,sp,4
     374:	c0098513          	addi	a0,s3,-1024
     378:	01411223          	sh	s4,4(sp)
     37c:	c44a                	sw	s2,8(sp)
     37e:	c626                	sw	s1,12(sp)
     380:	6b05                	lui	s6,0x1
     382:	622010ef          	jal	ra,19a4 <GPIO_Init>
     386:	800b0b93          	addi	s7,s6,-2048 # 800 <__stack_size>
     38a:	004c                	addi	a1,sp,4
     38c:	c0098513          	addi	a0,s3,-1024
     390:	01711223          	sh	s7,4(sp)
     394:	c622                	sw	s0,12(sp)
     396:	60e010ef          	jal	ra,19a4 <GPIO_Init>
     39a:	004c                	addi	a1,sp,4
     39c:	40011537          	lui	a0,0x40011
     3a0:	01411223          	sh	s4,4(sp)
     3a4:	c44a                	sw	s2,8(sp)
     3a6:	c626                	sw	s1,12(sp)
     3a8:	5fc010ef          	jal	ra,19a4 <GPIO_Init>
     3ac:	004c                	addi	a1,sp,4
     3ae:	40011537          	lui	a0,0x40011
     3b2:	01711223          	sh	s7,4(sp)
     3b6:	c622                	sw	s0,12(sp)
     3b8:	5ec010ef          	jal	ra,19a4 <GPIO_Init>
     3bc:	004c                	addi	a1,sp,4
     3be:	40011537          	lui	a0,0x40011
     3c2:	01611223          	sh	s6,4(sp)
     3c6:	c44a                	sw	s2,8(sp)
     3c8:	c626                	sw	s1,12(sp)
     3ca:	5da010ef          	jal	ra,19a4 <GPIO_Init>
     3ce:	004c                	addi	a1,sp,4
     3d0:	40098513          	addi	a0,s3,1024
     3d4:	8260                	sh	s0,4(sp)
     3d6:	c622                	sw	s0,12(sp)
     3d8:	5cc010ef          	jal	ra,19a4 <GPIO_Init>
     3dc:	4785                	li	a5,1
     3de:	004c                	addi	a1,sp,4
     3e0:	40011537          	lui	a0,0x40011
     3e4:	827c                	sh	a5,4(sp)
     3e6:	c44a                	sw	s2,8(sp)
     3e8:	c626                	sw	s1,12(sp)
     3ea:	5ba010ef          	jal	ra,19a4 <GPIO_Init>
     3ee:	4789                	li	a5,2
     3f0:	004c                	addi	a1,sp,4
     3f2:	40011537          	lui	a0,0x40011
     3f6:	827c                	sh	a5,4(sp)
     3f8:	c622                	sw	s0,12(sp)
     3fa:	5aa010ef          	jal	ra,19a4 <GPIO_Init>
     3fe:	004c                	addi	a1,sp,4
     400:	40011537          	lui	a0,0x40011
     404:	8260                	sh	s0,4(sp)
     406:	c44a                	sw	s2,8(sp)
     408:	c626                	sw	s1,12(sp)
     40a:	59a010ef          	jal	ra,19a4 <GPIO_Init>
     40e:	004c                	addi	a1,sp,4
     410:	40011537          	lui	a0,0x40011
     414:	01511223          	sh	s5,4(sp)
     418:	c622                	sw	s0,12(sp)
     41a:	58a010ef          	jal	ra,19a4 <GPIO_Init>
     41e:	47c1                	li	a5,16
     420:	004c                	addi	a1,sp,4
     422:	40011537          	lui	a0,0x40011
     426:	827c                	sh	a5,4(sp)
     428:	c44a                	sw	s2,8(sp)
     42a:	c626                	sw	s1,12(sp)
     42c:	578010ef          	jal	ra,19a4 <GPIO_Init>
     430:	02000793          	li	a5,32
     434:	004c                	addi	a1,sp,4
     436:	40011537          	lui	a0,0x40011
     43a:	827c                	sh	a5,4(sp)
     43c:	c622                	sw	s0,12(sp)
     43e:	566010ef          	jal	ra,19a4 <GPIO_Init>
     442:	0141                	addi	sp,sp,16
     444:	bbf5                	j	240 <__riscv_restore_10>

00000446 <UART_DMA_Init>:
UART_DMA_Init():
     446:	dc3ff2ef          	jal	t0,208 <__riscv_save_10>
     44a:	7179                	addi	sp,sp,-48
     44c:	02c00613          	li	a2,44
     450:	4581                	li	a1,0
     452:	0048                	addi	a0,sp,4
     454:	3531                	jal	260 <memset>
     456:	4585                	li	a1,1
     458:	450d                	li	a0,3
     45a:	40020437          	lui	s0,0x40020
     45e:	7ba010ef          	jal	ra,1c18 <RCC_AHBPeriphClockCmd>
     462:	04440513          	addi	a0,s0,68 # 40020044 <_eusrstack+0x20000044>
     466:	2000c4b7          	lui	s1,0x2000c
     46a:	05c010ef          	jal	ra,14c6 <DMA_DeInit>
     46e:	f2448493          	addi	s1,s1,-220 # 2000bf24 <uart_data_t>
     472:	409c                	lw	a5,0(s1)
     474:	40014a37          	lui	s4,0x40014
     478:	4ac1                	li	s5,16
     47a:	804a0913          	addi	s2,s4,-2044 # 40013804 <_eusrstack+0x1fff3804>
     47e:	004c                	addi	a1,sp,4
     480:	08000c13          	li	s8,128
     484:	6b8d                	lui	s7,0x3
     486:	04440513          	addi	a0,s0,68
     48a:	c43e                	sw	a5,8(sp)
     48c:	c24a                	sw	s2,4(sp)
     48e:	c656                	sw	s5,12(sp)
     490:	cc62                	sw	s8,24(sp)
     492:	d45e                	sw	s7,40(sp)
     494:	ca02                	sw	zero,20(sp)
     496:	ce02                	sw	zero,28(sp)
     498:	d002                	sw	zero,32(sp)
     49a:	d202                	sw	zero,36(sp)
     49c:	d602                	sw	zero,44(sp)
     49e:	194010ef          	jal	ra,1632 <DMA_Init>
     4a2:	05840513          	addi	a0,s0,88
     4a6:	020010ef          	jal	ra,14c6 <DMA_DeInit>
     4aa:	40dc                	lw	a5,4(s1)
     4ac:	c24a                	sw	s2,4(sp)
     4ae:	6905                	lui	s2,0x1
     4b0:	80090913          	addi	s2,s2,-2048 # 800 <__stack_size>
     4b4:	02000993          	li	s3,32
     4b8:	004c                	addi	a1,sp,4
     4ba:	05840513          	addi	a0,s0,88
     4be:	c43e                	sw	a5,8(sp)
     4c0:	c84a                	sw	s2,16(sp)
     4c2:	d24e                	sw	s3,36(sp)
     4c4:	c602                	sw	zero,12(sp)
     4c6:	16c010ef          	jal	ra,1632 <DMA_Init>
     4ca:	6509                	lui	a0,0x2
     4cc:	1f6010ef          	jal	ra,16c2 <DMA_ClearFlag>
     4d0:	05840513          	addi	a0,s0,88
     4d4:	4585                	li	a1,1
     4d6:	194010ef          	jal	ra,166a <DMA_Cmd>
     4da:	4605                	li	a2,1
     4dc:	0c000593          	li	a1,192
     4e0:	800a0513          	addi	a0,s4,-2048
     4e4:	1d9010ef          	jal	ra,1ebc <USART_DMACmd>
     4e8:	08040513          	addi	a0,s0,128
     4ec:	7db000ef          	jal	ra,14c6 <DMA_DeInit>
     4f0:	509c                	lw	a5,32(s1)
     4f2:	40004a37          	lui	s4,0x40004
     4f6:	404a0b13          	addi	s6,s4,1028 # 40004404 <_eusrstack+0x1ffe4404>
     4fa:	004c                	addi	a1,sp,4
     4fc:	08040513          	addi	a0,s0,128
     500:	c43e                	sw	a5,8(sp)
     502:	c25a                	sw	s6,4(sp)
     504:	c656                	sw	s5,12(sp)
     506:	cc62                	sw	s8,24(sp)
     508:	d45e                	sw	s7,40(sp)
     50a:	ca02                	sw	zero,20(sp)
     50c:	ce02                	sw	zero,28(sp)
     50e:	d002                	sw	zero,32(sp)
     510:	d202                	sw	zero,36(sp)
     512:	d602                	sw	zero,44(sp)
     514:	11e010ef          	jal	ra,1632 <DMA_Init>
     518:	06c40513          	addi	a0,s0,108
     51c:	7ab000ef          	jal	ra,14c6 <DMA_DeInit>
     520:	50dc                	lw	a5,36(s1)
     522:	004c                	addi	a1,sp,4
     524:	06c40513          	addi	a0,s0,108
     528:	c43e                	sw	a5,8(sp)
     52a:	c25a                	sw	s6,4(sp)
     52c:	c84a                	sw	s2,16(sp)
     52e:	d24e                	sw	s3,36(sp)
     530:	c602                	sw	zero,12(sp)
     532:	100010ef          	jal	ra,1632 <DMA_Init>
     536:	02000537          	lui	a0,0x2000
     53a:	188010ef          	jal	ra,16c2 <DMA_ClearFlag>
     53e:	06c40513          	addi	a0,s0,108
     542:	4585                	li	a1,1
     544:	126010ef          	jal	ra,166a <DMA_Cmd>
     548:	4605                	li	a2,1
     54a:	0c000593          	li	a1,192
     54e:	400a0513          	addi	a0,s4,1024
     552:	16b010ef          	jal	ra,1ebc <USART_DMACmd>
     556:	01c40513          	addi	a0,s0,28
     55a:	76d000ef          	jal	ra,14c6 <DMA_DeInit>
     55e:	40bc                	lw	a5,64(s1)
     560:	40005a37          	lui	s4,0x40005
     564:	804a0b13          	addi	s6,s4,-2044 # 40004804 <_eusrstack+0x1ffe4804>
     568:	004c                	addi	a1,sp,4
     56a:	01c40513          	addi	a0,s0,28
     56e:	c43e                	sw	a5,8(sp)
     570:	c25a                	sw	s6,4(sp)
     572:	c656                	sw	s5,12(sp)
     574:	d202                	sw	zero,36(sp)
     576:	0bc010ef          	jal	ra,1632 <DMA_Init>
     57a:	03040513          	addi	a0,s0,48
     57e:	749000ef          	jal	ra,14c6 <DMA_DeInit>
     582:	40fc                	lw	a5,68(s1)
     584:	004c                	addi	a1,sp,4
     586:	03040513          	addi	a0,s0,48
     58a:	c43e                	sw	a5,8(sp)
     58c:	c25a                	sw	s6,4(sp)
     58e:	c84a                	sw	s2,16(sp)
     590:	d24e                	sw	s3,36(sp)
     592:	c602                	sw	zero,12(sp)
     594:	09e010ef          	jal	ra,1632 <DMA_Init>
     598:	02000513          	li	a0,32
     59c:	126010ef          	jal	ra,16c2 <DMA_ClearFlag>
     5a0:	03040513          	addi	a0,s0,48
     5a4:	4585                	li	a1,1
     5a6:	0c4010ef          	jal	ra,166a <DMA_Cmd>
     5aa:	4605                	li	a2,1
     5ac:	0c000593          	li	a1,192
     5b0:	800a0513          	addi	a0,s4,-2048
     5b4:	109010ef          	jal	ra,1ebc <USART_DMACmd>
     5b8:	45840513          	addi	a0,s0,1112
     5bc:	70b000ef          	jal	ra,14c6 <DMA_DeInit>
     5c0:	50bc                	lw	a5,96(s1)
     5c2:	c04a0b13          	addi	s6,s4,-1020
     5c6:	004c                	addi	a1,sp,4
     5c8:	45840513          	addi	a0,s0,1112
     5cc:	c43e                	sw	a5,8(sp)
     5ce:	c25a                	sw	s6,4(sp)
     5d0:	c656                	sw	s5,12(sp)
     5d2:	d202                	sw	zero,36(sp)
     5d4:	05e010ef          	jal	ra,1632 <DMA_Init>
     5d8:	43040513          	addi	a0,s0,1072
     5dc:	6eb000ef          	jal	ra,14c6 <DMA_DeInit>
     5e0:	50fc                	lw	a5,100(s1)
     5e2:	004c                	addi	a1,sp,4
     5e4:	43040513          	addi	a0,s0,1072
     5e8:	c43e                	sw	a5,8(sp)
     5ea:	c25a                	sw	s6,4(sp)
     5ec:	c84a                	sw	s2,16(sp)
     5ee:	d24e                	sw	s3,36(sp)
     5f0:	10000b37          	lui	s6,0x10000
     5f4:	c602                	sw	zero,12(sp)
     5f6:	03c010ef          	jal	ra,1632 <DMA_Init>
     5fa:	200b0513          	addi	a0,s6,512 # 10000200 <_data_lma+0xfff5fc0>
     5fe:	0c4010ef          	jal	ra,16c2 <DMA_ClearFlag>
     602:	43040513          	addi	a0,s0,1072
     606:	4585                	li	a1,1
     608:	062010ef          	jal	ra,166a <DMA_Cmd>
     60c:	4605                	li	a2,1
     60e:	0c000593          	li	a1,192
     612:	c00a0513          	addi	a0,s4,-1024
     616:	0a7010ef          	jal	ra,1ebc <USART_DMACmd>
     61a:	44440513          	addi	a0,s0,1092
     61e:	6a9000ef          	jal	ra,14c6 <DMA_DeInit>
     622:	0804a783          	lw	a5,128(s1)
     626:	004c                	addi	a1,sp,4
     628:	0a11                	addi	s4,s4,4
     62a:	44440513          	addi	a0,s0,1092
     62e:	c43e                	sw	a5,8(sp)
     630:	c252                	sw	s4,4(sp)
     632:	c656                	sw	s5,12(sp)
     634:	d202                	sw	zero,36(sp)
     636:	7fd000ef          	jal	ra,1632 <DMA_Init>
     63a:	41c40513          	addi	a0,s0,1052
     63e:	689000ef          	jal	ra,14c6 <DMA_DeInit>
     642:	0844a783          	lw	a5,132(s1)
     646:	004c                	addi	a1,sp,4
     648:	41c40513          	addi	a0,s0,1052
     64c:	c43e                	sw	a5,8(sp)
     64e:	c252                	sw	s4,4(sp)
     650:	c84a                	sw	s2,16(sp)
     652:	d24e                	sw	s3,36(sp)
     654:	c602                	sw	zero,12(sp)
     656:	7dd000ef          	jal	ra,1632 <DMA_Init>
     65a:	020b0513          	addi	a0,s6,32
     65e:	064010ef          	jal	ra,16c2 <DMA_ClearFlag>
     662:	41c40513          	addi	a0,s0,1052
     666:	4585                	li	a1,1
     668:	002010ef          	jal	ra,166a <DMA_Cmd>
     66c:	4605                	li	a2,1
     66e:	0c000593          	li	a1,192
     672:	40005537          	lui	a0,0x40005
     676:	047010ef          	jal	ra,1ebc <USART_DMACmd>
     67a:	46c40513          	addi	a0,s0,1132
     67e:	649000ef          	jal	ra,14c6 <DMA_DeInit>
     682:	0a04a783          	lw	a5,160(s1)
     686:	40002a37          	lui	s4,0x40002
     68a:	804a0b13          	addi	s6,s4,-2044 # 40001804 <_eusrstack+0x1ffe1804>
     68e:	004c                	addi	a1,sp,4
     690:	46c40513          	addi	a0,s0,1132
     694:	c43e                	sw	a5,8(sp)
     696:	c25a                	sw	s6,4(sp)
     698:	c656                	sw	s5,12(sp)
     69a:	d202                	sw	zero,36(sp)
     69c:	797000ef          	jal	ra,1632 <DMA_Init>
     6a0:	48040513          	addi	a0,s0,1152
     6a4:	623000ef          	jal	ra,14c6 <DMA_DeInit>
     6a8:	0a44a783          	lw	a5,164(s1)
     6ac:	004c                	addi	a1,sp,4
     6ae:	48040513          	addi	a0,s0,1152
     6b2:	c43e                	sw	a5,8(sp)
     6b4:	c25a                	sw	s6,4(sp)
     6b6:	c84a                	sw	s2,16(sp)
     6b8:	d24e                	sw	s3,36(sp)
     6ba:	c602                	sw	zero,12(sp)
     6bc:	777000ef          	jal	ra,1632 <DMA_Init>
     6c0:	12000537          	lui	a0,0x12000
     6c4:	7ff000ef          	jal	ra,16c2 <DMA_ClearFlag>
     6c8:	48040513          	addi	a0,s0,1152
     6cc:	4585                	li	a1,1
     6ce:	79d000ef          	jal	ra,166a <DMA_Cmd>
     6d2:	4605                	li	a2,1
     6d4:	0c000593          	li	a1,192
     6d8:	800a0513          	addi	a0,s4,-2048
     6dc:	7e0010ef          	jal	ra,1ebc <USART_DMACmd>
     6e0:	49040513          	addi	a0,s0,1168
     6e4:	5e3000ef          	jal	ra,14c6 <DMA_DeInit>
     6e8:	0c04a783          	lw	a5,192(s1)
     6ec:	c04a0b13          	addi	s6,s4,-1020
     6f0:	004c                	addi	a1,sp,4
     6f2:	49040513          	addi	a0,s0,1168
     6f6:	c43e                	sw	a5,8(sp)
     6f8:	c25a                	sw	s6,4(sp)
     6fa:	c656                	sw	s5,12(sp)
     6fc:	d202                	sw	zero,36(sp)
     6fe:	735000ef          	jal	ra,1632 <DMA_Init>
     702:	4a040513          	addi	a0,s0,1184
     706:	5c1000ef          	jal	ra,14c6 <DMA_DeInit>
     70a:	0c44a783          	lw	a5,196(s1)
     70e:	004c                	addi	a1,sp,4
     710:	4a040513          	addi	a0,s0,1184
     714:	c43e                	sw	a5,8(sp)
     716:	c25a                	sw	s6,4(sp)
     718:	c84a                	sw	s2,16(sp)
     71a:	d24e                	sw	s3,36(sp)
     71c:	20000b37          	lui	s6,0x20000
     720:	c602                	sw	zero,12(sp)
     722:	711000ef          	jal	ra,1632 <DMA_Init>
     726:	002b0513          	addi	a0,s6,2 # 20000002 <_data_vma+0x2>
     72a:	799000ef          	jal	ra,16c2 <DMA_ClearFlag>
     72e:	4a040513          	addi	a0,s0,1184
     732:	4585                	li	a1,1
     734:	737000ef          	jal	ra,166a <DMA_Cmd>
     738:	4605                	li	a2,1
     73a:	0c000593          	li	a1,192
     73e:	c00a0513          	addi	a0,s4,-1024
     742:	77a010ef          	jal	ra,1ebc <USART_DMACmd>
     746:	4b040513          	addi	a0,s0,1200
     74a:	57d000ef          	jal	ra,14c6 <DMA_DeInit>
     74e:	0e04a783          	lw	a5,224(s1)
     752:	004c                	addi	a1,sp,4
     754:	0a11                	addi	s4,s4,4
     756:	4b040513          	addi	a0,s0,1200
     75a:	c43e                	sw	a5,8(sp)
     75c:	c252                	sw	s4,4(sp)
     75e:	c656                	sw	s5,12(sp)
     760:	d202                	sw	zero,36(sp)
     762:	6d1000ef          	jal	ra,1632 <DMA_Init>
     766:	4c040513          	addi	a0,s0,1216
     76a:	55d000ef          	jal	ra,14c6 <DMA_DeInit>
     76e:	0e44a783          	lw	a5,228(s1)
     772:	004c                	addi	a1,sp,4
     774:	4c040513          	addi	a0,s0,1216
     778:	c43e                	sw	a5,8(sp)
     77a:	c252                	sw	s4,4(sp)
     77c:	c84a                	sw	s2,16(sp)
     77e:	d24e                	sw	s3,36(sp)
     780:	c602                	sw	zero,12(sp)
     782:	6b1000ef          	jal	ra,1632 <DMA_Init>
     786:	200b0513          	addi	a0,s6,512
     78a:	739000ef          	jal	ra,16c2 <DMA_ClearFlag>
     78e:	4c040513          	addi	a0,s0,1216
     792:	4585                	li	a1,1
     794:	6d7000ef          	jal	ra,166a <DMA_Cmd>
     798:	4605                	li	a2,1
     79a:	0c000593          	li	a1,192
     79e:	40002537          	lui	a0,0x40002
     7a2:	71a010ef          	jal	ra,1ebc <USART_DMACmd>
     7a6:	6145                	addi	sp,sp,48
     7a8:	bc61                	j	240 <__riscv_restore_10>

000007aa <UART_Interrupt_Init>:
UART_Interrupt_Init():
     7aa:	a87ff2ef          	jal	t0,230 <__riscv_save_0>
     7ae:	40020437          	lui	s0,0x40020
     7b2:	1141                	addi	sp,sp,-16
     7b4:	4605                	li	a2,1
     7b6:	4589                	li	a1,2
     7b8:	04440513          	addi	a0,s0,68 # 40020044 <_eusrstack+0x20000044>
     7bc:	c402                	sw	zero,8(sp)
     7be:	c602                	sw	zero,12(sp)
     7c0:	6bf000ef          	jal	ra,167e <DMA_ITConfig>
     7c4:	11e00793          	li	a5,286
     7c8:	4909                	li	s2,2
     7ca:	4485                	li	s1,1
     7cc:	0028                	addi	a0,sp,8
     7ce:	847c                	sh	a5,8(sp)
     7d0:	01210523          	sb	s2,10(sp)
     7d4:	c626                	sw	s1,12(sp)
     7d6:	296010ef          	jal	ra,1a6c <NVIC_Init>
     7da:	4605                	li	a2,1
     7dc:	4589                	li	a1,2
     7de:	08040513          	addi	a0,s0,128
     7e2:	69d000ef          	jal	ra,167e <DMA_ITConfig>
     7e6:	12100793          	li	a5,289
     7ea:	0028                	addi	a0,sp,8
     7ec:	847c                	sh	a5,8(sp)
     7ee:	01210523          	sb	s2,10(sp)
     7f2:	c626                	sw	s1,12(sp)
     7f4:	278010ef          	jal	ra,1a6c <NVIC_Init>
     7f8:	4605                	li	a2,1
     7fa:	4589                	li	a1,2
     7fc:	01c40513          	addi	a0,s0,28
     800:	67f000ef          	jal	ra,167e <DMA_ITConfig>
     804:	47f1                	li	a5,28
     806:	0028                	addi	a0,sp,8
     808:	845c                	sb	a5,8(sp)
     80a:	262010ef          	jal	ra,1a6c <NVIC_Init>
     80e:	4605                	li	a2,1
     810:	4589                	li	a1,2
     812:	45840513          	addi	a0,s0,1112
     816:	669000ef          	jal	ra,167e <DMA_ITConfig>
     81a:	04c00793          	li	a5,76
     81e:	0028                	addi	a0,sp,8
     820:	845c                	sb	a5,8(sp)
     822:	24a010ef          	jal	ra,1a6c <NVIC_Init>
     826:	4605                	li	a2,1
     828:	4589                	li	a1,2
     82a:	44440513          	addi	a0,s0,1092
     82e:	651000ef          	jal	ra,167e <DMA_ITConfig>
     832:	04b00793          	li	a5,75
     836:	0028                	addi	a0,sp,8
     838:	845c                	sb	a5,8(sp)
     83a:	232010ef          	jal	ra,1a6c <NVIC_Init>
     83e:	4605                	li	a2,1
     840:	4589                	li	a1,2
     842:	46c40513          	addi	a0,s0,1132
     846:	639000ef          	jal	ra,167e <DMA_ITConfig>
     84a:	06200793          	li	a5,98
     84e:	0028                	addi	a0,sp,8
     850:	845c                	sb	a5,8(sp)
     852:	21a010ef          	jal	ra,1a6c <NVIC_Init>
     856:	4605                	li	a2,1
     858:	4589                	li	a1,2
     85a:	49040513          	addi	a0,s0,1168
     85e:	621000ef          	jal	ra,167e <DMA_ITConfig>
     862:	06400793          	li	a5,100
     866:	0028                	addi	a0,sp,8
     868:	845c                	sb	a5,8(sp)
     86a:	202010ef          	jal	ra,1a6c <NVIC_Init>
     86e:	4605                	li	a2,1
     870:	4589                	li	a1,2
     872:	4b040513          	addi	a0,s0,1200
     876:	609000ef          	jal	ra,167e <DMA_ITConfig>
     87a:	06600793          	li	a5,102
     87e:	0028                	addi	a0,sp,8
     880:	845c                	sb	a5,8(sp)
     882:	1ea010ef          	jal	ra,1a6c <NVIC_Init>
     886:	0141                	addi	sp,sp,16
     888:	b2f1                	j	254 <__riscv_restore_0>

0000088a <BSP_Uart_Init>:
BSP_Uart_Init():
     88a:	98dff2ef          	jal	t0,216 <__riscv_save_4>
     88e:	1141                	addi	sp,sp,-16
     890:	3ca5                	jal	308 <UART_GPIO_Init>
     892:	2000c437          	lui	s0,0x2000c
     896:	200007b7          	lui	a5,0x20000
     89a:	f2440413          	addi	s0,s0,-220 # 2000bf24 <uart_data_t>
     89e:	1c478793          	addi	a5,a5,452 # 200001c4 <UART1_RX_DMA_DataBuf>
     8a2:	c05c                	sw	a5,4(s0)
     8a4:	200017b7          	lui	a5,0x20001
     8a8:	9d078793          	addi	a5,a5,-1584 # 200009d0 <UART1_TX_DMA_DataBuf>
     8ac:	c01c                	sw	a5,0(s0)
     8ae:	080004b7          	lui	s1,0x8000
     8b2:	15418793          	addi	a5,gp,340 # 200009c4 <UART1_TX_Buf_Length>
     8b6:	4585                	li	a1,1
     8b8:	6511                	lui	a0,0x4
     8ba:	c41c                	sw	a5,8(s0)
     8bc:	40014a37          	lui	s4,0x40014
     8c0:	c002                	sw	zero,0(sp)
     8c2:	c202                	sw	zero,4(sp)
     8c4:	c402                	sw	zero,8(sp)
     8c6:	c602                	sw	zero,12(sp)
     8c8:	c444                	sw	s1,12(s0)
     8ca:	00042823          	sw	zero,16(s0)
     8ce:	00042a23          	sw	zero,20(s0)
     8d2:	00040c23          	sb	zero,24(s0)
     8d6:	00042e23          	sw	zero,28(s0)
     8da:	6971                	lui	s2,0x1c
     8dc:	35a010ef          	jal	ra,1c36 <RCC_APB2PeriphClockCmd>
     8e0:	20090913          	addi	s2,s2,512 # 1c200 <_data_lma+0x11fc0>
     8e4:	000c09b7          	lui	s3,0xc0
     8e8:	858a                	mv	a1,sp
     8ea:	800a0513          	addi	a0,s4,-2048 # 40013800 <_eusrstack+0x1fff3800>
     8ee:	c04a                	sw	s2,0(sp)
     8f0:	c44e                	sw	s3,8(sp)
     8f2:	c202                	sw	zero,4(sp)
     8f4:	00011623          	sh	zero,12(sp)
     8f8:	4f4010ef          	jal	ra,1dec <USART_Init>
     8fc:	800a0513          	addi	a0,s4,-2048
     900:	4585                	li	a1,1
     902:	5a4010ef          	jal	ra,1ea6 <USART_Cmd>
     906:	200027b7          	lui	a5,0x20002
     90a:	97078793          	addi	a5,a5,-1680 # 20001970 <UART2_RX_DMA_DataBuf>
     90e:	d05c                	sw	a5,36(s0)
     910:	200027b7          	lui	a5,0x20002
     914:	17c78793          	addi	a5,a5,380 # 2000217c <UART2_TX_DMA_DataBuf>
     918:	d01c                	sw	a5,32(s0)
     91a:	200027b7          	lui	a5,0x20002
     91e:	17078793          	addi	a5,a5,368 # 20002170 <UART2_TX_Buf_Length>
     922:	4585                	li	a1,1
     924:	00020537          	lui	a0,0x20
     928:	d41c                	sw	a5,40(s0)
     92a:	d444                	sw	s1,44(s0)
     92c:	02042823          	sw	zero,48(s0)
     930:	02042a23          	sw	zero,52(s0)
     934:	02040c23          	sb	zero,56(s0)
     938:	02042e23          	sw	zero,60(s0)
     93c:	318010ef          	jal	ra,1c54 <RCC_APB1PeriphClockCmd>
     940:	c04a                	sw	s2,0(sp)
     942:	40004937          	lui	s2,0x40004
     946:	858a                	mv	a1,sp
     948:	40090513          	addi	a0,s2,1024 # 40004400 <_eusrstack+0x1ffe4400>
     94c:	c44e                	sw	s3,8(sp)
     94e:	c202                	sw	zero,4(sp)
     950:	00011623          	sh	zero,12(sp)
     954:	498010ef          	jal	ra,1dec <USART_Init>
     958:	40090513          	addi	a0,s2,1024
     95c:	4585                	li	a1,1
     95e:	548010ef          	jal	ra,1ea6 <USART_Cmd>
     962:	200037b7          	lui	a5,0x20003
     966:	11c78793          	addi	a5,a5,284 # 2000311c <UART3_RX_DMA_DataBuf>
     96a:	c07c                	sw	a5,68(s0)
     96c:	200047b7          	lui	a5,0x20004
     970:	92878793          	addi	a5,a5,-1752 # 20003928 <UART3_TX_DMA_DataBuf>
     974:	c03c                	sw	a5,64(s0)
     976:	200047b7          	lui	a5,0x20004
     97a:	91c78793          	addi	a5,a5,-1764 # 2000391c <UART3_TX_Buf_Length>
     97e:	4585                	li	a1,1
     980:	00040537          	lui	a0,0x40
     984:	c43c                	sw	a5,72(s0)
     986:	40005937          	lui	s2,0x40005
     98a:	c464                	sw	s1,76(s0)
     98c:	04042823          	sw	zero,80(s0)
     990:	04042a23          	sw	zero,84(s0)
     994:	04040c23          	sb	zero,88(s0)
     998:	04042e23          	sw	zero,92(s0)
     99c:	2b8010ef          	jal	ra,1c54 <RCC_APB1PeriphClockCmd>
     9a0:	858a                	mv	a1,sp
     9a2:	80090513          	addi	a0,s2,-2048 # 40004800 <_eusrstack+0x1ffe4800>
     9a6:	446010ef          	jal	ra,1dec <USART_Init>
     9aa:	80090513          	addi	a0,s2,-2048
     9ae:	4585                	li	a1,1
     9b0:	4f6010ef          	jal	ra,1ea6 <USART_Cmd>
     9b4:	200057b7          	lui	a5,0x20005
     9b8:	8c878793          	addi	a5,a5,-1848 # 200048c8 <UART4_RX_DMA_DataBuf>
     9bc:	d07c                	sw	a5,100(s0)
     9be:	200057b7          	lui	a5,0x20005
     9c2:	0d478793          	addi	a5,a5,212 # 200050d4 <UART4_TX_DMA_DataBuf>
     9c6:	d03c                	sw	a5,96(s0)
     9c8:	200057b7          	lui	a5,0x20005
     9cc:	0c878793          	addi	a5,a5,200 # 200050c8 <UART4_TX_Buf_Length>
     9d0:	4585                	li	a1,1
     9d2:	00080537          	lui	a0,0x80
     9d6:	d43c                	sw	a5,104(s0)
     9d8:	d464                	sw	s1,108(s0)
     9da:	06042823          	sw	zero,112(s0)
     9de:	06042a23          	sw	zero,116(s0)
     9e2:	06040c23          	sb	zero,120(s0)
     9e6:	06042e23          	sw	zero,124(s0)
     9ea:	26a010ef          	jal	ra,1c54 <RCC_APB1PeriphClockCmd>
     9ee:	858a                	mv	a1,sp
     9f0:	c0090513          	addi	a0,s2,-1024
     9f4:	3f8010ef          	jal	ra,1dec <USART_Init>
     9f8:	c0090513          	addi	a0,s2,-1024
     9fc:	4585                	li	a1,1
     9fe:	4a8010ef          	jal	ra,1ea6 <USART_Cmd>
     a02:	200067b7          	lui	a5,0x20006
     a06:	07478793          	addi	a5,a5,116 # 20006074 <UART5_RX_DMA_DataBuf>
     a0a:	08f42223          	sw	a5,132(s0)
     a0e:	200077b7          	lui	a5,0x20007
     a12:	88078793          	addi	a5,a5,-1920 # 20006880 <UART5_TX_DMA_DataBuf>
     a16:	08f42023          	sw	a5,128(s0)
     a1a:	200077b7          	lui	a5,0x20007
     a1e:	87478793          	addi	a5,a5,-1932 # 20006874 <UART5_TX_Buf_Length>
     a22:	4585                	li	a1,1
     a24:	00100537          	lui	a0,0x100
     a28:	08f42423          	sw	a5,136(s0)
     a2c:	08942623          	sw	s1,140(s0)
     a30:	08042823          	sw	zero,144(s0)
     a34:	08042a23          	sw	zero,148(s0)
     a38:	08040c23          	sb	zero,152(s0)
     a3c:	08042e23          	sw	zero,156(s0)
     a40:	214010ef          	jal	ra,1c54 <RCC_APB1PeriphClockCmd>
     a44:	858a                	mv	a1,sp
     a46:	40005537          	lui	a0,0x40005
     a4a:	3a2010ef          	jal	ra,1dec <USART_Init>
     a4e:	4585                	li	a1,1
     a50:	40005537          	lui	a0,0x40005
     a54:	452010ef          	jal	ra,1ea6 <USART_Cmd>
     a58:	200087b7          	lui	a5,0x20008
     a5c:	82078793          	addi	a5,a5,-2016 # 20007820 <UART6_RX_DMA_DataBuf>
     a60:	0af42223          	sw	a5,164(s0)
     a64:	200087b7          	lui	a5,0x20008
     a68:	02c78793          	addi	a5,a5,44 # 2000802c <UART6_TX_DMA_DataBuf>
     a6c:	0af42023          	sw	a5,160(s0)
     a70:	200087b7          	lui	a5,0x20008
     a74:	02078793          	addi	a5,a5,32 # 20008020 <UART6_TX_Buf_Length>
     a78:	4585                	li	a1,1
     a7a:	04000513          	li	a0,64
     a7e:	0af42423          	sw	a5,168(s0)
     a82:	40002937          	lui	s2,0x40002
     a86:	0a942623          	sw	s1,172(s0)
     a8a:	0a042823          	sw	zero,176(s0)
     a8e:	0a042a23          	sw	zero,180(s0)
     a92:	0a040c23          	sb	zero,184(s0)
     a96:	0a042e23          	sw	zero,188(s0)
     a9a:	1ba010ef          	jal	ra,1c54 <RCC_APB1PeriphClockCmd>
     a9e:	858a                	mv	a1,sp
     aa0:	80090513          	addi	a0,s2,-2048 # 40001800 <_eusrstack+0x1ffe1800>
     aa4:	348010ef          	jal	ra,1dec <USART_Init>
     aa8:	80090513          	addi	a0,s2,-2048
     aac:	4585                	li	a1,1
     aae:	3f8010ef          	jal	ra,1ea6 <USART_Cmd>
     ab2:	200097b7          	lui	a5,0x20009
     ab6:	fcc78793          	addi	a5,a5,-52 # 20008fcc <UART7_RX_DMA_DataBuf>
     aba:	0cf42223          	sw	a5,196(s0)
     abe:	200097b7          	lui	a5,0x20009
     ac2:	7d878793          	addi	a5,a5,2008 # 200097d8 <UART7_TX_DMA_DataBuf>
     ac6:	0cf42023          	sw	a5,192(s0)
     aca:	200097b7          	lui	a5,0x20009
     ace:	7cc78793          	addi	a5,a5,1996 # 200097cc <UART7_TX_Buf_Length>
     ad2:	4585                	li	a1,1
     ad4:	08000513          	li	a0,128
     ad8:	0cf42423          	sw	a5,200(s0)
     adc:	0c942623          	sw	s1,204(s0)
     ae0:	0c042823          	sw	zero,208(s0)
     ae4:	0c042a23          	sw	zero,212(s0)
     ae8:	0c040c23          	sb	zero,216(s0)
     aec:	0c042e23          	sw	zero,220(s0)
     af0:	164010ef          	jal	ra,1c54 <RCC_APB1PeriphClockCmd>
     af4:	858a                	mv	a1,sp
     af6:	c0090513          	addi	a0,s2,-1024
     afa:	2f2010ef          	jal	ra,1dec <USART_Init>
     afe:	c0090513          	addi	a0,s2,-1024
     b02:	4585                	li	a1,1
     b04:	3a2010ef          	jal	ra,1ea6 <USART_Cmd>
     b08:	2000a7b7          	lui	a5,0x2000a
     b0c:	77878793          	addi	a5,a5,1912 # 2000a778 <UART8_RX_DMA_DataBuf>
     b10:	0ef42223          	sw	a5,228(s0)
     b14:	2000b7b7          	lui	a5,0x2000b
     b18:	f8478793          	addi	a5,a5,-124 # 2000af84 <UART8_TX_DMA_DataBuf>
     b1c:	0ef42023          	sw	a5,224(s0)
     b20:	2000b7b7          	lui	a5,0x2000b
     b24:	f7878793          	addi	a5,a5,-136 # 2000af78 <UART8_TX_Buf_Length>
     b28:	4585                	li	a1,1
     b2a:	10000513          	li	a0,256
     b2e:	0ef42423          	sw	a5,232(s0)
     b32:	0e942623          	sw	s1,236(s0)
     b36:	0e042823          	sw	zero,240(s0)
     b3a:	0e042a23          	sw	zero,244(s0)
     b3e:	0e040c23          	sb	zero,248(s0)
     b42:	0e042e23          	sw	zero,252(s0)
     b46:	10e010ef          	jal	ra,1c54 <RCC_APB1PeriphClockCmd>
     b4a:	858a                	mv	a1,sp
     b4c:	40002537          	lui	a0,0x40002
     b50:	29c010ef          	jal	ra,1dec <USART_Init>
     b54:	4585                	li	a1,1
     b56:	40002537          	lui	a0,0x40002
     b5a:	34c010ef          	jal	ra,1ea6 <USART_Cmd>
     b5e:	8e9ff0ef          	jal	ra,446 <UART_DMA_Init>
     b62:	31a1                	jal	7aa <UART_Interrupt_Init>
     b64:	0141                	addi	sp,sp,16
     b66:	ee4ff06f          	j	24a <__riscv_restore_4>

00000b6a <NMI_Handler>:
NMI_Handler():
     b6a:	30200073          	mret

00000b6e <HardFault_Handler>:
HardFault_Handler():
     b6e:	0000a537          	lui	a0,0xa
     b72:	06c50513          	addi	a0,a0,108 # a06c <_sbrk+0x26>
     b76:	35a080ef          	jal	ra,8ed0 <puts>
     b7a:	3f2010ef          	jal	ra,1f6c <__get_MEPC>
     b7e:	85aa                	mv	a1,a0
     b80:	0000a537          	lui	a0,0xa
     b84:	08050513          	addi	a0,a0,128 # a080 <_sbrk+0x3a>
     b88:	22e080ef          	jal	ra,8db6 <iprintf>
     b8c:	3e6010ef          	jal	ra,1f72 <__get_MCAUSE>
     b90:	85aa                	mv	a1,a0
     b92:	0000a537          	lui	a0,0xa
     b96:	09050513          	addi	a0,a0,144 # a090 <_sbrk+0x4a>
     b9a:	21c080ef          	jal	ra,8db6 <iprintf>
     b9e:	3da010ef          	jal	ra,1f78 <__get_MTVAL>
     ba2:	85aa                	mv	a1,a0
     ba4:	0000a537          	lui	a0,0xa
     ba8:	0a050513          	addi	a0,a0,160 # a0a0 <_sbrk+0x5a>
     bac:	20a080ef          	jal	ra,8db6 <iprintf>
     bb0:	a001                	j	bb0 <HardFault_Handler+0x42>

00000bb2 <ETH_IRQHandler>:
ETH_IRQHandler():
     bb2:	78e040ef          	jal	ra,5340 <WCHNET_ETHIsr>
     bb6:	30200073          	mret

00000bba <TIM2_IRQHandler>:
TIM2_IRQHandler():
     bba:	4529                	li	a0,10
     bbc:	035040ef          	jal	ra,53f0 <WCHNET_TimeIsr>
     bc0:	4585                	li	a1,1
     bc2:	40000537          	lui	a0,0x40000
     bc6:	21a010ef          	jal	ra,1de0 <TIM_ClearITPendingBit>
     bca:	30200073          	mret

00000bce <DMA1_Channel4_IRQHandler>:
DMA1_Channel4_IRQHandler():
     bce:	6509                	lui	a0,0x2
     bd0:	31f000ef          	jal	ra,16ee <DMA_GetITStatus>
     bd4:	c505                	beqz	a0,bfc <DMA1_Channel4_IRQHandler+0x2e>
     bd6:	40020537          	lui	a0,0x40020
     bda:	04450513          	addi	a0,a0,68 # 40020044 <_eusrstack+0x20000044>
     bde:	4581                	li	a1,0
     be0:	28b000ef          	jal	ra,166a <DMA_Cmd>
     be4:	2000c7b7          	lui	a5,0x2000c
     be8:	f2478793          	addi	a5,a5,-220 # 2000bf24 <uart_data_t>
     bec:	2f98                	lbu	a4,24(a5)
     bee:	0007ae23          	sw	zero,28(a5)
     bf2:	6509                	lui	a0,0x2
     bf4:	0705                	addi	a4,a4,1
     bf6:	af98                	sb	a4,24(a5)
     bf8:	301000ef          	jal	ra,16f8 <DMA_ClearITPendingBit>
     bfc:	30200073          	mret

00000c00 <DMA1_Channel7_IRQHandler>:
DMA1_Channel7_IRQHandler():
     c00:	02000537          	lui	a0,0x2000
     c04:	2eb000ef          	jal	ra,16ee <DMA_GetITStatus>
     c08:	c51d                	beqz	a0,c36 <DMA1_Channel7_IRQHandler+0x36>
     c0a:	40020537          	lui	a0,0x40020
     c0e:	08050513          	addi	a0,a0,128 # 40020080 <_eusrstack+0x20000080>
     c12:	4581                	li	a1,0
     c14:	257000ef          	jal	ra,166a <DMA_Cmd>
     c18:	2000c7b7          	lui	a5,0x2000c
     c1c:	f2478793          	addi	a5,a5,-220 # 2000bf24 <uart_data_t>
     c20:	0387c703          	lbu	a4,56(a5)
     c24:	0207ae23          	sw	zero,60(a5)
     c28:	02000537          	lui	a0,0x2000
     c2c:	0705                	addi	a4,a4,1
     c2e:	02e78c23          	sb	a4,56(a5)
     c32:	2c7000ef          	jal	ra,16f8 <DMA_ClearITPendingBit>
     c36:	30200073          	mret

00000c3a <DMA1_Channel2_IRQHandler>:
DMA1_Channel2_IRQHandler():
     c3a:	02000513          	li	a0,32
     c3e:	2b1000ef          	jal	ra,16ee <DMA_GetITStatus>
     c42:	c515                	beqz	a0,c6e <DMA1_Channel2_IRQHandler+0x34>
     c44:	40020537          	lui	a0,0x40020
     c48:	0571                	addi	a0,a0,28
     c4a:	4581                	li	a1,0
     c4c:	21f000ef          	jal	ra,166a <DMA_Cmd>
     c50:	2000c7b7          	lui	a5,0x2000c
     c54:	f2478793          	addi	a5,a5,-220 # 2000bf24 <uart_data_t>
     c58:	0587c703          	lbu	a4,88(a5)
     c5c:	0407ae23          	sw	zero,92(a5)
     c60:	02000513          	li	a0,32
     c64:	0705                	addi	a4,a4,1
     c66:	04e78c23          	sb	a4,88(a5)
     c6a:	28f000ef          	jal	ra,16f8 <DMA_ClearITPendingBit>
     c6e:	30200073          	mret

00000c72 <DMA2_Channel5_IRQHandler>:
DMA2_Channel5_IRQHandler():
     c72:	10020537          	lui	a0,0x10020
     c76:	279000ef          	jal	ra,16ee <DMA_GetITStatus>
     c7a:	c51d                	beqz	a0,ca8 <DMA2_Channel5_IRQHandler+0x36>
     c7c:	40020537          	lui	a0,0x40020
     c80:	45850513          	addi	a0,a0,1112 # 40020458 <_eusrstack+0x20000458>
     c84:	4581                	li	a1,0
     c86:	1e5000ef          	jal	ra,166a <DMA_Cmd>
     c8a:	2000c7b7          	lui	a5,0x2000c
     c8e:	f2478793          	addi	a5,a5,-220 # 2000bf24 <uart_data_t>
     c92:	0787c703          	lbu	a4,120(a5)
     c96:	0607ae23          	sw	zero,124(a5)
     c9a:	10020537          	lui	a0,0x10020
     c9e:	0705                	addi	a4,a4,1
     ca0:	06e78c23          	sb	a4,120(a5)
     ca4:	255000ef          	jal	ra,16f8 <DMA_ClearITPendingBit>
     ca8:	30200073          	mret

00000cac <DMA2_Channel4_IRQHandler>:
DMA2_Channel4_IRQHandler():
     cac:	10002537          	lui	a0,0x10002
     cb0:	23f000ef          	jal	ra,16ee <DMA_GetITStatus>
     cb4:	c51d                	beqz	a0,ce2 <DMA2_Channel4_IRQHandler+0x36>
     cb6:	40020537          	lui	a0,0x40020
     cba:	44450513          	addi	a0,a0,1092 # 40020444 <_eusrstack+0x20000444>
     cbe:	4581                	li	a1,0
     cc0:	1ab000ef          	jal	ra,166a <DMA_Cmd>
     cc4:	2000c7b7          	lui	a5,0x2000c
     cc8:	f2478793          	addi	a5,a5,-220 # 2000bf24 <uart_data_t>
     ccc:	0987c703          	lbu	a4,152(a5)
     cd0:	0807ae23          	sw	zero,156(a5)
     cd4:	10002537          	lui	a0,0x10002
     cd8:	0705                	addi	a4,a4,1
     cda:	08e78c23          	sb	a4,152(a5)
     cde:	21b000ef          	jal	ra,16f8 <DMA_ClearITPendingBit>
     ce2:	30200073          	mret

00000ce6 <DMA2_Channel6_IRQHandler>:
DMA2_Channel6_IRQHandler():
     ce6:	10200537          	lui	a0,0x10200
     cea:	205000ef          	jal	ra,16ee <DMA_GetITStatus>
     cee:	c51d                	beqz	a0,d1c <DMA2_Channel6_IRQHandler+0x36>
     cf0:	40020537          	lui	a0,0x40020
     cf4:	46c50513          	addi	a0,a0,1132 # 4002046c <_eusrstack+0x2000046c>
     cf8:	4581                	li	a1,0
     cfa:	171000ef          	jal	ra,166a <DMA_Cmd>
     cfe:	2000c7b7          	lui	a5,0x2000c
     d02:	f2478793          	addi	a5,a5,-220 # 2000bf24 <uart_data_t>
     d06:	0b87c703          	lbu	a4,184(a5)
     d0a:	0a07ae23          	sw	zero,188(a5)
     d0e:	10200537          	lui	a0,0x10200
     d12:	0705                	addi	a4,a4,1
     d14:	0ae78c23          	sb	a4,184(a5)
     d18:	1e1000ef          	jal	ra,16f8 <DMA_ClearITPendingBit>
     d1c:	30200073          	mret

00000d20 <DMA2_Channel8_IRQHandler>:
DMA2_Channel8_IRQHandler():
     d20:	1141                	addi	sp,sp,-16
     d22:	c622                	sw	s0,12(sp)
     d24:	20000437          	lui	s0,0x20000
     d28:	00240513          	addi	a0,s0,2 # 20000002 <_data_vma+0x2>
     d2c:	1c3000ef          	jal	ra,16ee <DMA_GetITStatus>
     d30:	c51d                	beqz	a0,d5e <DMA2_Channel8_IRQHandler+0x3e>
     d32:	40020537          	lui	a0,0x40020
     d36:	49050513          	addi	a0,a0,1168 # 40020490 <_eusrstack+0x20000490>
     d3a:	4581                	li	a1,0
     d3c:	12f000ef          	jal	ra,166a <DMA_Cmd>
     d40:	2000c7b7          	lui	a5,0x2000c
     d44:	f2478793          	addi	a5,a5,-220 # 2000bf24 <uart_data_t>
     d48:	0d87c703          	lbu	a4,216(a5)
     d4c:	0c07ae23          	sw	zero,220(a5)
     d50:	00240513          	addi	a0,s0,2
     d54:	0705                	addi	a4,a4,1
     d56:	0ce78c23          	sb	a4,216(a5)
     d5a:	19f000ef          	jal	ra,16f8 <DMA_ClearITPendingBit>
     d5e:	4432                	lw	s0,12(sp)
     d60:	0141                	addi	sp,sp,16
     d62:	30200073          	mret

00000d66 <DMA2_Channel10_IRQHandler>:
DMA2_Channel10_IRQHandler():
     d66:	1141                	addi	sp,sp,-16
     d68:	c622                	sw	s0,12(sp)
     d6a:	20000437          	lui	s0,0x20000
     d6e:	20040513          	addi	a0,s0,512 # 20000200 <UART1_RX_DMA_DataBuf+0x3c>
     d72:	17d000ef          	jal	ra,16ee <DMA_GetITStatus>
     d76:	c51d                	beqz	a0,da4 <DMA2_Channel10_IRQHandler+0x3e>
     d78:	40020537          	lui	a0,0x40020
     d7c:	4b050513          	addi	a0,a0,1200 # 400204b0 <_eusrstack+0x200004b0>
     d80:	4581                	li	a1,0
     d82:	0e9000ef          	jal	ra,166a <DMA_Cmd>
     d86:	2000c7b7          	lui	a5,0x2000c
     d8a:	f2478793          	addi	a5,a5,-220 # 2000bf24 <uart_data_t>
     d8e:	0f87c703          	lbu	a4,248(a5)
     d92:	0e07ae23          	sw	zero,252(a5)
     d96:	20040513          	addi	a0,s0,512
     d9a:	0705                	addi	a4,a4,1
     d9c:	0ee78c23          	sb	a4,248(a5)
     da0:	159000ef          	jal	ra,16f8 <DMA_ClearITPendingBit>
     da4:	4432                	lw	s0,12(sp)
     da6:	0141                	addi	sp,sp,16
     da8:	30200073          	mret

00000dac <WCHNET_LibInit>:
WCHNET_LibInit():
     dac:	c84ff2ef          	jal	t0,230 <__riscv_save_0>
     db0:	7179                	addi	sp,sp,-48
     db2:	5f000793          	li	a5,1520
     db6:	ce3e                	sw	a5,28(sp)
     db8:	32000793          	li	a5,800
     dbc:	d03e                	sw	a5,32(sp)
     dbe:	6785                	lui	a5,0x1
     dc0:	1f878793          	addi	a5,a5,504 # 11f8 <uart_rx+0xca>
     dc4:	d23e                	sw	a5,36(sp)
     dc6:	47a9                	li	a5,10
     dc8:	842a                	mv	s0,a0
     dca:	d43e                	sw	a5,40(sp)
     dcc:	0868                	addi	a0,sp,28
     dce:	02b00793          	li	a5,43
     dd2:	d63e                	sw	a5,44(sp)
     dd4:	c62e                	sw	a1,12(sp)
     dd6:	c432                	sw	a2,8(sp)
     dd8:	c236                	sw	a3,4(sp)
     dda:	506040ef          	jal	ra,52e0 <WCHNET_ConfigLIB>
     dde:	4692                	lw	a3,4(sp)
     de0:	4622                	lw	a2,8(sp)
     de2:	45b2                	lw	a1,12(sp)
     de4:	8522                	mv	a0,s0
     de6:	3fe040ef          	jal	ra,51e4 <WCHNET_Init>
     dea:	6145                	addi	sp,sp,48
     dec:	c68ff06f          	j	254 <__riscv_restore_0>

00000df0 <SET_MCO>:
SET_MCO():
     df0:	c40ff2ef          	jal	t0,230 <__riscv_save_0>
     df4:	4501                	li	a0,0
     df6:	6d5000ef          	jal	ra,1cca <RCC_PLL3Cmd>
     dfa:	4541                	li	a0,16
     dfc:	6ad000ef          	jal	ra,1ca8 <RCC_PREDIV2Config>
     e00:	6535                	lui	a0,0xd
     e02:	6b7000ef          	jal	ra,1cb8 <RCC_PLL3Config>
     e06:	452d                	li	a0,11
     e08:	66b000ef          	jal	ra,1c72 <RCC_MCOConfig>
     e0c:	4505                	li	a0,1
     e0e:	6bd000ef          	jal	ra,1cca <RCC_PLL3Cmd>
     e12:	06400513          	li	a0,100
     e16:	0f0010ef          	jal	ra,1f06 <Delay_Ms>
     e1a:	03d00513          	li	a0,61
     e1e:	65d000ef          	jal	ra,1c7a <RCC_GetFlagStatus>
     e22:	c519                	beqz	a0,e30 <SET_MCO+0x40>
     e24:	4585                	li	a1,1
     e26:	4505                	li	a0,1
     e28:	5f1000ef          	jal	ra,1c18 <RCC_AHBPeriphClockCmd>
     e2c:	c28ff06f          	j	254 <__riscv_restore_0>
     e30:	1f400513          	li	a0,500
     e34:	b7cd                	j	e16 <SET_MCO+0x26>

00000e36 <TIM2_Init>:
TIM2_Init():
     e36:	bfaff2ef          	jal	t0,230 <__riscv_save_0>
     e3a:	1141                	addi	sp,sp,-16
     e3c:	4585                	li	a1,1
     e3e:	4505                	li	a0,1
     e40:	c202                	sw	zero,4(sp)
     e42:	c402                	sw	zero,8(sp)
     e44:	00011623          	sh	zero,12(sp)
     e48:	60d000ef          	jal	ra,1c54 <RCC_APB1PeriphClockCmd>
     e4c:	6789                	lui	a5,0x2
     e4e:	c1f78793          	addi	a5,a5,-993 # 1c1f <RCC_AHBPeriphClockCmd+0x7>
     e52:	c23e                	sw	a5,4(sp)
     e54:	004c                	addi	a1,sp,4
     e56:	06300793          	li	a5,99
     e5a:	40000537          	lui	a0,0x40000
     e5e:	c43e                	sw	a5,8(sp)
     e60:	6ad000ef          	jal	ra,1d0c <TIM_TimeBaseInit>
     e64:	4605                	li	a2,1
     e66:	4585                	li	a1,1
     e68:	40000537          	lui	a0,0x40000
     e6c:	763000ef          	jal	ra,1dce <TIM_ITConfig>
     e70:	4585                	li	a1,1
     e72:	40000537          	lui	a0,0x40000
     e76:	741000ef          	jal	ra,1db6 <TIM_Cmd>
     e7a:	4585                	li	a1,1
     e7c:	40000537          	lui	a0,0x40000
     e80:	761000ef          	jal	ra,1de0 <TIM_ClearITPendingBit>
     e84:	e000e7b7          	lui	a5,0xe000e
     e88:	f8000713          	li	a4,-128
     e8c:	42e78623          	sb	a4,1068(a5) # e000e42c <_eusrstack+0xbffee42c>
     e90:	6705                	lui	a4,0x1
     e92:	10e7a223          	sw	a4,260(a5)
     e96:	0141                	addi	sp,sp,16
     e98:	bbcff06f          	j	254 <__riscv_restore_0>

00000e9c <WCHNET_CreatTcpSocket>:
WCHNET_CreatTcpSocket():
     e9c:	b7aff2ef          	jal	t0,216 <__riscv_save_4>
     ea0:	7139                	addi	sp,sp,-64
     ea2:	8a2a                	mv	s4,a0
     ea4:	03c00613          	li	a2,60
     ea8:	4581                	li	a1,0
     eaa:	0048                	addi	a0,sp,4
     eac:	bb4ff0ef          	jal	ra,260 <memset>
     eb0:	200007b7          	lui	a5,0x20000
     eb4:	0707a783          	lw	a5,112(a5) # 20000070 <DESIP>
     eb8:	4401                	li	s0,0
     eba:	d83e                	sw	a5,48(sp)
     ebc:	8161d783          	lhu	a5,-2026(gp) # 20000086 <desport>
     ec0:	d43e                	sw	a5,40(sp)
     ec2:	478d                	li	a5,3
     ec4:	d03e                	sw	a5,32(sp)
     ec6:	6785                	lui	a5,0x1
     ec8:	c8078793          	addi	a5,a5,-896 # c80 <DMA2_Channel5_IRQHandler+0xe>
     ecc:	c83e                	sw	a5,16(sp)
     ece:	86818493          	addi	s1,gp,-1944 # 200000d8 <_edata>
     ed2:	49a1                	li	s3,8
     ed4:	81818713          	addi	a4,gp,-2024 # 20000088 <srcport>
     ed8:	87018913          	addi	s2,gp,-1936 # 200000e0 <tcp_connect_num>
     edc:	231e                	lhu	a5,0(a4)
     ede:	00094503          	lbu	a0,0(s2)
     ee2:	004c                	addi	a1,sp,4
     ee4:	00178693          	addi	a3,a5,1
     ee8:	d63e                	sw	a5,44(sp)
     eea:	9526                	add	a0,a0,s1
     eec:	008a07b3          	add	a5,s4,s0
     ef0:	a316                	sh	a3,0(a4)
     ef2:	c63e                	sw	a5,12(sp)
     ef4:	564040ef          	jal	ra,5458 <WCHNET_SocketCreat>
     ef8:	00094783          	lbu	a5,0(s2)
     efc:	0405                	addi	s0,s0,1
     efe:	97a6                	add	a5,a5,s1
     f00:	2388                	lbu	a0,0(a5)
     f02:	64b040ef          	jal	ra,5d4c <WCHNET_SocketConnect>
     f06:	fd3417e3          	bne	s0,s3,ed4 <WCHNET_CreatTcpSocket+0x38>
     f0a:	6121                	addi	sp,sp,64
     f0c:	b3eff06f          	j	24a <__riscv_restore_4>

00000f10 <WCHNET_HandleSockInt>:
WCHNET_HandleSockInt():
     f10:	b06ff2ef          	jal	t0,216 <__riscv_save_4>
     f14:	0045f793          	andi	a5,a1,4
     f18:	1141                	addi	sp,sp,-16
     f1a:	892e                	mv	s2,a1
     f1c:	cbb1                	beqz	a5,f70 <WCHNET_HandleSockInt+0x60>
     f1e:	4581                	li	a1,0
     f20:	89aa                	mv	s3,a0
     f22:	101040ef          	jal	ra,5822 <WCHNET_SocketRecvLen>
     f26:	2000c7b7          	lui	a5,0x2000c
     f2a:	f2478793          	addi	a5,a5,-220 # 2000bf24 <uart_data_t>
     f2e:	00599413          	slli	s0,s3,0x5
     f32:	943e                	add	s0,s0,a5
     f34:	3c04                	lbu	s1,25(s0)
     f36:	2c1c                	lbu	a5,24(s0)
     f38:	c62a                	sw	a0,12(sp)
     f3a:	4711                	li	a4,4
     f3c:	40f487b3          	sub	a5,s1,a5
     f40:	02f74863          	blt	a4,a5,f70 <WCHNET_HandleSockInt+0x60>
     f44:	4795                	li	a5,5
     f46:	02f4f4b3          	remu	s1,s1,a5
     f4a:	32000793          	li	a5,800
     f4e:	400c                	lw	a1,0(s0)
     f50:	0070                	addi	a2,sp,12
     f52:	854e                	mv	a0,s3
     f54:	02f487b3          	mul	a5,s1,a5
     f58:	95be                	add	a1,a1,a5
     f5a:	6f4040ef          	jal	ra,564e <WCHNET_SocketRecv>
     f5e:	e909                	bnez	a0,f70 <WCHNET_HandleSockInt+0x60>
     f60:	441c                	lw	a5,8(s0)
     f62:	0486                	slli	s1,s1,0x1
     f64:	94be                	add	s1,s1,a5
     f66:	47b2                	lw	a5,12(sp)
     f68:	a09e                	sh	a5,0(s1)
     f6a:	3c1c                	lbu	a5,25(s0)
     f6c:	0785                	addi	a5,a5,1
     f6e:	bc1c                	sb	a5,25(s0)
     f70:	04097913          	andi	s2,s2,64
     f74:	00090663          	beqz	s2,f80 <WCHNET_HandleSockInt+0x70>
     f78:	0c800513          	li	a0,200
     f7c:	78b000ef          	jal	ra,1f06 <Delay_Ms>
     f80:	0141                	addi	sp,sp,16
     f82:	ac8ff06f          	j	24a <__riscv_restore_4>

00000f86 <WCHNET_HandleGlobalInt>:
WCHNET_HandleGlobalInt():
     f86:	aaaff2ef          	jal	t0,230 <__riscv_save_0>
     f8a:	3b5040ef          	jal	ra,5b3e <WCHNET_GetGlobalInt>
     f8e:	00457793          	andi	a5,a0,4
     f92:	842a                	mv	s0,a0
     f94:	c399                	beqz	a5,f9a <WCHNET_HandleGlobalInt+0x14>
     f96:	5ad040ef          	jal	ra,5d42 <WCHNET_GetPHYStatus>
     f9a:	8841                	andi	s0,s0,16
     f9c:	c00d                	beqz	s0,fbe <WCHNET_HandleGlobalInt+0x38>
     f9e:	4401                	li	s0,0
     fa0:	4921                	li	s2,8
     fa2:	0ff47493          	andi	s1,s0,255
     fa6:	8526                	mv	a0,s1
     fa8:	3ab040ef          	jal	ra,5b52 <WCHNET_GetSocketInt>
     fac:	85aa                	mv	a1,a0
     fae:	c119                	beqz	a0,fb4 <WCHNET_HandleGlobalInt+0x2e>
     fb0:	8526                	mv	a0,s1
     fb2:	3fb9                	jal	f10 <WCHNET_HandleSockInt>
     fb4:	0405                	addi	s0,s0,1
     fb6:	0442                	slli	s0,s0,0x10
     fb8:	8041                	srli	s0,s0,0x10
     fba:	ff2414e3          	bne	s0,s2,fa2 <WCHNET_HandleGlobalInt+0x1c>
     fbe:	a96ff06f          	j	254 <__riscv_restore_0>

00000fc2 <uart_tx>:
uart_tx():
     fc2:	a46ff2ef          	jal	t0,208 <__riscv_save_10>
     fc6:	400204b7          	lui	s1,0x40020
     fca:	2000ca37          	lui	s4,0x2000c
     fce:	6b29                	lui	s6,0xa
     fd0:	f24a0993          	addi	s3,s4,-220 # 2000bf24 <uart_data_t>
     fd4:	4901                	li	s2,0
     fd6:	f24a0413          	addi	s0,s4,-220
     fda:	04448a93          	addi	s5,s1,68 # 40020044 <_eusrstack+0x20000044>
     fde:	0b0b0b13          	addi	s6,s6,176 # a0b0 <_sbrk+0x6a>
     fe2:	4b048b93          	addi	s7,s1,1200
     fe6:	49048c13          	addi	s8,s1,1168
     fea:	46c48c93          	addi	s9,s1,1132
     fee:	44448d13          	addi	s10,s1,1092
     ff2:	01c9a783          	lw	a5,28(s3) # c001c <_data_lma+0xb5ddc>
     ff6:	eba9                	bnez	a5,1048 <uart_tx+0x86>
     ff8:	0189c783          	lbu	a5,24(s3)
     ffc:	0199c703          	lbu	a4,25(s3)
    1000:	04f70463          	beq	a4,a5,1048 <uart_tx+0x86>
    1004:	4715                	li	a4,5
    1006:	02e7f7b3          	remu	a5,a5,a4
    100a:	fff90693          	addi	a3,s2,-1
    100e:	32000713          	li	a4,800
    1012:	0ff6f693          	andi	a3,a3,255
    1016:	4619                	li	a2,6
    1018:	02e78733          	mul	a4,a5,a4
    101c:	0786                	slli	a5,a5,0x1
    101e:	00d66663          	bltu	a2,a3,102a <uart_tx+0x68>
    1022:	068a                	slli	a3,a3,0x2
    1024:	96da                	add	a3,a3,s6
    1026:	4294                	lw	a3,0(a3)
    1028:	8682                	jr	a3
    102a:	f24a2683          	lw	a3,-220(s4)
    102e:	4585                	li	a1,1
    1030:	8556                	mv	a0,s5
    1032:	9736                	add	a4,a4,a3
    1034:	00eaa623          	sw	a4,12(s5)
    1038:	4418                	lw	a4,8(s0)
    103a:	97ba                	add	a5,a5,a4
    103c:	239e                	lhu	a5,0(a5)
    103e:	00faa223          	sw	a5,4(s5)
    1042:	4785                	li	a5,1
    1044:	cc5c                	sw	a5,28(s0)
    1046:	2515                	jal	166a <DMA_Cmd>
    1048:	0905                	addi	s2,s2,1
    104a:	0ff97913          	andi	s2,s2,255
    104e:	47a1                	li	a5,8
    1050:	02098993          	addi	s3,s3,32
    1054:	f8f91fe3          	bne	s2,a5,ff2 <uart_tx+0x30>
    1058:	9e8ff06f          	j	240 <__riscv_restore_10>
    105c:	5014                	lw	a3,32(s0)
    105e:	08048513          	addi	a0,s1,128
    1062:	9736                	add	a4,a4,a3
    1064:	c558                	sw	a4,12(a0)
    1066:	5418                	lw	a4,40(s0)
    1068:	97ba                	add	a5,a5,a4
    106a:	239e                	lhu	a5,0(a5)
    106c:	c15c                	sw	a5,4(a0)
    106e:	4785                	li	a5,1
    1070:	dc5c                	sw	a5,60(s0)
    1072:	4585                	li	a1,1
    1074:	bfc9                	j	1046 <uart_tx+0x84>
    1076:	4034                	lw	a3,64(s0)
    1078:	01c48513          	addi	a0,s1,28
    107c:	9736                	add	a4,a4,a3
    107e:	c558                	sw	a4,12(a0)
    1080:	4438                	lw	a4,72(s0)
    1082:	97ba                	add	a5,a5,a4
    1084:	239e                	lhu	a5,0(a5)
    1086:	c15c                	sw	a5,4(a0)
    1088:	4785                	li	a5,1
    108a:	cc7c                	sw	a5,92(s0)
    108c:	b7dd                	j	1072 <uart_tx+0xb0>
    108e:	5034                	lw	a3,96(s0)
    1090:	45848513          	addi	a0,s1,1112
    1094:	9736                	add	a4,a4,a3
    1096:	c558                	sw	a4,12(a0)
    1098:	5438                	lw	a4,104(s0)
    109a:	97ba                	add	a5,a5,a4
    109c:	239e                	lhu	a5,0(a5)
    109e:	c15c                	sw	a5,4(a0)
    10a0:	4785                	li	a5,1
    10a2:	dc7c                	sw	a5,124(s0)
    10a4:	b7f9                	j	1072 <uart_tx+0xb0>
    10a6:	08042683          	lw	a3,128(s0)
    10aa:	4585                	li	a1,1
    10ac:	856a                	mv	a0,s10
    10ae:	9736                	add	a4,a4,a3
    10b0:	00ed2623          	sw	a4,12(s10)
    10b4:	08842703          	lw	a4,136(s0)
    10b8:	97ba                	add	a5,a5,a4
    10ba:	239e                	lhu	a5,0(a5)
    10bc:	00fd2223          	sw	a5,4(s10)
    10c0:	4785                	li	a5,1
    10c2:	08f42e23          	sw	a5,156(s0)
    10c6:	b741                	j	1046 <uart_tx+0x84>
    10c8:	0a042683          	lw	a3,160(s0)
    10cc:	4585                	li	a1,1
    10ce:	8566                	mv	a0,s9
    10d0:	9736                	add	a4,a4,a3
    10d2:	00eca623          	sw	a4,12(s9)
    10d6:	0a842703          	lw	a4,168(s0)
    10da:	97ba                	add	a5,a5,a4
    10dc:	239e                	lhu	a5,0(a5)
    10de:	00fca223          	sw	a5,4(s9)
    10e2:	4785                	li	a5,1
    10e4:	0af42e23          	sw	a5,188(s0)
    10e8:	bfb9                	j	1046 <uart_tx+0x84>
    10ea:	0c042683          	lw	a3,192(s0)
    10ee:	4585                	li	a1,1
    10f0:	8562                	mv	a0,s8
    10f2:	9736                	add	a4,a4,a3
    10f4:	00ec2623          	sw	a4,12(s8)
    10f8:	0c842703          	lw	a4,200(s0)
    10fc:	97ba                	add	a5,a5,a4
    10fe:	239e                	lhu	a5,0(a5)
    1100:	00fc2223          	sw	a5,4(s8)
    1104:	4785                	li	a5,1
    1106:	0cf42e23          	sw	a5,220(s0)
    110a:	bf35                	j	1046 <uart_tx+0x84>
    110c:	0e042683          	lw	a3,224(s0)
    1110:	4585                	li	a1,1
    1112:	855e                	mv	a0,s7
    1114:	9736                	add	a4,a4,a3
    1116:	00eba623          	sw	a4,12(s7) # 300c <pbuf_alloc+0x60>
    111a:	0e842703          	lw	a4,232(s0)
    111e:	97ba                	add	a5,a5,a4
    1120:	239e                	lhu	a5,0(a5)
    1122:	00fba223          	sw	a5,4(s7)
    1126:	4785                	li	a5,1
    1128:	0ef42e23          	sw	a5,252(s0)
    112c:	bf29                	j	1046 <uart_tx+0x84>

0000112e <uart_rx>:
uart_rx():
    112e:	8e8ff2ef          	jal	t0,216 <__riscv_save_4>
    1132:	1141                	addi	sp,sp,-16
    1134:	2000c437          	lui	s0,0x2000c
    1138:	6a29                	lui	s4,0xa
    113a:	6985                	lui	s3,0x1
    113c:	c602                	sw	zero,12(sp)
    113e:	f2440413          	addi	s0,s0,-220 # 2000bf24 <uart_data_t>
    1142:	4901                	li	s2,0
    1144:	4a99                	li	s5,6
    1146:	40020b37          	lui	s6,0x40020
    114a:	0cca0a13          	addi	s4,s4,204 # a0cc <_sbrk+0x86>
    114e:	80098993          	addi	s3,s3,-2048 # 800 <__stack_size>
    1152:	fff90793          	addi	a5,s2,-1
    1156:	0ff7f793          	andi	a5,a5,255
    115a:	00fae663          	bltu	s5,a5,1166 <uart_rx+0x38>
    115e:	078a                	slli	a5,a5,0x2
    1160:	97d2                	add	a5,a5,s4
    1162:	439c                	lw	a5,0(a5)
    1164:	8782                	jr	a5
    1166:	05cb2783          	lw	a5,92(s6) # 4002005c <_eusrstack+0x2000005c>
    116a:	2466                	lhu	s1,14(s0)
    116c:	06f48663          	beq	s1,a5,11d8 <uart_rx+0xaa>
    1170:	4858                	lw	a4,20(s0)
    1172:	8c9d                	sub	s1,s1,a5
    1174:	a47e                	sh	a5,14(s0)
    1176:	481c                	lw	a5,16(s0)
    1178:	7ff4f493          	andi	s1,s1,2047
    117c:	94ba                	add	s1,s1,a4
    117e:	c844                	sw	s1,20(s0)
    1180:	8c9d                	sub	s1,s1,a5
    1182:	0099f763          	bgeu	s3,s1,1190 <uart_rx+0x62>
    1186:	00042823          	sw	zero,16(s0)
    118a:	00042a23          	sw	zero,20(s0)
    118e:	4481                	li	s1,0
    1190:	481c                	lw	a5,16(s0)
    1192:	7ff7f793          	andi	a5,a5,2047
    1196:	40f98733          	sub	a4,s3,a5
    119a:	00e4f363          	bgeu	s1,a4,11a0 <uart_rx+0x72>
    119e:	8726                	mv	a4,s1
    11a0:	c63a                	sw	a4,12(sp)
    11a2:	cf01                	beqz	a4,11ba <uart_rx+0x8c>
    11a4:	404c                	lw	a1,4(s0)
    11a6:	0070                	addi	a2,sp,12
    11a8:	854a                	mv	a0,s2
    11aa:	95be                	add	a1,a1,a5
    11ac:	341040ef          	jal	ra,5cec <WCHNET_SocketSend>
    11b0:	e509                	bnez	a0,11ba <uart_rx+0x8c>
    11b2:	481c                	lw	a5,16(s0)
    11b4:	4732                	lw	a4,12(sp)
    11b6:	97ba                	add	a5,a5,a4
    11b8:	c81c                	sw	a5,16(s0)
    11ba:	47b2                	lw	a5,12(sp)
    11bc:	00978e63          	beq	a5,s1,11d8 <uart_rx+0xaa>
    11c0:	404c                	lw	a1,4(s0)
    11c2:	8c9d                	sub	s1,s1,a5
    11c4:	0070                	addi	a2,sp,12
    11c6:	854a                	mv	a0,s2
    11c8:	c626                	sw	s1,12(sp)
    11ca:	323040ef          	jal	ra,5cec <WCHNET_SocketSend>
    11ce:	e509                	bnez	a0,11d8 <uart_rx+0xaa>
    11d0:	481c                	lw	a5,16(s0)
    11d2:	4732                	lw	a4,12(sp)
    11d4:	97ba                	add	a5,a5,a4
    11d6:	c81c                	sw	a5,16(s0)
    11d8:	0905                	addi	s2,s2,1
    11da:	0ff97913          	andi	s2,s2,255
    11de:	47a1                	li	a5,8
    11e0:	02040413          	addi	s0,s0,32
    11e4:	f6f917e3          	bne	s2,a5,1152 <uart_rx+0x24>
    11e8:	0141                	addi	sp,sp,16
    11ea:	860ff06f          	j	24a <__riscv_restore_4>
    11ee:	070b2783          	lw	a5,112(s6)
    11f2:	bfa5                	j	116a <uart_rx+0x3c>
    11f4:	034b2783          	lw	a5,52(s6)
    11f8:	bf8d                	j	116a <uart_rx+0x3c>
    11fa:	434b2783          	lw	a5,1076(s6)
    11fe:	b7b5                	j	116a <uart_rx+0x3c>
    1200:	420b2783          	lw	a5,1056(s6)
    1204:	b79d                	j	116a <uart_rx+0x3c>
    1206:	484b2783          	lw	a5,1156(s6)
    120a:	b785                	j	116a <uart_rx+0x3c>
    120c:	4a4b2783          	lw	a5,1188(s6)
    1210:	bfa9                	j	116a <uart_rx+0x3c>
    1212:	4c4b2783          	lw	a5,1220(s6)
    1216:	bf91                	j	116a <uart_rx+0x3c>

00001218 <main>:
main():
    1218:	818ff2ef          	jal	t0,230 <__riscv_save_0>
    121c:	1101                	addi	sp,sp,-32
    121e:	4c3000ef          	jal	ra,1ee0 <Delay_Init>
    1222:	0068                	addi	a0,sp,12
    1224:	0ef000ef          	jal	ra,1b12 <RCC_GetClocksFreq>
    1228:	36e1                	jal	df0 <SET_MCO>
    122a:	3131                	jal	e36 <TIM2_Init>
    122c:	81018513          	addi	a0,gp,-2032 # 20000080 <MACAddr>
    1230:	6a4030ef          	jal	ra,48d4 <WCH_GetMac>
    1234:	e56ff0ef          	jal	ra,88a <BSP_Uart_Init>
    1238:	0000a537          	lui	a0,0xa
    123c:	10850513          	addi	a0,a0,264 # a108 <MemSize+0x10>
    1240:	69b000ef          	jal	ra,20da <WCHNET_SetHostname>
    1244:	81018693          	addi	a3,gp,-2032 # 20000080 <MACAddr>
    1248:	80c18613          	addi	a2,gp,-2036 # 2000007c <IPMask>
    124c:	80418593          	addi	a1,gp,-2044 # 20000074 <GWIPAddr>
    1250:	80818513          	addi	a0,gp,-2040 # 20000078 <IPAddr>
    1254:	3ea1                	jal	dac <WCHNET_LibInit>
    1256:	c511                	beqz	a0,1262 <main+0x4a>
    1258:	a001                	j	1258 <main+0x40>
    125a:	06400513          	li	a0,100
    125e:	4a9000ef          	jal	ra,1f06 <Delay_Ms>
    1262:	2e1040ef          	jal	ra,5d42 <WCHNET_GetPHYStatus>
    1266:	8911                	andi	a0,a0,4
    1268:	d96d                	beqz	a0,125a <main+0x42>
    126a:	20018537          	lui	a0,0x20018
    126e:	8ac50513          	addi	a0,a0,-1876 # 200178ac <SocketRecvBuf>
    1272:	312d                	jal	e9c <WCHNET_CreatTcpSocket>
    1274:	12d040ef          	jal	ra,5ba0 <WCHNET_MainTask>
    1278:	093040ef          	jal	ra,5b0a <WCHNET_QueryGlobalInt>
    127c:	c111                	beqz	a0,1280 <main+0x68>
    127e:	3321                	jal	f86 <WCHNET_HandleGlobalInt>
    1280:	3389                	jal	fc2 <uart_tx>
    1282:	3575                	jal	112e <uart_rx>
    1284:	bfc5                	j	1274 <main+0x5c>

00001286 <SystemInit>:
SystemInit():
    1286:	400217b7          	lui	a5,0x40021
    128a:	4398                	lw	a4,0(a5)
    128c:	f8ff06b7          	lui	a3,0xf8ff0
    1290:	1141                	addi	sp,sp,-16
    1292:	00176713          	ori	a4,a4,1
    1296:	c398                	sw	a4,0(a5)
    1298:	43d8                	lw	a4,4(a5)
    129a:	00020637          	lui	a2,0x20
    129e:	8f75                	and	a4,a4,a3
    12a0:	c3d8                	sw	a4,4(a5)
    12a2:	4398                	lw	a4,0(a5)
    12a4:	fef706b7          	lui	a3,0xfef70
    12a8:	16fd                	addi	a3,a3,-1
    12aa:	8f75                	and	a4,a4,a3
    12ac:	c398                	sw	a4,0(a5)
    12ae:	4398                	lw	a4,0(a5)
    12b0:	fffc06b7          	lui	a3,0xfffc0
    12b4:	16fd                	addi	a3,a3,-1
    12b6:	8f75                	and	a4,a4,a3
    12b8:	c398                	sw	a4,0(a5)
    12ba:	43d8                	lw	a4,4(a5)
    12bc:	ff8106b7          	lui	a3,0xff810
    12c0:	16fd                	addi	a3,a3,-1
    12c2:	8f75                	and	a4,a4,a3
    12c4:	c3d8                	sw	a4,4(a5)
    12c6:	009f0737          	lui	a4,0x9f0
    12ca:	c798                	sw	a4,8(a5)
    12cc:	c402                	sw	zero,8(sp)
    12ce:	c602                	sw	zero,12(sp)
    12d0:	4398                	lw	a4,0(a5)
    12d2:	66c1                	lui	a3,0x10
    12d4:	8f55                	or	a4,a4,a3
    12d6:	c398                	sw	a4,0(a5)
    12d8:	400216b7          	lui	a3,0x40021
    12dc:	50000713          	li	a4,1280
    12e0:	429c                	lw	a5,0(a3)
    12e2:	8ff1                	and	a5,a5,a2
    12e4:	c63e                	sw	a5,12(sp)
    12e6:	47a2                	lw	a5,8(sp)
    12e8:	0785                	addi	a5,a5,1
    12ea:	c43e                	sw	a5,8(sp)
    12ec:	47b2                	lw	a5,12(sp)
    12ee:	e781                	bnez	a5,12f6 <SystemInit+0x70>
    12f0:	47a2                	lw	a5,8(sp)
    12f2:	fee797e3          	bne	a5,a4,12e0 <SystemInit+0x5a>
    12f6:	400217b7          	lui	a5,0x40021
    12fa:	439c                	lw	a5,0(a5)
    12fc:	00e79713          	slli	a4,a5,0xe
    1300:	06075b63          	bgez	a4,1376 <SystemInit+0xf0>
    1304:	4785                	li	a5,1
    1306:	c63e                	sw	a5,12(sp)
    1308:	4732                	lw	a4,12(sp)
    130a:	4785                	li	a5,1
    130c:	06f71363          	bne	a4,a5,1372 <SystemInit+0xec>
    1310:	400217b7          	lui	a5,0x40021
    1314:	43d8                	lw	a4,4(a5)
    1316:	ffc106b7          	lui	a3,0xffc10
    131a:	16fd                	addi	a3,a3,-1
    131c:	c3d8                	sw	a4,4(a5)
    131e:	43d8                	lw	a4,4(a5)
    1320:	c3d8                	sw	a4,4(a5)
    1322:	43d8                	lw	a4,4(a5)
    1324:	40076713          	ori	a4,a4,1024
    1328:	c3d8                	sw	a4,4(a5)
    132a:	43d8                	lw	a4,4(a5)
    132c:	8f75                	and	a4,a4,a3
    132e:	c3d8                	sw	a4,4(a5)
    1330:	43d8                	lw	a4,4(a5)
    1332:	002906b7          	lui	a3,0x290
    1336:	8f55                	or	a4,a4,a3
    1338:	c3d8                	sw	a4,4(a5)
    133a:	40021737          	lui	a4,0x40021
    133e:	431c                	lw	a5,0(a4)
    1340:	010006b7          	lui	a3,0x1000
    1344:	8fd5                	or	a5,a5,a3
    1346:	c31c                	sw	a5,0(a4)
    1348:	400217b7          	lui	a5,0x40021
    134c:	4398                	lw	a4,0(a5)
    134e:	00671693          	slli	a3,a4,0x6
    1352:	fe06dde3          	bgez	a3,134c <SystemInit+0xc6>
    1356:	43d8                	lw	a4,4(a5)
    1358:	400216b7          	lui	a3,0x40021
    135c:	9b71                	andi	a4,a4,-4
    135e:	c3d8                	sw	a4,4(a5)
    1360:	43d8                	lw	a4,4(a5)
    1362:	00276713          	ori	a4,a4,2
    1366:	c3d8                	sw	a4,4(a5)
    1368:	4721                	li	a4,8
    136a:	42dc                	lw	a5,4(a3)
    136c:	8bb1                	andi	a5,a5,12
    136e:	fee79ee3          	bne	a5,a4,136a <SystemInit+0xe4>
    1372:	0141                	addi	sp,sp,16
    1374:	8082                	ret
    1376:	c602                	sw	zero,12(sp)
    1378:	bf41                	j	1308 <SystemInit+0x82>
    137a:	a001                	j	137a <SystemInit+0xf4>
    137c:	a001                	j	137c <SystemInit+0xf6>

0000137e <Ecall_M_Mode_Handler>:
Ecall_M_Mode_Handler():
    137e:	a001                	j	137e <Ecall_M_Mode_Handler>

00001380 <Ecall_U_Mode_Handler>:
Ecall_U_Mode_Handler():
    1380:	a001                	j	1380 <Ecall_U_Mode_Handler>

00001382 <Break_Point_Handler>:
Break_Point_Handler():
    1382:	a001                	j	1382 <Break_Point_Handler>

00001384 <SysTick_Handler>:
SysTick_Handler():
    1384:	a001                	j	1384 <SysTick_Handler>

00001386 <SW_handler>:
SW_handler():
    1386:	a001                	j	1386 <SW_handler>

00001388 <WWDG_IRQHandler>:
WWDG_IRQHandler():
    1388:	a001                	j	1388 <WWDG_IRQHandler>

0000138a <PVD_IRQHandler>:
PVD_IRQHandler():
    138a:	a001                	j	138a <PVD_IRQHandler>

0000138c <TAMPER_IRQHandler>:
TAMPER_IRQHandler():
    138c:	a001                	j	138c <TAMPER_IRQHandler>

0000138e <RTC_IRQHandler>:
RTC_IRQHandler():
    138e:	a001                	j	138e <RTC_IRQHandler>

00001390 <FLASH_IRQHandler>:
FLASH_IRQHandler():
    1390:	a001                	j	1390 <FLASH_IRQHandler>

00001392 <RCC_IRQHandler>:
RCC_IRQHandler():
    1392:	a001                	j	1392 <RCC_IRQHandler>

00001394 <EXTI0_IRQHandler>:
EXTI0_IRQHandler():
    1394:	a001                	j	1394 <EXTI0_IRQHandler>

00001396 <EXTI1_IRQHandler>:
EXTI1_IRQHandler():
    1396:	a001                	j	1396 <EXTI1_IRQHandler>

00001398 <EXTI2_IRQHandler>:
EXTI2_IRQHandler():
    1398:	a001                	j	1398 <EXTI2_IRQHandler>

0000139a <EXTI3_IRQHandler>:
EXTI3_IRQHandler():
    139a:	a001                	j	139a <EXTI3_IRQHandler>

0000139c <EXTI4_IRQHandler>:
EXTI4_IRQHandler():
    139c:	a001                	j	139c <EXTI4_IRQHandler>

0000139e <DMA1_Channel1_IRQHandler>:
DMA1_Channel1_IRQHandler():
    139e:	a001                	j	139e <DMA1_Channel1_IRQHandler>
    13a0:	a001                	j	13a0 <DMA1_Channel1_IRQHandler+0x2>

000013a2 <DMA1_Channel3_IRQHandler>:
DMA1_Channel3_IRQHandler():
    13a2:	a001                	j	13a2 <DMA1_Channel3_IRQHandler>
    13a4:	a001                	j	13a4 <DMA1_Channel3_IRQHandler+0x2>

000013a6 <DMA1_Channel5_IRQHandler>:
DMA1_Channel5_IRQHandler():
    13a6:	a001                	j	13a6 <DMA1_Channel5_IRQHandler>

000013a8 <DMA1_Channel6_IRQHandler>:
DMA1_Channel6_IRQHandler():
    13a8:	a001                	j	13a8 <DMA1_Channel6_IRQHandler>
    13aa:	a001                	j	13aa <DMA1_Channel6_IRQHandler+0x2>

000013ac <ADC1_2_IRQHandler>:
ADC1_2_IRQHandler():
    13ac:	a001                	j	13ac <ADC1_2_IRQHandler>

000013ae <USB_HP_CAN1_TX_IRQHandler>:
USB_HP_CAN1_TX_IRQHandler():
    13ae:	a001                	j	13ae <USB_HP_CAN1_TX_IRQHandler>

000013b0 <USB_LP_CAN1_RX0_IRQHandler>:
USB_LP_CAN1_RX0_IRQHandler():
    13b0:	a001                	j	13b0 <USB_LP_CAN1_RX0_IRQHandler>

000013b2 <CAN1_RX1_IRQHandler>:
CAN1_RX1_IRQHandler():
    13b2:	a001                	j	13b2 <CAN1_RX1_IRQHandler>

000013b4 <CAN1_SCE_IRQHandler>:
CAN1_SCE_IRQHandler():
    13b4:	a001                	j	13b4 <CAN1_SCE_IRQHandler>

000013b6 <EXTI9_5_IRQHandler>:
EXTI9_5_IRQHandler():
    13b6:	a001                	j	13b6 <EXTI9_5_IRQHandler>

000013b8 <TIM1_BRK_IRQHandler>:
TIM1_BRK_IRQHandler():
    13b8:	a001                	j	13b8 <TIM1_BRK_IRQHandler>

000013ba <TIM1_UP_IRQHandler>:
TIM1_UP_IRQHandler():
    13ba:	a001                	j	13ba <TIM1_UP_IRQHandler>

000013bc <TIM1_TRG_COM_IRQHandler>:
TIM1_TRG_COM_IRQHandler():
    13bc:	a001                	j	13bc <TIM1_TRG_COM_IRQHandler>

000013be <TIM1_CC_IRQHandler>:
TIM1_CC_IRQHandler():
    13be:	a001                	j	13be <TIM1_CC_IRQHandler>
    13c0:	a001                	j	13c0 <TIM1_CC_IRQHandler+0x2>

000013c2 <TIM3_IRQHandler>:
TIM3_IRQHandler():
    13c2:	a001                	j	13c2 <TIM3_IRQHandler>

000013c4 <TIM4_IRQHandler>:
TIM4_IRQHandler():
    13c4:	a001                	j	13c4 <TIM4_IRQHandler>

000013c6 <I2C1_EV_IRQHandler>:
I2C1_EV_IRQHandler():
    13c6:	a001                	j	13c6 <I2C1_EV_IRQHandler>

000013c8 <I2C1_ER_IRQHandler>:
I2C1_ER_IRQHandler():
    13c8:	a001                	j	13c8 <I2C1_ER_IRQHandler>

000013ca <I2C2_EV_IRQHandler>:
I2C2_EV_IRQHandler():
    13ca:	a001                	j	13ca <I2C2_EV_IRQHandler>

000013cc <I2C2_ER_IRQHandler>:
I2C2_ER_IRQHandler():
    13cc:	a001                	j	13cc <I2C2_ER_IRQHandler>

000013ce <SPI1_IRQHandler>:
SPI1_IRQHandler():
    13ce:	a001                	j	13ce <SPI1_IRQHandler>

000013d0 <SPI2_IRQHandler>:
SPI2_IRQHandler():
    13d0:	a001                	j	13d0 <SPI2_IRQHandler>

000013d2 <USART1_IRQHandler>:
USART1_IRQHandler():
    13d2:	a001                	j	13d2 <USART1_IRQHandler>

000013d4 <USART2_IRQHandler>:
USART2_IRQHandler():
    13d4:	a001                	j	13d4 <USART2_IRQHandler>

000013d6 <USART3_IRQHandler>:
USART3_IRQHandler():
    13d6:	a001                	j	13d6 <USART3_IRQHandler>

000013d8 <EXTI15_10_IRQHandler>:
EXTI15_10_IRQHandler():
    13d8:	a001                	j	13d8 <EXTI15_10_IRQHandler>

000013da <RTCAlarm_IRQHandler>:
RTCAlarm_IRQHandler():
    13da:	a001                	j	13da <RTCAlarm_IRQHandler>

000013dc <USBWakeUp_IRQHandler>:
USBWakeUp_IRQHandler():
    13dc:	a001                	j	13dc <USBWakeUp_IRQHandler>

000013de <TIM8_BRK_IRQHandler>:
TIM8_BRK_IRQHandler():
    13de:	a001                	j	13de <TIM8_BRK_IRQHandler>

000013e0 <TIM8_UP_IRQHandler>:
TIM8_UP_IRQHandler():
    13e0:	a001                	j	13e0 <TIM8_UP_IRQHandler>

000013e2 <TIM8_TRG_COM_IRQHandler>:
TIM8_TRG_COM_IRQHandler():
    13e2:	a001                	j	13e2 <TIM8_TRG_COM_IRQHandler>

000013e4 <TIM8_CC_IRQHandler>:
TIM8_CC_IRQHandler():
    13e4:	a001                	j	13e4 <TIM8_CC_IRQHandler>

000013e6 <RNG_IRQHandler>:
RNG_IRQHandler():
    13e6:	a001                	j	13e6 <RNG_IRQHandler>

000013e8 <FSMC_IRQHandler>:
FSMC_IRQHandler():
    13e8:	a001                	j	13e8 <FSMC_IRQHandler>

000013ea <SDIO_IRQHandler>:
SDIO_IRQHandler():
    13ea:	a001                	j	13ea <SDIO_IRQHandler>

000013ec <TIM5_IRQHandler>:
TIM5_IRQHandler():
    13ec:	a001                	j	13ec <TIM5_IRQHandler>

000013ee <SPI3_IRQHandler>:
SPI3_IRQHandler():
    13ee:	a001                	j	13ee <SPI3_IRQHandler>

000013f0 <UART4_IRQHandler>:
UART4_IRQHandler():
    13f0:	a001                	j	13f0 <UART4_IRQHandler>

000013f2 <UART5_IRQHandler>:
UART5_IRQHandler():
    13f2:	a001                	j	13f2 <UART5_IRQHandler>

000013f4 <TIM6_IRQHandler>:
TIM6_IRQHandler():
    13f4:	a001                	j	13f4 <TIM6_IRQHandler>

000013f6 <TIM7_IRQHandler>:
TIM7_IRQHandler():
    13f6:	a001                	j	13f6 <TIM7_IRQHandler>

000013f8 <DMA2_Channel1_IRQHandler>:
DMA2_Channel1_IRQHandler():
    13f8:	a001                	j	13f8 <DMA2_Channel1_IRQHandler>

000013fa <DMA2_Channel2_IRQHandler>:
DMA2_Channel2_IRQHandler():
    13fa:	a001                	j	13fa <DMA2_Channel2_IRQHandler>

000013fc <DMA2_Channel3_IRQHandler>:
DMA2_Channel3_IRQHandler():
    13fc:	a001                	j	13fc <DMA2_Channel3_IRQHandler>
    13fe:	a001                	j	13fe <DMA2_Channel3_IRQHandler+0x2>
    1400:	a001                	j	1400 <DMA2_Channel3_IRQHandler+0x4>
    1402:	a001                	j	1402 <DMA2_Channel3_IRQHandler+0x6>

00001404 <ETH_WKUP_IRQHandler>:
ETH_WKUP_IRQHandler():
    1404:	a001                	j	1404 <ETH_WKUP_IRQHandler>

00001406 <CAN2_TX_IRQHandler>:
CAN2_TX_IRQHandler():
    1406:	a001                	j	1406 <CAN2_TX_IRQHandler>

00001408 <CAN2_RX0_IRQHandler>:
CAN2_RX0_IRQHandler():
    1408:	a001                	j	1408 <CAN2_RX0_IRQHandler>

0000140a <CAN2_RX1_IRQHandler>:
CAN2_RX1_IRQHandler():
    140a:	a001                	j	140a <CAN2_RX1_IRQHandler>

0000140c <CAN2_SCE_IRQHandler>:
CAN2_SCE_IRQHandler():
    140c:	a001                	j	140c <CAN2_SCE_IRQHandler>

0000140e <OTG_FS_IRQHandler>:
OTG_FS_IRQHandler():
    140e:	a001                	j	140e <OTG_FS_IRQHandler>

00001410 <USBHSWakeup_IRQHandler>:
USBHSWakeup_IRQHandler():
    1410:	a001                	j	1410 <USBHSWakeup_IRQHandler>

00001412 <USBHS_IRQHandler>:
USBHS_IRQHandler():
    1412:	a001                	j	1412 <USBHS_IRQHandler>

00001414 <DVP_IRQHandler>:
DVP_IRQHandler():
    1414:	a001                	j	1414 <DVP_IRQHandler>

00001416 <UART6_IRQHandler>:
UART6_IRQHandler():
    1416:	a001                	j	1416 <UART6_IRQHandler>

00001418 <UART7_IRQHandler>:
UART7_IRQHandler():
    1418:	a001                	j	1418 <UART7_IRQHandler>

0000141a <UART8_IRQHandler>:
UART8_IRQHandler():
    141a:	a001                	j	141a <UART8_IRQHandler>

0000141c <TIM9_BRK_IRQHandler>:
TIM9_BRK_IRQHandler():
    141c:	a001                	j	141c <TIM9_BRK_IRQHandler>

0000141e <TIM9_UP_IRQHandler>:
TIM9_UP_IRQHandler():
    141e:	a001                	j	141e <TIM9_UP_IRQHandler>

00001420 <TIM9_TRG_COM_IRQHandler>:
TIM9_TRG_COM_IRQHandler():
    1420:	a001                	j	1420 <TIM9_TRG_COM_IRQHandler>

00001422 <TIM9_CC_IRQHandler>:
TIM9_CC_IRQHandler():
    1422:	a001                	j	1422 <TIM9_CC_IRQHandler>

00001424 <TIM10_BRK_IRQHandler>:
TIM10_BRK_IRQHandler():
    1424:	a001                	j	1424 <TIM10_BRK_IRQHandler>

00001426 <TIM10_UP_IRQHandler>:
TIM10_UP_IRQHandler():
    1426:	a001                	j	1426 <TIM10_UP_IRQHandler>

00001428 <TIM10_TRG_COM_IRQHandler>:
TIM10_TRG_COM_IRQHandler():
    1428:	a001                	j	1428 <TIM10_TRG_COM_IRQHandler>

0000142a <TIM10_CC_IRQHandler>:
TIM10_CC_IRQHandler():
    142a:	a001                	j	142a <TIM10_CC_IRQHandler>
    142c:	a001                	j	142c <TIM10_CC_IRQHandler+0x2>

0000142e <DMA2_Channel7_IRQHandler>:
DMA2_Channel7_IRQHandler():
    142e:	a001                	j	142e <DMA2_Channel7_IRQHandler>
    1430:	a001                	j	1430 <DMA2_Channel7_IRQHandler+0x2>

00001432 <DMA2_Channel9_IRQHandler>:
DMA2_Channel9_IRQHandler():
    1432:	a001                	j	1432 <DMA2_Channel9_IRQHandler>
    1434:	a001                	j	1434 <DMA2_Channel9_IRQHandler+0x2>

00001436 <DMA2_Channel11_IRQHandler>:
DMA2_Channel11_IRQHandler():
    1436:	a001                	j	1436 <DMA2_Channel11_IRQHandler>

00001438 <handle_reset>:
handle_reset():
    1438:	1ffff197          	auipc	gp,0x1ffff
    143c:	43818193          	addi	gp,gp,1080 # 20000870 <__global_pointer$>
    1440:	2001f117          	auipc	sp,0x2001f
    1444:	bc010113          	addi	sp,sp,-1088 # 20020000 <_eusrstack>
    1448:	00009517          	auipc	a0,0x9
    144c:	df850513          	addi	a0,a0,-520 # a240 <_data_lma>
    1450:	1ffff597          	auipc	a1,0x1ffff
    1454:	bb058593          	addi	a1,a1,-1104 # 20000000 <_data_vma>
    1458:	86818613          	addi	a2,gp,-1944 # 200000d8 <_edata>
    145c:	00c5fa63          	bgeu	a1,a2,1470 <handle_reset+0x38>
    1460:	00052283          	lw	t0,0(a0)
    1464:	0055a023          	sw	t0,0(a1)
    1468:	0511                	addi	a0,a0,4
    146a:	0591                	addi	a1,a1,4
    146c:	fec5eae3          	bltu	a1,a2,1460 <handle_reset+0x28>
    1470:	86818513          	addi	a0,gp,-1944 # 200000d8 <_edata>
    1474:	2001d597          	auipc	a1,0x2001d
    1478:	a5c58593          	addi	a1,a1,-1444 # 2001ded0 <_ebss>
    147c:	00b57763          	bgeu	a0,a1,148a <handle_reset+0x52>
    1480:	00052023          	sw	zero,0(a0)
    1484:	0511                	addi	a0,a0,4
    1486:	feb56de3          	bltu	a0,a1,1480 <handle_reset+0x48>
    148a:	42fd                	li	t0,31
    148c:	bc029073          	csrw	0xbc0,t0
    1490:	42fd                	li	t0,31
    1492:	80429073          	csrw	0x804,t0
    1496:	000062b7          	lui	t0,0x6
    149a:	08828293          	addi	t0,t0,136 # 6088 <etharp_ip_input+0x2c>
    149e:	3002a073          	csrs	mstatus,t0
    14a2:	fffff297          	auipc	t0,0xfffff
    14a6:	b9628293          	addi	t0,t0,-1130 # 38 <_einit>
    14aa:	0032e293          	ori	t0,t0,3
    14ae:	30529073          	csrw	mtvec,t0
    14b2:	dd5ff0ef          	jal	ra,1286 <SystemInit>
    14b6:	00000297          	auipc	t0,0x0
    14ba:	d6228293          	addi	t0,t0,-670 # 1218 <main>
    14be:	34129073          	csrw	mepc,t0
    14c2:	30200073          	mret

000014c6 <DMA_DeInit>:
DMA_DeInit():
    14c6:	411c                	lw	a5,0(a0)
    14c8:	6741                	lui	a4,0x10
    14ca:	1779                	addi	a4,a4,-2
    14cc:	8ff9                	and	a5,a5,a4
    14ce:	c11c                	sw	a5,0(a0)
    14d0:	00052023          	sw	zero,0(a0)
    14d4:	00052223          	sw	zero,4(a0)
    14d8:	00052423          	sw	zero,8(a0)
    14dc:	400207b7          	lui	a5,0x40020
    14e0:	00052623          	sw	zero,12(a0)
    14e4:	00878713          	addi	a4,a5,8 # 40020008 <_eusrstack+0x20000008>
    14e8:	00e51763          	bne	a0,a4,14f6 <DMA_DeInit+0x30>
    14ec:	43d8                	lw	a4,4(a5)
    14ee:	00f76713          	ori	a4,a4,15
    14f2:	c3d8                	sw	a4,4(a5)
    14f4:	8082                	ret
    14f6:	01c78713          	addi	a4,a5,28
    14fa:	00e51663          	bne	a0,a4,1506 <DMA_DeInit+0x40>
    14fe:	43d8                	lw	a4,4(a5)
    1500:	0f076713          	ori	a4,a4,240
    1504:	b7fd                	j	14f2 <DMA_DeInit+0x2c>
    1506:	03078713          	addi	a4,a5,48
    150a:	00e51863          	bne	a0,a4,151a <DMA_DeInit+0x54>
    150e:	43d8                	lw	a4,4(a5)
    1510:	6685                	lui	a3,0x1
    1512:	f0068693          	addi	a3,a3,-256 # f00 <WCHNET_CreatTcpSocket+0x64>
    1516:	8f55                	or	a4,a4,a3
    1518:	bfe9                	j	14f2 <DMA_DeInit+0x2c>
    151a:	04478713          	addi	a4,a5,68
    151e:	00e51563          	bne	a0,a4,1528 <DMA_DeInit+0x62>
    1522:	43d8                	lw	a4,4(a5)
    1524:	66bd                	lui	a3,0xf
    1526:	bfc5                	j	1516 <DMA_DeInit+0x50>
    1528:	05878713          	addi	a4,a5,88
    152c:	00e51663          	bne	a0,a4,1538 <DMA_DeInit+0x72>
    1530:	43d8                	lw	a4,4(a5)
    1532:	000f06b7          	lui	a3,0xf0
    1536:	b7c5                	j	1516 <DMA_DeInit+0x50>
    1538:	06c78713          	addi	a4,a5,108
    153c:	00e51663          	bne	a0,a4,1548 <DMA_DeInit+0x82>
    1540:	43d8                	lw	a4,4(a5)
    1542:	00f006b7          	lui	a3,0xf00
    1546:	bfc1                	j	1516 <DMA_DeInit+0x50>
    1548:	08078713          	addi	a4,a5,128
    154c:	00e51663          	bne	a0,a4,1558 <DMA_DeInit+0x92>
    1550:	43d8                	lw	a4,4(a5)
    1552:	0f0006b7          	lui	a3,0xf000
    1556:	b7c1                	j	1516 <DMA_DeInit+0x50>
    1558:	40878713          	addi	a4,a5,1032
    155c:	00e51963          	bne	a0,a4,156e <DMA_DeInit+0xa8>
    1560:	4047a703          	lw	a4,1028(a5)
    1564:	00f76713          	ori	a4,a4,15
    1568:	40e7a223          	sw	a4,1028(a5)
    156c:	8082                	ret
    156e:	41c78713          	addi	a4,a5,1052
    1572:	00e51763          	bne	a0,a4,1580 <DMA_DeInit+0xba>
    1576:	4047a703          	lw	a4,1028(a5)
    157a:	0f076713          	ori	a4,a4,240
    157e:	b7ed                	j	1568 <DMA_DeInit+0xa2>
    1580:	43078793          	addi	a5,a5,1072
    1584:	00f51b63          	bne	a0,a5,159a <DMA_DeInit+0xd4>
    1588:	400207b7          	lui	a5,0x40020
    158c:	4047a703          	lw	a4,1028(a5) # 40020404 <_eusrstack+0x20000404>
    1590:	6685                	lui	a3,0x1
    1592:	f0068693          	addi	a3,a3,-256 # f00 <WCHNET_CreatTcpSocket+0x64>
    1596:	8f55                	or	a4,a4,a3
    1598:	bfc1                	j	1568 <DMA_DeInit+0xa2>
    159a:	400207b7          	lui	a5,0x40020
    159e:	44478713          	addi	a4,a5,1092 # 40020444 <_eusrstack+0x20000444>
    15a2:	00e51663          	bne	a0,a4,15ae <DMA_DeInit+0xe8>
    15a6:	4047a703          	lw	a4,1028(a5)
    15aa:	66bd                	lui	a3,0xf
    15ac:	b7ed                	j	1596 <DMA_DeInit+0xd0>
    15ae:	45878713          	addi	a4,a5,1112
    15b2:	00e51763          	bne	a0,a4,15c0 <DMA_DeInit+0xfa>
    15b6:	4047a703          	lw	a4,1028(a5)
    15ba:	000f06b7          	lui	a3,0xf0
    15be:	bfe1                	j	1596 <DMA_DeInit+0xd0>
    15c0:	46c78713          	addi	a4,a5,1132
    15c4:	00e51763          	bne	a0,a4,15d2 <DMA_DeInit+0x10c>
    15c8:	4047a703          	lw	a4,1028(a5)
    15cc:	00f006b7          	lui	a3,0xf00
    15d0:	b7d9                	j	1596 <DMA_DeInit+0xd0>
    15d2:	48078713          	addi	a4,a5,1152
    15d6:	00e51763          	bne	a0,a4,15e4 <DMA_DeInit+0x11e>
    15da:	4047a703          	lw	a4,1028(a5)
    15de:	0f0006b7          	lui	a3,0xf000
    15e2:	bf55                	j	1596 <DMA_DeInit+0xd0>
    15e4:	49078713          	addi	a4,a5,1168
    15e8:	00e51963          	bne	a0,a4,15fa <DMA_DeInit+0x134>
    15ec:	4d47a703          	lw	a4,1236(a5)
    15f0:	00f76713          	ori	a4,a4,15
    15f4:	4ce7aa23          	sw	a4,1236(a5)
    15f8:	8082                	ret
    15fa:	4a078713          	addi	a4,a5,1184
    15fe:	00e51763          	bne	a0,a4,160c <DMA_DeInit+0x146>
    1602:	4d47a703          	lw	a4,1236(a5)
    1606:	0f076713          	ori	a4,a4,240
    160a:	b7ed                	j	15f4 <DMA_DeInit+0x12e>
    160c:	4b078713          	addi	a4,a5,1200
    1610:	00e51963          	bne	a0,a4,1622 <DMA_DeInit+0x15c>
    1614:	4d47a703          	lw	a4,1236(a5)
    1618:	6685                	lui	a3,0x1
    161a:	f0068693          	addi	a3,a3,-256 # f00 <WCHNET_CreatTcpSocket+0x64>
    161e:	8f55                	or	a4,a4,a3
    1620:	bfd1                	j	15f4 <DMA_DeInit+0x12e>
    1622:	4c078713          	addi	a4,a5,1216
    1626:	fce519e3          	bne	a0,a4,15f8 <DMA_DeInit+0x132>
    162a:	4d47a703          	lw	a4,1236(a5)
    162e:	66bd                	lui	a3,0xf
    1630:	b7fd                	j	161e <DMA_DeInit+0x158>

00001632 <DMA_Init>:
DMA_Init():
    1632:	411c                	lw	a5,0(a0)
    1634:	7761                	lui	a4,0xffff8
    1636:	073d                	addi	a4,a4,15
    1638:	5194                	lw	a3,32(a1)
    163a:	8f7d                	and	a4,a4,a5
    163c:	459c                	lw	a5,8(a1)
    163e:	8fd5                	or	a5,a5,a3
    1640:	4994                	lw	a3,16(a1)
    1642:	8fd5                	or	a5,a5,a3
    1644:	49d4                	lw	a3,20(a1)
    1646:	8fd5                	or	a5,a5,a3
    1648:	4d94                	lw	a3,24(a1)
    164a:	8fd5                	or	a5,a5,a3
    164c:	4dd4                	lw	a3,28(a1)
    164e:	8fd5                	or	a5,a5,a3
    1650:	51d4                	lw	a3,36(a1)
    1652:	8fd5                	or	a5,a5,a3
    1654:	5594                	lw	a3,40(a1)
    1656:	8fd5                	or	a5,a5,a3
    1658:	8fd9                	or	a5,a5,a4
    165a:	c11c                	sw	a5,0(a0)
    165c:	45dc                	lw	a5,12(a1)
    165e:	c15c                	sw	a5,4(a0)
    1660:	419c                	lw	a5,0(a1)
    1662:	c51c                	sw	a5,8(a0)
    1664:	41dc                	lw	a5,4(a1)
    1666:	c55c                	sw	a5,12(a0)
    1668:	8082                	ret

0000166a <DMA_Cmd>:
DMA_Cmd():
    166a:	411c                	lw	a5,0(a0)
    166c:	c589                	beqz	a1,1676 <DMA_Cmd+0xc>
    166e:	0017e793          	ori	a5,a5,1
    1672:	c11c                	sw	a5,0(a0)
    1674:	8082                	ret
    1676:	6741                	lui	a4,0x10
    1678:	1779                	addi	a4,a4,-2
    167a:	8ff9                	and	a5,a5,a4
    167c:	bfdd                	j	1672 <DMA_Cmd+0x8>

0000167e <DMA_ITConfig>:
DMA_ITConfig():
    167e:	411c                	lw	a5,0(a0)
    1680:	c601                	beqz	a2,1688 <DMA_ITConfig+0xa>
    1682:	8ddd                	or	a1,a1,a5
    1684:	c10c                	sw	a1,0(a0)
    1686:	8082                	ret
    1688:	fff5c593          	not	a1,a1
    168c:	8dfd                	and	a1,a1,a5
    168e:	bfdd                	j	1684 <DMA_ITConfig+0x6>

00001690 <DMA_GetFlagStatus>:
DMA_GetFlagStatus():
    1690:	00351793          	slli	a5,a0,0x3
    1694:	0007da63          	bgez	a5,16a8 <DMA_GetFlagStatus+0x18>
    1698:	400207b7          	lui	a5,0x40020
    169c:	4007a783          	lw	a5,1024(a5) # 40020400 <_eusrstack+0x20000400>
    16a0:	8d7d                	and	a0,a0,a5
    16a2:	00a03533          	snez	a0,a0
    16a6:	8082                	ret
    16a8:	00251793          	slli	a5,a0,0x2
    16ac:	0007d763          	bgez	a5,16ba <DMA_GetFlagStatus+0x2a>
    16b0:	400207b7          	lui	a5,0x40020
    16b4:	4d07a783          	lw	a5,1232(a5) # 400204d0 <_eusrstack+0x200004d0>
    16b8:	b7e5                	j	16a0 <DMA_GetFlagStatus+0x10>
    16ba:	400207b7          	lui	a5,0x40020
    16be:	439c                	lw	a5,0(a5)
    16c0:	b7c5                	j	16a0 <DMA_GetFlagStatus+0x10>

000016c2 <DMA_ClearFlag>:
DMA_ClearFlag():
    16c2:	00351793          	slli	a5,a0,0x3
    16c6:	0007d763          	bgez	a5,16d4 <DMA_ClearFlag+0x12>
    16ca:	400207b7          	lui	a5,0x40020
    16ce:	40a7a223          	sw	a0,1028(a5) # 40020404 <_eusrstack+0x20000404>
    16d2:	8082                	ret
    16d4:	00251793          	slli	a5,a0,0x2
    16d8:	0007d763          	bgez	a5,16e6 <DMA_ClearFlag+0x24>
    16dc:	400207b7          	lui	a5,0x40020
    16e0:	4ca7aa23          	sw	a0,1236(a5) # 400204d4 <_eusrstack+0x200004d4>
    16e4:	8082                	ret
    16e6:	400207b7          	lui	a5,0x40020
    16ea:	c3c8                	sw	a0,4(a5)
    16ec:	8082                	ret

000016ee <DMA_GetITStatus>:
DMA_GetITStatus():
    16ee:	b43fe2ef          	jal	t0,230 <__riscv_save_0>
    16f2:	3f79                	jal	1690 <DMA_GetFlagStatus>
    16f4:	b61fe06f          	j	254 <__riscv_restore_0>

000016f8 <DMA_ClearITPendingBit>:
DMA_ClearITPendingBit():
    16f8:	b39fe2ef          	jal	t0,230 <__riscv_save_0>
    16fc:	37d9                	jal	16c2 <DMA_ClearFlag>
    16fe:	b57fe06f          	j	254 <__riscv_restore_0>

00001702 <ETH_DeInit>:
ETH_DeInit():
    1702:	b2ffe2ef          	jal	t0,230 <__riscv_save_0>
    1706:	4585                	li	a1,1
    1708:	6511                	lui	a0,0x4
    170a:	23d5                	jal	1cee <RCC_AHBPeriphResetCmd>
    170c:	4581                	li	a1,0
    170e:	6511                	lui	a0,0x4
    1710:	2bf9                	jal	1cee <RCC_AHBPeriphResetCmd>
    1712:	b43fe06f          	j	254 <__riscv_restore_0>

00001716 <ETH_StructInit>:
ETH_StructInit():
    1716:	04000793          	li	a5,64
    171a:	c13c                	sw	a5,64(a0)
    171c:	02000793          	li	a5,32
    1720:	c17c                	sw	a5,68(a0)
    1722:	08000793          	li	a5,128
    1726:	d17c                	sw	a5,100(a0)
    1728:	00052023          	sw	zero,0(a0) # 4000 <tcp_enqueue+0x2b8>
    172c:	040007b7          	lui	a5,0x4000
    1730:	00052223          	sw	zero,4(a0)
    1734:	00052423          	sw	zero,8(a0)
    1738:	00052623          	sw	zero,12(a0)
    173c:	00052823          	sw	zero,16(a0)
    1740:	00052a23          	sw	zero,20(a0)
    1744:	00052c23          	sw	zero,24(a0)
    1748:	00052e23          	sw	zero,28(a0)
    174c:	02052023          	sw	zero,32(a0)
    1750:	02052223          	sw	zero,36(a0)
    1754:	02052423          	sw	zero,40(a0)
    1758:	02052623          	sw	zero,44(a0)
    175c:	02052823          	sw	zero,48(a0)
    1760:	02052a23          	sw	zero,52(a0)
    1764:	02052c23          	sw	zero,56(a0)
    1768:	02052e23          	sw	zero,60(a0)
    176c:	04052423          	sw	zero,72(a0)
    1770:	04052623          	sw	zero,76(a0)
    1774:	04052823          	sw	zero,80(a0)
    1778:	04052a23          	sw	zero,84(a0)
    177c:	04052c23          	sw	zero,88(a0)
    1780:	04052e23          	sw	zero,92(a0)
    1784:	06052023          	sw	zero,96(a0)
    1788:	06052423          	sw	zero,104(a0)
    178c:	06052623          	sw	zero,108(a0)
    1790:	06052823          	sw	zero,112(a0)
    1794:	06052a23          	sw	zero,116(a0)
    1798:	06052c23          	sw	zero,120(a0)
    179c:	06052e23          	sw	zero,124(a0)
    17a0:	08f52023          	sw	a5,128(a0)
    17a4:	020007b7          	lui	a5,0x2000
    17a8:	08f52223          	sw	a5,132(a0)
    17ac:	0af52223          	sw	a5,164(a0)
    17b0:	000207b7          	lui	a5,0x20
    17b4:	00200737          	lui	a4,0x200
    17b8:	0af52623          	sw	a5,172(a0)
    17bc:	10000793          	li	a5,256
    17c0:	08052423          	sw	zero,136(a0)
    17c4:	08e52623          	sw	a4,140(a0)
    17c8:	08052823          	sw	zero,144(a0)
    17cc:	08052a23          	sw	zero,148(a0)
    17d0:	08052c23          	sw	zero,152(a0)
    17d4:	08052e23          	sw	zero,156(a0)
    17d8:	0a052023          	sw	zero,160(a0)
    17dc:	0a052423          	sw	zero,168(a0)
    17e0:	0af52823          	sw	a5,176(a0)
    17e4:	0a052a23          	sw	zero,180(a0)
    17e8:	0a052c23          	sw	zero,184(a0)
    17ec:	8082                	ret

000017ee <ETH_ReadPHYRegister>:
ETH_ReadPHYRegister():
    17ee:	1141                	addi	sp,sp,-16
    17f0:	c602                	sw	zero,12(sp)
    17f2:	400286b7          	lui	a3,0x40028
    17f6:	4a9c                	lw	a5,16(a3)
    17f8:	6741                	lui	a4,0x10
    17fa:	052e                	slli	a0,a0,0xb
    17fc:	177d                	addi	a4,a4,-1
    17fe:	8bf1                	andi	a5,a5,28
    1800:	8d79                	and	a0,a0,a4
    1802:	059a                	slli	a1,a1,0x6
    1804:	8d5d                	or	a0,a0,a5
    1806:	7c05f593          	andi	a1,a1,1984
    180a:	8dc9                	or	a1,a1,a0
    180c:	0015e593          	ori	a1,a1,1
    1810:	005007b7          	lui	a5,0x500
    1814:	ca8c                	sw	a1,16(a3)
    1816:	17f9                	addi	a5,a5,-2
    1818:	4732                	lw	a4,12(sp)
    181a:	0705                	addi	a4,a4,1
    181c:	c63a                	sw	a4,12(sp)
    181e:	4a98                	lw	a4,16(a3)
    1820:	8b05                	andi	a4,a4,1
    1822:	c701                	beqz	a4,182a <ETH_ReadPHYRegister+0x3c>
    1824:	4732                	lw	a4,12(sp)
    1826:	fee7f9e3          	bgeu	a5,a4,1818 <ETH_ReadPHYRegister+0x2a>
    182a:	4732                	lw	a4,12(sp)
    182c:	005007b7          	lui	a5,0x500
    1830:	17fd                	addi	a5,a5,-1
    1832:	4501                	li	a0,0
    1834:	00f70763          	beq	a4,a5,1842 <ETH_ReadPHYRegister+0x54>
    1838:	400287b7          	lui	a5,0x40028
    183c:	4bc8                	lw	a0,20(a5)
    183e:	0542                	slli	a0,a0,0x10
    1840:	8141                	srli	a0,a0,0x10
    1842:	0141                	addi	sp,sp,16
    1844:	8082                	ret

00001846 <ETH_WritePHYRegister>:
ETH_WritePHYRegister():
    1846:	1141                	addi	sp,sp,-16
    1848:	400287b7          	lui	a5,0x40028
    184c:	c602                	sw	zero,12(sp)
    184e:	4b98                	lw	a4,16(a5)
    1850:	66c1                	lui	a3,0x10
    1852:	16fd                	addi	a3,a3,-1
    1854:	052e                	slli	a0,a0,0xb
    1856:	8d75                	and	a0,a0,a3
    1858:	8b71                	andi	a4,a4,28
    185a:	059a                	slli	a1,a1,0x6
    185c:	8d59                	or	a0,a0,a4
    185e:	7c05f593          	andi	a1,a1,1984
    1862:	8dc9                	or	a1,a1,a0
    1864:	cbd0                	sw	a2,20(a5)
    1866:	0035e593          	ori	a1,a1,3
    186a:	cb8c                	sw	a1,16(a5)
    186c:	000507b7          	lui	a5,0x50
    1870:	400286b7          	lui	a3,0x40028
    1874:	17f9                	addi	a5,a5,-2
    1876:	4732                	lw	a4,12(sp)
    1878:	0705                	addi	a4,a4,1
    187a:	c63a                	sw	a4,12(sp)
    187c:	4a98                	lw	a4,16(a3)
    187e:	8b05                	andi	a4,a4,1
    1880:	c701                	beqz	a4,1888 <ETH_WritePHYRegister+0x42>
    1882:	4732                	lw	a4,12(sp)
    1884:	fee7f9e3          	bgeu	a5,a4,1876 <ETH_WritePHYRegister+0x30>
    1888:	4532                	lw	a0,12(sp)
    188a:	000507b7          	lui	a5,0x50
    188e:	17fd                	addi	a5,a5,-1
    1890:	00f53533          	sltu	a0,a0,a5
    1894:	0141                	addi	sp,sp,16
    1896:	8082                	ret

00001898 <ETH_DMATxDescChainInit>:
ETH_DMATxDescChainInit():
    1898:	86a1ac23          	sw	a0,-1928(gp) # 200000e8 <DMATxDescToSet>
    189c:	4701                	li	a4,0
    189e:	01050793          	addi	a5,a0,16
    18a2:	401008b7          	lui	a7,0x40100
    18a6:	5f000313          	li	t1,1520
    18aa:	fff60e13          	addi	t3,a2,-1 # 1ffff <_data_lma+0x15dbf>
    18ae:	882a                	mv	a6,a0
    18b0:	00c71663          	bne	a4,a2,18bc <ETH_DMATxDescChainInit+0x24>
    18b4:	400297b7          	lui	a5,0x40029
    18b8:	cb88                	sw	a0,16(a5)
    18ba:	8082                	ret
    18bc:	026706b3          	mul	a3,a4,t1
    18c0:	ff17a823          	sw	a7,-16(a5) # 40028ff0 <_eusrstack+0x20008ff0>
    18c4:	96ae                	add	a3,a3,a1
    18c6:	fed7ac23          	sw	a3,-8(a5)
    18ca:	01c77363          	bgeu	a4,t3,18d0 <ETH_DMATxDescChainInit+0x38>
    18ce:	883e                	mv	a6,a5
    18d0:	ff07ae23          	sw	a6,-4(a5)
    18d4:	0705                	addi	a4,a4,1
    18d6:	07c1                	addi	a5,a5,16
    18d8:	bfd9                	j	18ae <ETH_DMATxDescChainInit+0x16>

000018da <ETH_DMARxDescChainInit>:
ETH_DMARxDescChainInit():
    18da:	6691                	lui	a3,0x4
    18dc:	86a1aa23          	sw	a0,-1932(gp) # 200000e4 <DMARxDescToGet>
    18e0:	4701                	li	a4,0
    18e2:	01050793          	addi	a5,a0,16
    18e6:	80000337          	lui	t1,0x80000
    18ea:	5f068693          	addi	a3,a3,1520 # 45f0 <tcp_rst+0x5c>
    18ee:	5f000e13          	li	t3,1520
    18f2:	fff60e93          	addi	t4,a2,-1
    18f6:	88aa                	mv	a7,a0
    18f8:	00c71663          	bne	a4,a2,1904 <ETH_DMARxDescChainInit+0x2a>
    18fc:	400297b7          	lui	a5,0x40029
    1900:	c7c8                	sw	a0,12(a5)
    1902:	8082                	ret
    1904:	03c70833          	mul	a6,a4,t3
    1908:	fe67a823          	sw	t1,-16(a5) # 40028ff0 <_eusrstack+0x20008ff0>
    190c:	fed7aa23          	sw	a3,-12(a5)
    1910:	982e                	add	a6,a6,a1
    1912:	ff07ac23          	sw	a6,-8(a5)
    1916:	01d77363          	bgeu	a4,t4,191c <ETH_DMARxDescChainInit+0x42>
    191a:	88be                	mv	a7,a5
    191c:	ff17ae23          	sw	a7,-4(a5)
    1920:	0705                	addi	a4,a4,1
    1922:	07c1                	addi	a5,a5,16
    1924:	bfc9                	j	18f6 <ETH_DMARxDescChainInit+0x1c>

00001926 <ETH_SoftwareReset>:
ETH_SoftwareReset():
    1926:	40029737          	lui	a4,0x40029
    192a:	431c                	lw	a5,0(a4)
    192c:	0017e793          	ori	a5,a5,1
    1930:	c31c                	sw	a5,0(a4)
    1932:	8082                	ret

00001934 <ETH_DMAClearITPendingBit>:
ETH_DMAClearITPendingBit():
    1934:	400297b7          	lui	a5,0x40029
    1938:	cbc8                	sw	a0,20(a5)
    193a:	8082                	ret

0000193c <ETH_FlushTransmitFIFO>:
ETH_FlushTransmitFIFO():
    193c:	40029737          	lui	a4,0x40029
    1940:	4f1c                	lw	a5,24(a4)
    1942:	001006b7          	lui	a3,0x100
    1946:	8fd5                	or	a5,a5,a3
    1948:	cf1c                	sw	a5,24(a4)
    194a:	8082                	ret

0000194c <ETH_Start>:
ETH_Start():
    194c:	8e5fe2ef          	jal	t0,230 <__riscv_save_0>
    1950:	40028437          	lui	s0,0x40028
    1954:	401c                	lw	a5,0(s0)
    1956:	0087e793          	ori	a5,a5,8
    195a:	c01c                	sw	a5,0(s0)
    195c:	37c5                	jal	193c <ETH_FlushTransmitFIFO>
    195e:	401c                	lw	a5,0(s0)
    1960:	6689                	lui	a3,0x2
    1962:	0047e793          	ori	a5,a5,4
    1966:	c01c                	sw	a5,0(s0)
    1968:	400297b7          	lui	a5,0x40029
    196c:	4f98                	lw	a4,24(a5)
    196e:	8f55                	or	a4,a4,a3
    1970:	cf98                	sw	a4,24(a5)
    1972:	4f98                	lw	a4,24(a5)
    1974:	00276713          	ori	a4,a4,2
    1978:	cf98                	sw	a4,24(a5)
    197a:	8dbfe06f          	j	254 <__riscv_restore_0>

0000197e <ETH_DMAITConfig>:
ETH_DMAITConfig():
    197e:	c599                	beqz	a1,198c <ETH_DMAITConfig+0xe>
    1980:	40029737          	lui	a4,0x40029
    1984:	4f5c                	lw	a5,28(a4)
    1986:	8d5d                	or	a0,a0,a5
    1988:	cf48                	sw	a0,28(a4)
    198a:	8082                	ret
    198c:	400297b7          	lui	a5,0x40029
    1990:	4fd8                	lw	a4,28(a5)
    1992:	fff54513          	not	a0,a0
    1996:	8d79                	and	a0,a0,a4
    1998:	cfc8                	sw	a0,28(a5)
    199a:	8082                	ret

0000199c <ETH_GetCurrentTxBufferAddress>:
ETH_GetCurrentTxBufferAddress():
    199c:	8781a783          	lw	a5,-1928(gp) # 200000e8 <DMATxDescToSet>
    19a0:	4788                	lw	a0,8(a5)
    19a2:	8082                	ret

000019a4 <GPIO_Init>:
GPIO_Init():
    19a4:	459c                	lw	a5,8(a1)
    19a6:	0107f713          	andi	a4,a5,16
    19aa:	00f7f813          	andi	a6,a5,15
    19ae:	c701                	beqz	a4,19b6 <GPIO_Init+0x12>
    19b0:	41d8                	lw	a4,4(a1)
    19b2:	00e86833          	or	a6,a6,a4
    19b6:	218e                	lhu	a1,0(a1)
    19b8:	0ff5f713          	andi	a4,a1,255
    19bc:	c339                	beqz	a4,1a02 <GPIO_Init+0x5e>
    19be:	4118                	lw	a4,0(a0)
    19c0:	4681                	li	a3,0
    19c2:	4e85                	li	t4,1
    19c4:	4f3d                	li	t5,15
    19c6:	02800f93          	li	t6,40
    19ca:	04800293          	li	t0,72
    19ce:	4e21                	li	t3,8
    19d0:	00de9633          	sll	a2,t4,a3
    19d4:	00c5f8b3          	and	a7,a1,a2
    19d8:	03161163          	bne	a2,a7,19fa <GPIO_Init+0x56>
    19dc:	00269893          	slli	a7,a3,0x2
    19e0:	011f1333          	sll	t1,t5,a7
    19e4:	fff34313          	not	t1,t1
    19e8:	00e37733          	and	a4,t1,a4
    19ec:	011818b3          	sll	a7,a6,a7
    19f0:	00e8e733          	or	a4,a7,a4
    19f4:	05f79f63          	bne	a5,t6,1a52 <GPIO_Init+0xae>
    19f8:	c950                	sw	a2,20(a0)
    19fa:	0685                	addi	a3,a3,1
    19fc:	fdc69ae3          	bne	a3,t3,19d0 <GPIO_Init+0x2c>
    1a00:	c118                	sw	a4,0(a0)
    1a02:	0ff00713          	li	a4,255
    1a06:	04b77563          	bgeu	a4,a1,1a50 <GPIO_Init+0xac>
    1a0a:	4154                	lw	a3,4(a0)
    1a0c:	4621                	li	a2,8
    1a0e:	4e85                	li	t4,1
    1a10:	4f3d                	li	t5,15
    1a12:	02800f93          	li	t6,40
    1a16:	04800293          	li	t0,72
    1a1a:	4e41                	li	t3,16
    1a1c:	00ce98b3          	sll	a7,t4,a2
    1a20:	0115f733          	and	a4,a1,a7
    1a24:	02e89263          	bne	a7,a4,1a48 <GPIO_Init+0xa4>
    1a28:	00261713          	slli	a4,a2,0x2
    1a2c:	1701                	addi	a4,a4,-32
    1a2e:	00ef1333          	sll	t1,t5,a4
    1a32:	fff34313          	not	t1,t1
    1a36:	00d376b3          	and	a3,t1,a3
    1a3a:	00e81733          	sll	a4,a6,a4
    1a3e:	8ed9                	or	a3,a3,a4
    1a40:	01f79d63          	bne	a5,t6,1a5a <GPIO_Init+0xb6>
    1a44:	01152a23          	sw	a7,20(a0)
    1a48:	0605                	addi	a2,a2,1
    1a4a:	fdc619e3          	bne	a2,t3,1a1c <GPIO_Init+0x78>
    1a4e:	c154                	sw	a3,4(a0)
    1a50:	8082                	ret
    1a52:	fa5794e3          	bne	a5,t0,19fa <GPIO_Init+0x56>
    1a56:	c910                	sw	a2,16(a0)
    1a58:	b74d                	j	19fa <GPIO_Init+0x56>
    1a5a:	fe5797e3          	bne	a5,t0,1a48 <GPIO_Init+0xa4>
    1a5e:	01152823          	sw	a7,16(a0)
    1a62:	b7dd                	j	1a48 <GPIO_Init+0xa4>

00001a64 <GPIO_SetBits>:
GPIO_SetBits():
    1a64:	c90c                	sw	a1,16(a0)
    1a66:	8082                	ret

00001a68 <GPIO_ResetBits>:
GPIO_ResetBits():
    1a68:	c94c                	sw	a1,20(a0)
    1a6a:	8082                	ret

00001a6c <NVIC_Init>:
NVIC_Init():
    1a6c:	87c18793          	addi	a5,gp,-1924 # 200000ec <NVIC_Priority_Group>
    1a70:	4394                	lw	a3,0(a5)
    1a72:	2118                	lbu	a4,0(a0)
    1a74:	e681                	bnez	a3,1a7c <NVIC_Init+0x10>
    1a76:	213c                	lbu	a5,2(a0)
    1a78:	0792                	slli	a5,a5,0x4
    1a7a:	a821                	j	1a92 <NVIC_Init+0x26>
    1a7c:	4394                	lw	a3,0(a5)
    1a7e:	4605                	li	a2,1
    1a80:	02c69f63          	bne	a3,a2,1abe <NVIC_Init+0x52>
    1a84:	213c                	lbu	a5,2(a0)
    1a86:	3110                	lbu	a2,1(a0)
    1a88:	0792                	slli	a5,a5,0x4
    1a8a:	00d61463          	bne	a2,a3,1a92 <NVIC_Init+0x26>
    1a8e:	f807e793          	ori	a5,a5,-128
    1a92:	e000e6b7          	lui	a3,0xe000e
    1a96:	0ff7f793          	andi	a5,a5,255
    1a9a:	96ba                	add	a3,a3,a4
    1a9c:	40f68023          	sb	a5,1024(a3) # e000e400 <_eusrstack+0xbffee400>
    1aa0:	4685                	li	a3,1
    1aa2:	00575793          	srli	a5,a4,0x5
    1aa6:	00e69733          	sll	a4,a3,a4
    1aaa:	4154                	lw	a3,4(a0)
    1aac:	c2a5                	beqz	a3,1b0c <NVIC_Init+0xa0>
    1aae:	04078793          	addi	a5,a5,64 # 40029040 <_eusrstack+0x20009040>
    1ab2:	078a                	slli	a5,a5,0x2
    1ab4:	e000e6b7          	lui	a3,0xe000e
    1ab8:	97b6                	add	a5,a5,a3
    1aba:	c398                	sw	a4,0(a5)
    1abc:	8082                	ret
    1abe:	438c                	lw	a1,0(a5)
    1ac0:	4689                	li	a3,2
    1ac2:	02d59163          	bne	a1,a3,1ae4 <NVIC_Init+0x78>
    1ac6:	3114                	lbu	a3,1(a0)
    1ac8:	213c                	lbu	a5,2(a0)
    1aca:	00d66563          	bltu	a2,a3,1ad4 <NVIC_Init+0x68>
    1ace:	068a                	slli	a3,a3,0x2
    1ad0:	97b6                	add	a5,a5,a3
    1ad2:	b75d                	j	1a78 <NVIC_Init+0xc>
    1ad4:	03e68693          	addi	a3,a3,62 # e000e03e <_eusrstack+0xbffee03e>
    1ad8:	068a                	slli	a3,a3,0x2
    1ada:	97b6                	add	a5,a5,a3
    1adc:	0ff7f793          	andi	a5,a5,255
    1ae0:	0792                	slli	a5,a5,0x4
    1ae2:	b775                	j	1a8e <NVIC_Init+0x22>
    1ae4:	4390                	lw	a2,0(a5)
    1ae6:	468d                	li	a3,3
    1ae8:	00d61c63          	bne	a2,a3,1b00 <NVIC_Init+0x94>
    1aec:	3114                	lbu	a3,1(a0)
    1aee:	213c                	lbu	a5,2(a0)
    1af0:	00d66463          	bltu	a2,a3,1af8 <NVIC_Init+0x8c>
    1af4:	0686                	slli	a3,a3,0x1
    1af6:	bfe9                	j	1ad0 <NVIC_Init+0x64>
    1af8:	07c68693          	addi	a3,a3,124
    1afc:	0686                	slli	a3,a3,0x1
    1afe:	bff1                	j	1ada <NVIC_Init+0x6e>
    1b00:	4394                	lw	a3,0(a5)
    1b02:	4791                	li	a5,4
    1b04:	f8f69ee3          	bne	a3,a5,1aa0 <NVIC_Init+0x34>
    1b08:	311c                	lbu	a5,1(a0)
    1b0a:	b7bd                	j	1a78 <NVIC_Init+0xc>
    1b0c:	06078793          	addi	a5,a5,96
    1b10:	b74d                	j	1ab2 <NVIC_Init+0x46>

00001b12 <RCC_GetClocksFreq>:
RCC_GetClocksFreq():
    1b12:	40021737          	lui	a4,0x40021
    1b16:	435c                	lw	a5,4(a4)
    1b18:	4691                	li	a3,4
    1b1a:	8bb1                	andi	a5,a5,12
    1b1c:	00d78563          	beq	a5,a3,1b26 <RCC_GetClocksFreq+0x14>
    1b20:	46a1                	li	a3,8
    1b22:	06d78263          	beq	a5,a3,1b86 <RCC_GetClocksFreq+0x74>
    1b26:	007a17b7          	lui	a5,0x7a1
    1b2a:	20078793          	addi	a5,a5,512 # 7a1200 <_data_lma+0x796fc0>
    1b2e:	c11c                	sw	a5,0(a0)
    1b30:	40021637          	lui	a2,0x40021
    1b34:	425c                	lw	a5,4(a2)
    1b36:	20000737          	lui	a4,0x20000
    1b3a:	00070713          	mv	a4,a4
    1b3e:	8391                	srli	a5,a5,0x4
    1b40:	8bbd                	andi	a5,a5,15
    1b42:	97ba                	add	a5,a5,a4
    1b44:	2394                	lbu	a3,0(a5)
    1b46:	411c                	lw	a5,0(a0)
    1b48:	00d7d7b3          	srl	a5,a5,a3
    1b4c:	c15c                	sw	a5,4(a0)
    1b4e:	4254                	lw	a3,4(a2)
    1b50:	82a1                	srli	a3,a3,0x8
    1b52:	8a9d                	andi	a3,a3,7
    1b54:	96ba                	add	a3,a3,a4
    1b56:	2294                	lbu	a3,0(a3)
    1b58:	00d7d6b3          	srl	a3,a5,a3
    1b5c:	c514                	sw	a3,8(a0)
    1b5e:	4254                	lw	a3,4(a2)
    1b60:	82ad                	srli	a3,a3,0xb
    1b62:	8a9d                	andi	a3,a3,7
    1b64:	9736                	add	a4,a4,a3
    1b66:	2318                	lbu	a4,0(a4)
    1b68:	00e7d7b3          	srl	a5,a5,a4
    1b6c:	c55c                	sw	a5,12(a0)
    1b6e:	4258                	lw	a4,4(a2)
    1b70:	8339                	srli	a4,a4,0xe
    1b72:	00377693          	andi	a3,a4,3
    1b76:	82018713          	addi	a4,gp,-2016 # 20000090 <ADCPrescTable>
    1b7a:	9736                	add	a4,a4,a3
    1b7c:	2318                	lbu	a4,0(a4)
    1b7e:	02e7d7b3          	divu	a5,a5,a4
    1b82:	c91c                	sw	a5,16(a0)
    1b84:	8082                	ret
    1b86:	435c                	lw	a5,4(a4)
    1b88:	4354                	lw	a3,4(a4)
    1b8a:	6741                	lui	a4,0x10
    1b8c:	83c9                	srli	a5,a5,0x12
    1b8e:	8ef9                	and	a3,a3,a4
    1b90:	1ffff737          	lui	a4,0x1ffff
    1b94:	70c72703          	lw	a4,1804(a4) # 1ffff70c <_data_lma+0x1fff54cc>
    1b98:	8bbd                	andi	a5,a5,15
    1b9a:	0789                	addi	a5,a5,2
    1b9c:	01171613          	slli	a2,a4,0x11
    1ba0:	00064863          	bltz	a2,1bb0 <RCC_GetClocksFreq+0x9e>
    1ba4:	4645                	li	a2,17
    1ba6:	4701                	li	a4,0
    1ba8:	02c79263          	bne	a5,a2,1bcc <RCC_GetClocksFreq+0xba>
    1bac:	47c9                	li	a5,18
    1bae:	a839                	j	1bcc <RCC_GetClocksFreq+0xba>
    1bb0:	4709                	li	a4,2
    1bb2:	02e78963          	beq	a5,a4,1be4 <RCC_GetClocksFreq+0xd2>
    1bb6:	473d                	li	a4,15
    1bb8:	02e78863          	beq	a5,a4,1be8 <RCC_GetClocksFreq+0xd6>
    1bbc:	4741                	li	a4,16
    1bbe:	02e78863          	beq	a5,a4,1bee <RCC_GetClocksFreq+0xdc>
    1bc2:	4645                	li	a2,17
    1bc4:	4701                	li	a4,0
    1bc6:	00c79363          	bne	a5,a2,1bcc <RCC_GetClocksFreq+0xba>
    1bca:	47c1                	li	a5,16
    1bcc:	e685                	bnez	a3,1bf4 <RCC_GetClocksFreq+0xe2>
    1bce:	400246b7          	lui	a3,0x40024
    1bd2:	8006a683          	lw	a3,-2048(a3) # 40023800 <_eusrstack+0x20003800>
    1bd6:	8ac1                	andi	a3,a3,16
    1bd8:	c68d                	beqz	a3,1c02 <RCC_GetClocksFreq+0xf0>
    1bda:	007a16b7          	lui	a3,0x7a1
    1bde:	20068693          	addi	a3,a3,512 # 7a1200 <_data_lma+0x796fc0>
    1be2:	a025                	j	1c0a <RCC_GetClocksFreq+0xf8>
    1be4:	4701                	li	a4,0
    1be6:	b7d9                	j	1bac <RCC_GetClocksFreq+0x9a>
    1be8:	4705                	li	a4,1
    1bea:	47b5                	li	a5,13
    1bec:	b7c5                	j	1bcc <RCC_GetClocksFreq+0xba>
    1bee:	4701                	li	a4,0
    1bf0:	47bd                	li	a5,15
    1bf2:	bfe9                	j	1bcc <RCC_GetClocksFreq+0xba>
    1bf4:	400216b7          	lui	a3,0x40021
    1bf8:	42d4                	lw	a3,4(a3)
    1bfa:	00e69613          	slli	a2,a3,0xe
    1bfe:	fc065ee3          	bgez	a2,1bda <RCC_GetClocksFreq+0xc8>
    1c02:	003d16b7          	lui	a3,0x3d1
    1c06:	90068693          	addi	a3,a3,-1792 # 3d0900 <_data_lma+0x3c66c0>
    1c0a:	02d787b3          	mul	a5,a5,a3
    1c0e:	c11c                	sw	a5,0(a0)
    1c10:	d305                	beqz	a4,1b30 <RCC_GetClocksFreq+0x1e>
    1c12:	411c                	lw	a5,0(a0)
    1c14:	8385                	srli	a5,a5,0x1
    1c16:	bf21                	j	1b2e <RCC_GetClocksFreq+0x1c>

00001c18 <RCC_AHBPeriphClockCmd>:
RCC_AHBPeriphClockCmd():
    1c18:	c599                	beqz	a1,1c26 <RCC_AHBPeriphClockCmd+0xe>
    1c1a:	40021737          	lui	a4,0x40021
    1c1e:	4b5c                	lw	a5,20(a4)
    1c20:	8d5d                	or	a0,a0,a5
    1c22:	cb48                	sw	a0,20(a4)
    1c24:	8082                	ret
    1c26:	400217b7          	lui	a5,0x40021
    1c2a:	4bd8                	lw	a4,20(a5)
    1c2c:	fff54513          	not	a0,a0
    1c30:	8d79                	and	a0,a0,a4
    1c32:	cbc8                	sw	a0,20(a5)
    1c34:	8082                	ret

00001c36 <RCC_APB2PeriphClockCmd>:
RCC_APB2PeriphClockCmd():
    1c36:	c599                	beqz	a1,1c44 <RCC_APB2PeriphClockCmd+0xe>
    1c38:	40021737          	lui	a4,0x40021
    1c3c:	4f1c                	lw	a5,24(a4)
    1c3e:	8d5d                	or	a0,a0,a5
    1c40:	cf08                	sw	a0,24(a4)
    1c42:	8082                	ret
    1c44:	400217b7          	lui	a5,0x40021
    1c48:	4f98                	lw	a4,24(a5)
    1c4a:	fff54513          	not	a0,a0
    1c4e:	8d79                	and	a0,a0,a4
    1c50:	cf88                	sw	a0,24(a5)
    1c52:	8082                	ret

00001c54 <RCC_APB1PeriphClockCmd>:
RCC_APB1PeriphClockCmd():
    1c54:	c599                	beqz	a1,1c62 <RCC_APB1PeriphClockCmd+0xe>
    1c56:	40021737          	lui	a4,0x40021
    1c5a:	4f5c                	lw	a5,28(a4)
    1c5c:	8d5d                	or	a0,a0,a5
    1c5e:	cf48                	sw	a0,28(a4)
    1c60:	8082                	ret
    1c62:	400217b7          	lui	a5,0x40021
    1c66:	4fd8                	lw	a4,28(a5)
    1c68:	fff54513          	not	a0,a0
    1c6c:	8d79                	and	a0,a0,a4
    1c6e:	cfc8                	sw	a0,28(a5)
    1c70:	8082                	ret

00001c72 <RCC_MCOConfig>:
RCC_MCOConfig():
    1c72:	400217b7          	lui	a5,0x40021
    1c76:	b3e8                	sb	a0,7(a5)
    1c78:	8082                	ret

00001c7a <RCC_GetFlagStatus>:
RCC_GetFlagStatus():
    1c7a:	00555793          	srli	a5,a0,0x5
    1c7e:	4705                	li	a4,1
    1c80:	00e79963          	bne	a5,a4,1c92 <RCC_GetFlagStatus+0x18>
    1c84:	400217b7          	lui	a5,0x40021
    1c88:	439c                	lw	a5,0(a5)
    1c8a:	00a7d533          	srl	a0,a5,a0
    1c8e:	8905                	andi	a0,a0,1
    1c90:	8082                	ret
    1c92:	4709                	li	a4,2
    1c94:	00e79663          	bne	a5,a4,1ca0 <RCC_GetFlagStatus+0x26>
    1c98:	400217b7          	lui	a5,0x40021
    1c9c:	539c                	lw	a5,32(a5)
    1c9e:	b7f5                	j	1c8a <RCC_GetFlagStatus+0x10>
    1ca0:	400217b7          	lui	a5,0x40021
    1ca4:	53dc                	lw	a5,36(a5)
    1ca6:	b7d5                	j	1c8a <RCC_GetFlagStatus+0x10>

00001ca8 <RCC_PREDIV2Config>:
RCC_PREDIV2Config():
    1ca8:	40021737          	lui	a4,0x40021
    1cac:	575c                	lw	a5,44(a4)
    1cae:	f0f7f793          	andi	a5,a5,-241
    1cb2:	8d5d                	or	a0,a0,a5
    1cb4:	d748                	sw	a0,44(a4)
    1cb6:	8082                	ret

00001cb8 <RCC_PLL3Config>:
RCC_PLL3Config():
    1cb8:	400216b7          	lui	a3,0x40021
    1cbc:	56dc                	lw	a5,44(a3)
    1cbe:	7745                	lui	a4,0xffff1
    1cc0:	177d                	addi	a4,a4,-1
    1cc2:	8ff9                	and	a5,a5,a4
    1cc4:	8d5d                	or	a0,a0,a5
    1cc6:	d6c8                	sw	a0,44(a3)
    1cc8:	8082                	ret

00001cca <RCC_PLL3Cmd>:
RCC_PLL3Cmd():
    1cca:	c909                	beqz	a0,1cdc <RCC_PLL3Cmd+0x12>
    1ccc:	40021737          	lui	a4,0x40021
    1cd0:	431c                	lw	a5,0(a4)
    1cd2:	100006b7          	lui	a3,0x10000
    1cd6:	8fd5                	or	a5,a5,a3
    1cd8:	c31c                	sw	a5,0(a4)
    1cda:	8082                	ret
    1cdc:	400216b7          	lui	a3,0x40021
    1ce0:	429c                	lw	a5,0(a3)
    1ce2:	f0000737          	lui	a4,0xf0000
    1ce6:	177d                	addi	a4,a4,-1
    1ce8:	8ff9                	and	a5,a5,a4
    1cea:	c29c                	sw	a5,0(a3)
    1cec:	8082                	ret

00001cee <RCC_AHBPeriphResetCmd>:
RCC_AHBPeriphResetCmd():
    1cee:	c599                	beqz	a1,1cfc <RCC_AHBPeriphResetCmd+0xe>
    1cf0:	40021737          	lui	a4,0x40021
    1cf4:	571c                	lw	a5,40(a4)
    1cf6:	8d5d                	or	a0,a0,a5
    1cf8:	d708                	sw	a0,40(a4)
    1cfa:	8082                	ret
    1cfc:	400217b7          	lui	a5,0x40021
    1d00:	5798                	lw	a4,40(a5)
    1d02:	fff54513          	not	a0,a0
    1d06:	8d79                	and	a0,a0,a4
    1d08:	d788                	sw	a0,40(a5)
    1d0a:	8082                	ret

00001d0c <TIM_TimeBaseInit>:
TIM_TimeBaseInit():
    1d0c:	211e                	lhu	a5,0(a0)
    1d0e:	40013737          	lui	a4,0x40013
    1d12:	c0070693          	addi	a3,a4,-1024 # 40012c00 <_eusrstack+0x1fff2c00>
    1d16:	07c2                	slli	a5,a5,0x10
    1d18:	83c1                	srli	a5,a5,0x10
    1d1a:	04d50063          	beq	a0,a3,1d5a <TIM_TimeBaseInit+0x4e>
    1d1e:	400006b7          	lui	a3,0x40000
    1d22:	02d50c63          	beq	a0,a3,1d5a <TIM_TimeBaseInit+0x4e>
    1d26:	40068693          	addi	a3,a3,1024 # 40000400 <_eusrstack+0x1ffe0400>
    1d2a:	02d50863          	beq	a0,a3,1d5a <TIM_TimeBaseInit+0x4e>
    1d2e:	400016b7          	lui	a3,0x40001
    1d32:	80068613          	addi	a2,a3,-2048 # 40000800 <_eusrstack+0x1ffe0800>
    1d36:	02c50263          	beq	a0,a2,1d5a <TIM_TimeBaseInit+0x4e>
    1d3a:	c0068693          	addi	a3,a3,-1024
    1d3e:	00d50e63          	beq	a0,a3,1d5a <TIM_TimeBaseInit+0x4e>
    1d42:	40070713          	addi	a4,a4,1024
    1d46:	00e50a63          	beq	a0,a4,1d5a <TIM_TimeBaseInit+0x4e>
    1d4a:	40015737          	lui	a4,0x40015
    1d4e:	c0070693          	addi	a3,a4,-1024 # 40014c00 <_eusrstack+0x1fff4c00>
    1d52:	00d50463          	beq	a0,a3,1d5a <TIM_TimeBaseInit+0x4e>
    1d56:	00e51663          	bne	a0,a4,1d62 <TIM_TimeBaseInit+0x56>
    1d5a:	21ba                	lhu	a4,2(a1)
    1d5c:	f8f7f793          	andi	a5,a5,-113
    1d60:	8fd9                	or	a5,a5,a4
    1d62:	40001737          	lui	a4,0x40001
    1d66:	00e50c63          	beq	a0,a4,1d7e <TIM_TimeBaseInit+0x72>
    1d6a:	40070713          	addi	a4,a4,1024 # 40001400 <_eusrstack+0x1ffe1400>
    1d6e:	00e50863          	beq	a0,a4,1d7e <TIM_TimeBaseInit+0x72>
    1d72:	cff7f793          	andi	a5,a5,-769
    1d76:	21fa                	lhu	a4,6(a1)
    1d78:	07c2                	slli	a5,a5,0x10
    1d7a:	83c1                	srli	a5,a5,0x10
    1d7c:	8fd9                	or	a5,a5,a4
    1d7e:	a11e                	sh	a5,0(a0)
    1d80:	21de                	lhu	a5,4(a1)
    1d82:	b55e                	sh	a5,44(a0)
    1d84:	219e                	lhu	a5,0(a1)
    1d86:	b51e                	sh	a5,40(a0)
    1d88:	400137b7          	lui	a5,0x40013
    1d8c:	c0078713          	addi	a4,a5,-1024 # 40012c00 <_eusrstack+0x1fff2c00>
    1d90:	00e50e63          	beq	a0,a4,1dac <TIM_TimeBaseInit+0xa0>
    1d94:	40078793          	addi	a5,a5,1024
    1d98:	00f50a63          	beq	a0,a5,1dac <TIM_TimeBaseInit+0xa0>
    1d9c:	400157b7          	lui	a5,0x40015
    1da0:	c0078713          	addi	a4,a5,-1024 # 40014c00 <_eusrstack+0x1fff4c00>
    1da4:	00e50463          	beq	a0,a4,1dac <TIM_TimeBaseInit+0xa0>
    1da8:	00f51463          	bne	a0,a5,1db0 <TIM_TimeBaseInit+0xa4>
    1dac:	259c                	lbu	a5,8(a1)
    1dae:	b91e                	sh	a5,48(a0)
    1db0:	4785                	li	a5,1
    1db2:	a95e                	sh	a5,20(a0)
    1db4:	8082                	ret

00001db6 <TIM_Cmd>:
TIM_Cmd():
    1db6:	211e                	lhu	a5,0(a0)
    1db8:	c589                	beqz	a1,1dc2 <TIM_Cmd+0xc>
    1dba:	0017e793          	ori	a5,a5,1
    1dbe:	a11e                	sh	a5,0(a0)
    1dc0:	8082                	ret
    1dc2:	07c2                	slli	a5,a5,0x10
    1dc4:	83c1                	srli	a5,a5,0x10
    1dc6:	9bf9                	andi	a5,a5,-2
    1dc8:	07c2                	slli	a5,a5,0x10
    1dca:	83c1                	srli	a5,a5,0x10
    1dcc:	bfcd                	j	1dbe <TIM_Cmd+0x8>

00001dce <TIM_ITConfig>:
TIM_ITConfig():
    1dce:	255e                	lhu	a5,12(a0)
    1dd0:	c601                	beqz	a2,1dd8 <TIM_ITConfig+0xa>
    1dd2:	8ddd                	or	a1,a1,a5
    1dd4:	a54e                	sh	a1,12(a0)
    1dd6:	8082                	ret
    1dd8:	fff5c593          	not	a1,a1
    1ddc:	8dfd                	and	a1,a1,a5
    1dde:	bfdd                	j	1dd4 <TIM_ITConfig+0x6>

00001de0 <TIM_ClearITPendingBit>:
TIM_ClearITPendingBit():
    1de0:	fff5c593          	not	a1,a1
    1de4:	05c2                	slli	a1,a1,0x10
    1de6:	81c1                	srli	a1,a1,0x10
    1de8:	a90e                	sh	a1,16(a0)
    1dea:	8082                	ret

00001dec <USART_Init>:
USART_Init():
    1dec:	c44fe2ef          	jal	t0,230 <__riscv_save_0>
    1df0:	2916                	lhu	a3,16(a0)
    1df2:	77f5                	lui	a5,0xffffd
    1df4:	17fd                	addi	a5,a5,-1
    1df6:	8ff5                	and	a5,a5,a3
    1df8:	21f6                	lhu	a3,6(a1)
    1dfa:	25da                	lhu	a4,12(a1)
    1dfc:	7179                	addi	sp,sp,-48
    1dfe:	8fd5                	or	a5,a5,a3
    1e00:	a91e                	sh	a5,16(a0)
    1e02:	2556                	lhu	a3,12(a0)
    1e04:	77fd                	lui	a5,0xfffff
    1e06:	9f378793          	addi	a5,a5,-1549 # ffffe9f3 <_eusrstack+0xdffde9f3>
    1e0a:	8ff5                	and	a5,a5,a3
    1e0c:	21d6                	lhu	a3,4(a1)
    1e0e:	842a                	mv	s0,a0
    1e10:	c62e                	sw	a1,12(sp)
    1e12:	8fd5                	or	a5,a5,a3
    1e14:	2596                	lhu	a3,8(a1)
    1e16:	8fd5                	or	a5,a5,a3
    1e18:	25b6                	lhu	a3,10(a1)
    1e1a:	8fd5                	or	a5,a5,a3
    1e1c:	a55e                	sh	a5,12(a0)
    1e1e:	295e                	lhu	a5,20(a0)
    1e20:	07c2                	slli	a5,a5,0x10
    1e22:	83c1                	srli	a5,a5,0x10
    1e24:	cff7f793          	andi	a5,a5,-769
    1e28:	8fd9                	or	a5,a5,a4
    1e2a:	a95e                	sh	a5,20(a0)
    1e2c:	0868                	addi	a0,sp,28
    1e2e:	31d5                	jal	1b12 <RCC_GetClocksFreq>
    1e30:	400147b7          	lui	a5,0x40014
    1e34:	80078793          	addi	a5,a5,-2048 # 40013800 <_eusrstack+0x1fff3800>
    1e38:	45b2                	lw	a1,12(sp)
    1e3a:	04f41a63          	bne	s0,a5,1e8e <USART_Init+0xa2>
    1e3e:	57a2                	lw	a5,40(sp)
    1e40:	2456                	lhu	a3,12(s0)
    1e42:	4765                	li	a4,25
    1e44:	02e787b3          	mul	a5,a5,a4
    1e48:	06c2                	slli	a3,a3,0x10
    1e4a:	86c1                	srai	a3,a3,0x10
    1e4c:	4198                	lw	a4,0(a1)
    1e4e:	0406d263          	bgez	a3,1e92 <USART_Init+0xa6>
    1e52:	0706                	slli	a4,a4,0x1
    1e54:	2452                	lhu	a2,12(s0)
    1e56:	0642                	slli	a2,a2,0x10
    1e58:	02e7d7b3          	divu	a5,a5,a4
    1e5c:	06400713          	li	a4,100
    1e60:	8641                	srai	a2,a2,0x10
    1e62:	02e7d6b3          	divu	a3,a5,a4
    1e66:	02e7f7b3          	remu	a5,a5,a4
    1e6a:	0692                	slli	a3,a3,0x4
    1e6c:	02065563          	bgez	a2,1e96 <USART_Init+0xaa>
    1e70:	078e                	slli	a5,a5,0x3
    1e72:	03278793          	addi	a5,a5,50
    1e76:	02e7d7b3          	divu	a5,a5,a4
    1e7a:	0077f713          	andi	a4,a5,7
    1e7e:	00d767b3          	or	a5,a4,a3
    1e82:	07c2                	slli	a5,a5,0x10
    1e84:	83c1                	srli	a5,a5,0x10
    1e86:	a41e                	sh	a5,8(s0)
    1e88:	6145                	addi	sp,sp,48
    1e8a:	bcafe06f          	j	254 <__riscv_restore_0>
    1e8e:	5792                	lw	a5,36(sp)
    1e90:	bf45                	j	1e40 <USART_Init+0x54>
    1e92:	070a                	slli	a4,a4,0x2
    1e94:	b7c1                	j	1e54 <USART_Init+0x68>
    1e96:	0792                	slli	a5,a5,0x4
    1e98:	03278793          	addi	a5,a5,50
    1e9c:	02e7d7b3          	divu	a5,a5,a4
    1ea0:	8bbd                	andi	a5,a5,15
    1ea2:	8fd5                	or	a5,a5,a3
    1ea4:	bff9                	j	1e82 <USART_Init+0x96>

00001ea6 <USART_Cmd>:
USART_Cmd():
    1ea6:	c591                	beqz	a1,1eb2 <USART_Cmd+0xc>
    1ea8:	255e                	lhu	a5,12(a0)
    1eaa:	6709                	lui	a4,0x2
    1eac:	8fd9                	or	a5,a5,a4
    1eae:	a55e                	sh	a5,12(a0)
    1eb0:	8082                	ret
    1eb2:	255a                	lhu	a4,12(a0)
    1eb4:	77f9                	lui	a5,0xffffe
    1eb6:	17fd                	addi	a5,a5,-1
    1eb8:	8ff9                	and	a5,a5,a4
    1eba:	bfd5                	j	1eae <USART_Cmd+0x8>

00001ebc <USART_DMACmd>:
USART_DMACmd():
    1ebc:	295e                	lhu	a5,20(a0)
    1ebe:	c601                	beqz	a2,1ec6 <USART_DMACmd+0xa>
    1ec0:	8ddd                	or	a1,a1,a5
    1ec2:	a94e                	sh	a1,20(a0)
    1ec4:	8082                	ret
    1ec6:	fff5c593          	not	a1,a1
    1eca:	8dfd                	and	a1,a1,a5
    1ecc:	bfdd                	j	1ec2 <USART_DMACmd+0x6>

00001ece <USART_SendData>:
USART_SendData():
    1ece:	1ff5f593          	andi	a1,a1,511
    1ed2:	a14e                	sh	a1,4(a0)
    1ed4:	8082                	ret

00001ed6 <USART_GetFlagStatus>:
USART_GetFlagStatus():
    1ed6:	210a                	lhu	a0,0(a0)
    1ed8:	8d6d                	and	a0,a0,a1
    1eda:	00a03533          	snez	a0,a0
    1ede:	8082                	ret

00001ee0 <Delay_Init>:
Delay_Init():
    1ee0:	81c1a783          	lw	a5,-2020(gp) # 2000008c <SystemCoreClock>
    1ee4:	007a1737          	lui	a4,0x7a1
    1ee8:	20070713          	addi	a4,a4,512 # 7a1200 <_data_lma+0x796fc0>
    1eec:	02e7d7b3          	divu	a5,a5,a4
    1ef0:	0ff7f793          	andi	a5,a5,255
    1ef4:	88f18123          	sb	a5,-1918(gp) # 200000f2 <p_us>
    1ef8:	3e800713          	li	a4,1000
    1efc:	02e787b3          	mul	a5,a5,a4
    1f00:	88f19023          	sh	a5,-1920(gp) # 200000f0 <p_ms>
    1f04:	8082                	ret

00001f06 <Delay_Ms>:
Delay_Ms():
    1f06:	e000f7b7          	lui	a5,0xe000f
    1f0a:	4741                	li	a4,16
    1f0c:	c398                	sw	a4,0(a5)
    1f0e:	8801d703          	lhu	a4,-1920(gp) # 200000f0 <p_ms>
    1f12:	4681                	li	a3,0
    1f14:	02a70633          	mul	a2,a4,a0
    1f18:	cb90                	sw	a2,16(a5)
    1f1a:	cbd4                	sw	a3,20(a5)
    1f1c:	4398                	lw	a4,0(a5)
    1f1e:	02176713          	ori	a4,a4,33
    1f22:	c398                	sw	a4,0(a5)
    1f24:	43d8                	lw	a4,4(a5)
    1f26:	8b05                	andi	a4,a4,1
    1f28:	df75                	beqz	a4,1f24 <Delay_Ms+0x1e>
    1f2a:	43d8                	lw	a4,4(a5)
    1f2c:	9b79                	andi	a4,a4,-2
    1f2e:	c3d8                	sw	a4,4(a5)
    1f30:	8082                	ret

00001f32 <_write>:
_write():
    1f32:	ae4fe2ef          	jal	t0,216 <__riscv_save_4>
    1f36:	400144b7          	lui	s1,0x40014
    1f3a:	89ae                	mv	s3,a1
    1f3c:	8932                	mv	s2,a2
    1f3e:	4401                	li	s0,0
    1f40:	80048493          	addi	s1,s1,-2048 # 40013800 <_eusrstack+0x1fff3800>
    1f44:	01244563          	blt	s0,s2,1f4e <_write+0x1c>
    1f48:	854a                	mv	a0,s2
    1f4a:	b00fe06f          	j	24a <__riscv_restore_4>
    1f4e:	04000593          	li	a1,64
    1f52:	8526                	mv	a0,s1
    1f54:	3749                	jal	1ed6 <USART_GetFlagStatus>
    1f56:	dd65                	beqz	a0,1f4e <_write+0x1c>
    1f58:	008987b3          	add	a5,s3,s0
    1f5c:	00078583          	lb	a1,0(a5) # e000f000 <_eusrstack+0xbffef000>
    1f60:	8526                	mv	a0,s1
    1f62:	0405                	addi	s0,s0,1
    1f64:	05c2                	slli	a1,a1,0x10
    1f66:	81c1                	srli	a1,a1,0x10
    1f68:	379d                	jal	1ece <USART_SendData>
    1f6a:	bfe9                	j	1f44 <_write+0x12>

00001f6c <__get_MEPC>:
__get_MEPC():
    1f6c:	34102573          	csrr	a0,mepc
    1f70:	8082                	ret

00001f72 <__get_MCAUSE>:
__get_MCAUSE():
    1f72:	34202573          	csrr	a0,mcause
    1f76:	8082                	ret

00001f78 <__get_MTVAL>:
__get_MTVAL():
    1f78:	34302573          	csrr	a0,mtval
    1f7c:	8082                	ret

00001f7e <low_level_output>:
low_level_output():
    1f7e:	a98fe2ef          	jal	t0,216 <__riscv_save_4>
    1f82:	89ae                	mv	s3,a1
    1f84:	854e                	mv	a0,s3
    1f86:	55fd                	li	a1,-1
    1f88:	769000ef          	jal	ra,2ef0 <pbuf_header>
    1f8c:	2001e7b7          	lui	a5,0x2001e
    1f90:	e6c7a583          	lw	a1,-404(a5) # 2001de6c <NetInf+0x20>
    1f94:	67c1                	lui	a5,0x10
    1f96:	4505                	li	a0,1
    1f98:	8a818693          	addi	a3,gp,-1880 # 20000118 <SuccessPackets>
    1f9c:	4294                	lw	a3,0(a3)
    1f9e:	8a818613          	addi	a2,gp,-1880 # 20000118 <SuccessPackets>
    1fa2:	eea9                	bnez	a3,1ffc <low_level_output+0x7e>
    1fa4:	20010537          	lui	a0,0x20010
    1fa8:	84ce                	mv	s1,s3
    1faa:	4401                	li	s0,0
    1fac:	cc450793          	addi	a5,a0,-828 # 2000fcc4 <MACTxBuf>
    1fb0:	892a                	mv	s2,a0
    1fb2:	ecb1                	bnez	s1,200e <low_level_output+0x90>
    1fb4:	2001e7b7          	lui	a5,0x2001e
    1fb8:	d9478793          	addi	a5,a5,-620 # 2001dd94 <TXCtrl>
    1fbc:	4398                	lw	a4,0(a5)
    1fbe:	4685                	li	a3,1
    1fc0:	070a                	slli	a4,a4,0x2
    1fc2:	973e                	add	a4,a4,a5
    1fc4:	c354                	sw	a3,4(a4)
    1fc6:	4398                	lw	a4,0(a5)
    1fc8:	0705                	addi	a4,a4,1
    1fca:	c398                	sw	a4,0(a5)
    1fcc:	4398                	lw	a4,0(a5)
    1fce:	00e6f463          	bgeu	a3,a4,1fd6 <low_level_output+0x58>
    1fd2:	0007a023          	sw	zero,0(a5)
    1fd6:	03c00793          	li	a5,60
    1fda:	85a2                	mv	a1,s0
    1fdc:	00f47463          	bgeu	s0,a5,1fe4 <low_level_output+0x66>
    1fe0:	03c00593          	li	a1,60
    1fe4:	05c2                	slli	a1,a1,0x10
    1fe6:	81c1                	srli	a1,a1,0x10
    1fe8:	cc490513          	addi	a0,s2,-828
    1fec:	225020ef          	jal	ra,4a10 <mac_send>
    1ff0:	4585                	li	a1,1
    1ff2:	854e                	mv	a0,s3
    1ff4:	6fd000ef          	jal	ra,2ef0 <pbuf_header>
    1ff8:	4501                	li	a0,0
    1ffa:	a801                	j	200a <low_level_output+0x8c>
    1ffc:	17fd                	addi	a5,a5,-1
    1ffe:	c399                	beqz	a5,2004 <low_level_output+0x86>
    2000:	f8a59ce3          	bne	a1,a0,1f98 <low_level_output+0x1a>
    2004:	00062023          	sw	zero,0(a2) # 40021000 <_eusrstack+0x20001000>
    2008:	5551                	li	a0,-12
    200a:	a40fe06f          	j	24a <__riscv_restore_4>
    200e:	00a4da03          	lhu	s4,10(s1)
    2012:	40cc                	lw	a1,4(s1)
    2014:	853e                	mv	a0,a5
    2016:	9452                	add	s0,s0,s4
    2018:	8652                	mv	a2,s4
    201a:	4e7060ef          	jal	ra,8d00 <memcpy>
    201e:	0442                	slli	s0,s0,0x10
    2020:	8041                	srli	s0,s0,0x10
    2022:	014507b3          	add	a5,a0,s4
    2026:	4084                	lw	s1,0(s1)
    2028:	b769                	j	1fb2 <low_level_output+0x34>

0000202a <low_level_init>:
low_level_init():
    202a:	a06fe2ef          	jal	t0,230 <__riscv_save_0>
    202e:	4799                	li	a5,6
    2030:	02f50523          	sb	a5,42(a0)
    2034:	8bc1a583          	lw	a1,-1860(gp) # 2000012c <WCHMACAddr>
    2038:	842a                	mv	s0,a0
    203a:	4781                	li	a5,0
    203c:	4719                	li	a4,6
    203e:	00f586b3          	add	a3,a1,a5
    2042:	2290                	lbu	a2,0(a3)
    2044:	00f406b3          	add	a3,s0,a5
    2048:	0785                	addi	a5,a5,1
    204a:	02c685a3          	sb	a2,43(a3)
    204e:	fee798e3          	bne	a5,a4,203e <low_level_init+0x14>
    2052:	2001e7b7          	lui	a5,0x2001e
    2056:	d9478793          	addi	a5,a5,-620 # 2001dd94 <TXCtrl>
    205a:	0007a023          	sw	zero,0(a5)
    205e:	0007a223          	sw	zero,4(a5)
    2062:	20010737          	lui	a4,0x20010
    2066:	0007a423          	sw	zero,8(a5)
    206a:	cc470713          	addi	a4,a4,-828 # 2000fcc4 <MACTxBuf>
    206e:	2001e537          	lui	a0,0x2001e
    2072:	c7d8                	sw	a4,12(a5)
    2074:	cc450493          	addi	s1,a0,-828 # 2001dcc4 <RxCtrl>
    2078:	0d000613          	li	a2,208
    207c:	4581                	li	a1,0
    207e:	cc450513          	addi	a0,a0,-828
    2082:	cb98                	sw	a4,16(a5)
    2084:	9dcfe0ef          	jal	ra,260 <memset>
    2088:	4785                	li	a5,1
    208a:	0cf4a623          	sw	a5,204(s1)
    208e:	5dc00793          	li	a5,1500
    2092:	b41e                	sh	a5,40(s0)
    2094:	03300793          	li	a5,51
    2098:	02f408a3          	sb	a5,49(s0) # 40028031 <_eusrstack+0x20008031>
    209c:	8a01a423          	sw	zero,-1880(gp) # 20000118 <SuccessPackets>
    20a0:	9b4fe06f          	j	254 <__riscv_restore_0>

000020a4 <ethernetif_init>:
ethernetif_init():
    20a4:	98cfe2ef          	jal	t0,230 <__riscv_save_0>
    20a8:	2001e737          	lui	a4,0x2001e
    20ac:	de070713          	addi	a4,a4,-544 # 2001dde0 <dhcp_host_name>
    20b0:	d158                	sw	a4,36(a0)
    20b2:	671d                	lui	a4,0x7
    20b4:	e6570713          	addi	a4,a4,-411 # 6e65 <ip_output_if+0x12d>
    20b8:	b93a                	sh	a4,50(a0)
    20ba:	00006737          	lui	a4,0x6
    20be:	3b270713          	addi	a4,a4,946 # 63b2 <etharp_output>
    20c2:	c958                	sw	a4,20(a0)
    20c4:	00002737          	lui	a4,0x2
    20c8:	f7e70713          	addi	a4,a4,-130 # 1f7e <low_level_output>
    20cc:	cd18                	sw	a4,24(a0)
    20ce:	00052e23          	sw	zero,28(a0)
    20d2:	3fa1                	jal	202a <low_level_init>
    20d4:	4501                	li	a0,0
    20d6:	97efe06f          	j	254 <__riscv_restore_0>

000020da <WCHNET_SetHostname>:
WCHNET_SetHostname():
    20da:	956fe2ef          	jal	t0,230 <__riscv_save_0>
    20de:	85aa                	mv	a1,a0
    20e0:	2001e537          	lui	a0,0x2001e
    20e4:	de050513          	addi	a0,a0,-544 # 2001dde0 <dhcp_host_name>
    20e8:	5f5060ef          	jal	ra,8edc <strcpy>
    20ec:	968fe06f          	j	254 <__riscv_restore_0>

000020f0 <ethernetif_input>:
ethernetif_input():
    20f0:	918fe2ef          	jal	t0,208 <__riscv_save_10>
    20f4:	2001e437          	lui	s0,0x2001e
    20f8:	cc440793          	addi	a5,s0,-828 # 2001dcc4 <RxCtrl>
    20fc:	0c87a783          	lw	a5,200(a5)
    2100:	14078263          	beqz	a5,2244 <ethernetif_input+0x154>
    2104:	89818793          	addi	a5,gp,-1896 # 20000108 <DataLED>
    2108:	2398                	lbu	a4,0(a5)
    210a:	e000e6b7          	lui	a3,0xe000e
    210e:	6609                	lui	a2,0x2
    2110:	0705                	addi	a4,a4,1
    2112:	a398                	sb	a4,0(a5)
    2114:	18c6a423          	sw	a2,392(a3) # e000e188 <_eusrstack+0xbffee188>
    2118:	cc440413          	addi	s0,s0,-828
    211c:	0c842783          	lw	a5,200(s0)
    2120:	10c6a423          	sw	a2,264(a3)
    2124:	0ff7f793          	andi	a5,a5,255
    2128:	10078e63          	beqz	a5,2244 <ethernetif_input+0x154>
    212c:	18c6a423          	sw	a2,392(a3)
    2130:	0c042783          	lw	a5,192(s0)
    2134:	892a                	mv	s2,a0
    2136:	07c1                	addi	a5,a5,16
    2138:	078a                	slli	a5,a5,0x2
    213a:	97a2                	add	a5,a5,s0
    213c:	4398                	lw	a4,0(a5)
    213e:	0c042783          	lw	a5,192(s0)
    2142:	02078793          	addi	a5,a5,32
    2146:	078a                	slli	a5,a5,0x2
    2148:	97a2                	add	a5,a5,s0
    214a:	0007aa03          	lw	s4,0(a5)
    214e:	0c042783          	lw	a5,192(s0)
    2152:	078a                	slli	a5,a5,0x2
    2154:	97a2                	add	a5,a5,s0
    2156:	0007aa83          	lw	s5,0(a5)
    215a:	10c6a423          	sw	a2,264(a3)
    215e:	4789                	li	a5,2
    2160:	0ffafa93          	andi	s5,s5,255
    2164:	0efa9263          	bne	s5,a5,2248 <ethernetif_input+0x158>
    2168:	01071793          	slli	a5,a4,0x10
    216c:	83c1                	srli	a5,a5,0x10
    216e:	4481                	li	s1,0
    2170:	c7ad                	beqz	a5,21da <ethernetif_input+0xea>
    2172:	0785                	addi	a5,a5,1
    2174:	01079593          	slli	a1,a5,0x10
    2178:	460d                	li	a2,3
    217a:	81c1                	srli	a1,a1,0x10
    217c:	450d                	li	a0,3
    217e:	62f000ef          	jal	ra,2fac <pbuf_alloc>
    2182:	84aa                	mv	s1,a0
    2184:	c161                	beqz	a0,2244 <ethernetif_input+0x154>
    2186:	55fd                	li	a1,-1
    2188:	569000ef          	jal	ra,2ef0 <pbuf_header>
    218c:	89a6                	mv	s3,s1
    218e:	4b19                	li	s6,6
    2190:	4ba5                	li	s7,9
    2192:	1b7d                	addi	s6,s6,-1
    2194:	0ffb7b13          	andi	s6,s6,255
    2198:	0a0b0663          	beqz	s6,2244 <ethernetif_input+0x154>
    219c:	00a9d603          	lhu	a2,10(s3)
    21a0:	0049a503          	lw	a0,4(s3)
    21a4:	85d2                	mv	a1,s4
    21a6:	35b060ef          	jal	ra,8d00 <memcpy>
    21aa:	0c042783          	lw	a5,192(s0)
    21ae:	078a                	slli	a5,a5,0x2
    21b0:	97a2                	add	a5,a5,s0
    21b2:	0007a023          	sw	zero,0(a5)
    21b6:	0c042783          	lw	a5,192(s0)
    21ba:	0785                	addi	a5,a5,1
    21bc:	0cf42023          	sw	a5,192(s0)
    21c0:	0c042783          	lw	a5,192(s0)
    21c4:	00fbf463          	bgeu	s7,a5,21cc <ethernetif_input+0xdc>
    21c8:	0c042023          	sw	zero,192(s0)
    21cc:	00a9d783          	lhu	a5,10(s3)
    21d0:	0009a983          	lw	s3,0(s3)
    21d4:	9a3e                	add	s4,s4,a5
    21d6:	fa099ee3          	bnez	s3,2192 <ethernetif_input+0xa2>
    21da:	e000e7b7          	lui	a5,0xe000e
    21de:	6709                	lui	a4,0x2
    21e0:	18e7a423          	sw	a4,392(a5) # e000e188 <_eusrstack+0xbffee188>
    21e4:	0c842703          	lw	a4,200(s0)
    21e8:	8a418793          	addi	a5,gp,-1884 # 20000114 <MacRevcNull>
    21ec:	c325                	beqz	a4,224c <ethernetif_input+0x15c>
    21ee:	4709                	li	a4,2
    21f0:	04ea9e63          	bne	s5,a4,224c <ethernetif_input+0x15c>
    21f4:	00078023          	sb	zero,0(a5)
    21f8:	0c842783          	lw	a5,200(s0)
    21fc:	17fd                	addi	a5,a5,-1
    21fe:	0cf42423          	sw	a5,200(s0)
    2202:	e000e7b7          	lui	a5,0xe000e
    2206:	6709                	lui	a4,0x2
    2208:	10e7a423          	sw	a4,264(a5) # e000e108 <_eusrstack+0xbffee108>
    220c:	cc85                	beqz	s1,2244 <ethernetif_input+0x154>
    220e:	4585                	li	a1,1
    2210:	8526                	mv	a0,s1
    2212:	4df000ef          	jal	ra,2ef0 <pbuf_header>
    2216:	40dc                	lw	a5,4(s1)
    2218:	37c8                	lbu	a0,13(a5)
    221a:	27fc                	lbu	a5,14(a5)
    221c:	07a2                	slli	a5,a5,0x8
    221e:	8d5d                	or	a0,a0,a5
    2220:	2c11                	jal	2434 <htons>
    2222:	80050793          	addi	a5,a0,-2048
    2226:	c791                	beqz	a5,2232 <ethernetif_input+0x142>
    2228:	6785                	lui	a5,0x1
    222a:	80678793          	addi	a5,a5,-2042 # 806 <__stack_size+0x6>
    222e:	00f51863          	bne	a0,a5,223e <ethernetif_input+0x14e>
    2232:	01092783          	lw	a5,16(s2)
    2236:	85ca                	mv	a1,s2
    2238:	8526                	mv	a0,s1
    223a:	9782                	jalr	a5
    223c:	c501                	beqz	a0,2244 <ethernetif_input+0x154>
    223e:	8526                	mv	a0,s1
    2240:	51f000ef          	jal	ra,2f5e <pbuf_free>
    2244:	ffdfd06f          	j	240 <__riscv_restore_10>
    2248:	4481                	li	s1,0
    224a:	bf41                	j	21da <ethernetif_input+0xea>
    224c:	2398                	lbu	a4,0(a5)
    224e:	46a5                	li	a3,9
    2250:	0705                	addi	a4,a4,1
    2252:	0ff77713          	andi	a4,a4,255
    2256:	00e6e463          	bltu	a3,a4,225e <ethernetif_input+0x16e>
    225a:	a398                	sb	a4,0(a5)
    225c:	b75d                	j	2202 <ethernetif_input+0x112>
    225e:	00078023          	sb	zero,0(a5)
    2262:	0c842783          	lw	a5,200(s0)
    2266:	17fd                	addi	a5,a5,-1
    2268:	0cf42423          	sw	a5,200(s0)
    226c:	0c842783          	lw	a5,200(s0)
    2270:	fbc9                	bnez	a5,2202 <ethernetif_input+0x112>
    2272:	0c442783          	lw	a5,196(s0)
    2276:	0cf42023          	sw	a5,192(s0)
    227a:	b761                	j	2202 <ethernetif_input+0x112>

0000227c <SetupNetif>:
SetupNetif():
    227c:	f9bfd2ef          	jal	t0,216 <__riscv_save_4>
    2280:	2001e7b7          	lui	a5,0x2001e
    2284:	8bc18413          	addi	s0,gp,-1860 # 2000012c <WCHMACAddr>
    2288:	e5878793          	addi	a5,a5,-424 # 2001de58 <NetInf+0xc>
    228c:	c01c                	sw	a5,0(s0)
    228e:	2001e7b7          	lui	a5,0x2001e
    2292:	8b418993          	addi	s3,gp,-1868 # 20000124 <WCHIPAddr>
    2296:	e4c78793          	addi	a5,a5,-436 # 2001de4c <NetInf>
    229a:	00f9a023          	sw	a5,0(s3)
    229e:	2001e7b7          	lui	a5,0x2001e
    22a2:	8b018493          	addi	s1,gp,-1872 # 20000120 <WCHGWIPAddr>
    22a6:	e5078793          	addi	a5,a5,-432 # 2001de50 <NetInf+0x4>
    22aa:	c09c                	sw	a5,0(s1)
    22ac:	2001e7b7          	lui	a5,0x2001e
    22b0:	1141                	addi	sp,sp,-16
    22b2:	e5478793          	addi	a5,a5,-428 # 2001de54 <NetInf+0x8>
    22b6:	8b818913          	addi	s2,gp,-1864 # 20000128 <WCHIPMask>
    22ba:	00f92023          	sw	a5,0(s2)
    22be:	c202                	sw	zero,4(sp)
    22c0:	c402                	sw	zero,8(sp)
    22c2:	c602                	sw	zero,12(sp)
    22c4:	7e8000ef          	jal	ra,2aac <lwip_init>
    22c8:	0009a583          	lw	a1,0(s3)
    22cc:	4611                	li	a2,4
    22ce:	0048                	addi	a0,sp,4
    22d0:	231060ef          	jal	ra,8d00 <memcpy>
    22d4:	00092583          	lw	a1,0(s2)
    22d8:	4611                	li	a2,4
    22da:	0028                	addi	a0,sp,8
    22dc:	225060ef          	jal	ra,8d00 <memcpy>
    22e0:	408c                	lw	a1,0(s1)
    22e2:	4611                	li	a2,4
    22e4:	0068                	addi	a0,sp,12
    22e6:	21b060ef          	jal	ra,8d00 <memcpy>
    22ea:	2001e4b7          	lui	s1,0x2001e
    22ee:	400c                	lw	a1,0(s0)
    22f0:	da848513          	addi	a0,s1,-600 # 2001dda8 <WCHNetIf>
    22f4:	4619                	li	a2,6
    22f6:	02b50513          	addi	a0,a0,43
    22fa:	207060ef          	jal	ra,8d00 <memcpy>
    22fe:	da848513          	addi	a0,s1,-600
    2302:	8c01ac23          	sw	zero,-1832(gp) # 20000148 <netif_list>
    2306:	8c01aa23          	sw	zero,-1836(gp) # 20000144 <netif_default>
    230a:	3d9000ef          	jal	ra,2ee2 <netif_set_default>
    230e:	00006837          	lui	a6,0x6
    2312:	000027b7          	lui	a5,0x2
    2316:	0074                	addi	a3,sp,12
    2318:	0030                	addi	a2,sp,8
    231a:	004c                	addi	a1,sp,4
    231c:	4fa80813          	addi	a6,a6,1274 # 64fa <ethernet_input>
    2320:	0a478793          	addi	a5,a5,164 # 20a4 <ethernetif_init>
    2324:	4701                	li	a4,0
    2326:	da848513          	addi	a0,s1,-600
    232a:	361000ef          	jal	ra,2e8a <netif_add>
    232e:	0141                	addi	sp,sp,16
    2330:	f1bfd06f          	j	24a <__riscv_restore_4>

00002334 <LwIPPeriodicHandle>:
LwIPPeriodicHandle():
    2334:	efdfd2ef          	jal	t0,230 <__riscv_save_0>
    2338:	8a01a783          	lw	a5,-1888(gp) # 20000110 <LocalTime>
    233c:	1141                	addi	sp,sp,-16
    233e:	c63e                	sw	a5,12(sp)
    2340:	203030ef          	jal	ra,5d42 <WCHNET_GetPHYStatus>
    2344:	8911                	andi	a0,a0,4
    2346:	0e050463          	beqz	a0,242e <LwIPPeriodicHandle+0xfa>
    234a:	8ac18793          	addi	a5,gp,-1876 # 2000011c <TCPTimer>
    234e:	46b2                	lw	a3,12(sp)
    2350:	4398                	lw	a4,0(a5)
    2352:	8e99                	sub	a3,a3,a4
    2354:	2001e737          	lui	a4,0x2001e
    2358:	e6872703          	lw	a4,-408(a4) # 2001de68 <NetInf+0x1c>
    235c:	8305                	srli	a4,a4,0x1
    235e:	00d77663          	bgeu	a4,a3,236a <LwIPPeriodicHandle+0x36>
    2362:	4732                	lw	a4,12(sp)
    2364:	c398                	sw	a4,0(a5)
    2366:	5f0010ef          	jal	ra,3956 <tcp_tmr>
    236a:	89c18413          	addi	s0,gp,-1892 # 2000010c <IPFragTimer>
    236e:	47b2                	lw	a5,12(sp)
    2370:	4018                	lw	a4,0(s0)
    2372:	8f99                	sub	a5,a5,a4
    2374:	3e700713          	li	a4,999
    2378:	00f77563          	bgeu	a4,a5,2382 <LwIPPeriodicHandle+0x4e>
    237c:	2209                	jal	247e <ip_reass_tmr>
    237e:	47b2                	lw	a5,12(sp)
    2380:	c01c                	sw	a5,0(s0)
    2382:	88418793          	addi	a5,gp,-1916 # 200000f4 <ARPTimer>
    2386:	46b2                	lw	a3,12(sp)
    2388:	4398                	lw	a4,0(a5)
    238a:	8e99                	sub	a3,a3,a4
    238c:	6705                	lui	a4,0x1
    238e:	38770713          	addi	a4,a4,903 # 1387 <SW_handler+0x1>
    2392:	00d77663          	bgeu	a4,a3,239e <LwIPPeriodicHandle+0x6a>
    2396:	4732                	lw	a4,12(sp)
    2398:	c398                	sw	a4,0(a5)
    239a:	475030ef          	jal	ra,600e <etharp_tmr>
    239e:	2001e7b7          	lui	a5,0x2001e
    23a2:	ea478793          	addi	a5,a5,-348 # 2001dea4 <DNSInf>
    23a6:	47d8                	lw	a4,12(a5)
    23a8:	cf11                	beqz	a4,23c4 <LwIPPeriodicHandle+0x90>
    23aa:	89418713          	addi	a4,gp,-1900 # 20000104 <DNSTimer>
    23ae:	46b2                	lw	a3,12(sp)
    23b0:	4310                	lw	a2,0(a4)
    23b2:	8e91                	sub	a3,a3,a2
    23b4:	3e700613          	li	a2,999
    23b8:	00d67663          	bgeu	a2,a3,23c4 <LwIPPeriodicHandle+0x90>
    23bc:	46b2                	lw	a3,12(sp)
    23be:	43dc                	lw	a5,4(a5)
    23c0:	c314                	sw	a3,0(a4)
    23c2:	9782                	jalr	a5
    23c4:	2001e437          	lui	s0,0x2001e
    23c8:	cac42783          	lw	a5,-852(s0) # 2001dcac <DHCPCtrl>
    23cc:	cac40413          	addi	s0,s0,-852
    23d0:	cf95                	beqz	a5,240c <LwIPPeriodicHandle+0xd8>
    23d2:	89018793          	addi	a5,gp,-1904 # 20000100 <DHCPfineTimer>
    23d6:	4732                	lw	a4,12(sp)
    23d8:	4394                	lw	a3,0(a5)
    23da:	8f15                	sub	a4,a4,a3
    23dc:	7cf00693          	li	a3,1999
    23e0:	00e6f763          	bgeu	a3,a4,23ee <LwIPPeriodicHandle+0xba>
    23e4:	4732                	lw	a4,12(sp)
    23e6:	c398                	sw	a4,0(a5)
    23e8:	481c                	lw	a5,16(s0)
    23ea:	c391                	beqz	a5,23ee <LwIPPeriodicHandle+0xba>
    23ec:	9782                	jalr	a5
    23ee:	88c18793          	addi	a5,gp,-1908 # 200000fc <DHCPcoarseTimer>
    23f2:	46b2                	lw	a3,12(sp)
    23f4:	4398                	lw	a4,0(a5)
    23f6:	8e99                	sub	a3,a3,a4
    23f8:	673d                	lui	a4,0xf
    23fa:	a5f70713          	addi	a4,a4,-1441 # ea5f <_data_lma+0x481f>
    23fe:	00d77763          	bgeu	a4,a3,240c <LwIPPeriodicHandle+0xd8>
    2402:	4732                	lw	a4,12(sp)
    2404:	c398                	sw	a4,0(a5)
    2406:	485c                	lw	a5,20(s0)
    2408:	c391                	beqz	a5,240c <LwIPPeriodicHandle+0xd8>
    240a:	9782                	jalr	a5
    240c:	88818793          	addi	a5,gp,-1912 # 200000f8 <DHCPTestTimer>
    2410:	4732                	lw	a4,12(sp)
    2412:	4394                	lw	a3,0(a5)
    2414:	8f15                	sub	a4,a4,a3
    2416:	1f400693          	li	a3,500
    241a:	00e6f463          	bgeu	a3,a4,2422 <LwIPPeriodicHandle+0xee>
    241e:	4732                	lw	a4,12(sp)
    2420:	c398                	sw	a4,0(a5)
    2422:	4532                	lw	a0,12(sp)
    2424:	129020ef          	jal	ra,4d4c <IPCheckTmr>
    2428:	4532                	lw	a0,12(sp)
    242a:	165020ef          	jal	ra,4d8e <ArpCheck>
    242e:	0141                	addi	sp,sp,16
    2430:	e25fd06f          	j	254 <__riscv_restore_0>

00002434 <htons>:
htons():
    2434:	00851793          	slli	a5,a0,0x8
    2438:	8121                	srli	a0,a0,0x8
    243a:	8d5d                	or	a0,a0,a5
    243c:	0542                	slli	a0,a0,0x10
    243e:	8141                	srli	a0,a0,0x10
    2440:	8082                	ret

00002442 <ntohs>:
ntohs():
    2442:	00851793          	slli	a5,a0,0x8
    2446:	8121                	srli	a0,a0,0x8
    2448:	8d5d                	or	a0,a0,a5
    244a:	0542                	slli	a0,a0,0x10
    244c:	8141                	srli	a0,a0,0x10
    244e:	8082                	ret

00002450 <htonl>:
htonl():
    2450:	01855713          	srli	a4,a0,0x18
    2454:	01851793          	slli	a5,a0,0x18
    2458:	8fd9                	or	a5,a5,a4
    245a:	00ff06b7          	lui	a3,0xff0
    245e:	00851713          	slli	a4,a0,0x8
    2462:	8f75                	and	a4,a4,a3
    2464:	8fd9                	or	a5,a5,a4
    2466:	6741                	lui	a4,0x10
    2468:	f0070713          	addi	a4,a4,-256 # ff00 <_data_lma+0x5cc0>
    246c:	8121                	srli	a0,a0,0x8
    246e:	8d79                	and	a0,a0,a4
    2470:	8d5d                	or	a0,a0,a5
    2472:	8082                	ret

00002474 <ntohl>:
ntohl():
    2474:	dbdfd2ef          	jal	t0,230 <__riscv_save_0>
    2478:	3fe1                	jal	2450 <htonl>
    247a:	ddbfd06f          	j	254 <__riscv_restore_0>

0000247e <ip_reass_tmr>:
ip_reass_tmr():
    247e:	d8bfd2ef          	jal	t0,208 <__riscv_save_10>
    2482:	8c41a403          	lw	s0,-1852(gp) # 20000134 <reassdatagrams>
    2486:	44c5                	li	s1,17
    2488:	4b01                	li	s6,0
    248a:	8c418913          	addi	s2,gp,-1852 # 20000134 <reassdatagrams>
    248e:	e019                	bnez	s0,2494 <ip_reass_tmr+0x16>
    2490:	db1fd06f          	j	240 <__riscv_restore_10>
    2494:	14fd                	addi	s1,s1,-1
    2496:	0ff4f493          	andi	s1,s1,255
    249a:	d8fd                	beqz	s1,2490 <ip_reass_tmr+0x12>
    249c:	3c7c                	lbu	a5,31(s0)
    249e:	00042c03          	lw	s8,0(s0)
    24a2:	c791                	beqz	a5,24ae <ip_reass_tmr+0x30>
    24a4:	17fd                	addi	a5,a5,-1
    24a6:	bc7c                	sb	a5,31(s0)
    24a8:	8b22                	mv	s6,s0
    24aa:	8462                	mv	s0,s8
    24ac:	b7cd                	j	248e <ip_reass_tmr+0x10>
    24ae:	00442983          	lw	s3,4(s0)
    24b2:	4a81                	li	s5,0
    24b4:	0049a503          	lw	a0,4(s3)
    24b8:	315c                	lbu	a5,5(a0)
    24ba:	2158                	lbu	a4,4(a0)
    24bc:	07a2                	slli	a5,a5,0x8
    24be:	8fd9                	or	a5,a5,a4
    24c0:	ef85                	bnez	a5,24f8 <ip_reass_tmr+0x7a>
    24c2:	3118                	lbu	a4,1(a0)
    24c4:	211c                	lbu	a5,0(a0)
    24c6:	4651                	li	a2,20
    24c8:	0722                	slli	a4,a4,0x8
    24ca:	8f5d                	or	a4,a4,a5
    24cc:	213c                	lbu	a5,2(a0)
    24ce:	00840593          	addi	a1,s0,8
    24d2:	07c2                	slli	a5,a5,0x10
    24d4:	8f5d                	or	a4,a4,a5
    24d6:	313c                	lbu	a5,3(a0)
    24d8:	07e2                	slli	a5,a5,0x18
    24da:	8fd9                	or	a5,a5,a4
    24dc:	c05c                	sw	a5,4(s0)
    24de:	023060ef          	jal	ra,8d00 <memcpy>
    24e2:	4585                	li	a1,1
    24e4:	854e                	mv	a0,s3
    24e6:	346040ef          	jal	ra,682c <icmp_time_exceeded>
    24ea:	854e                	mv	a0,s3
    24ec:	457000ef          	jal	ra,3142 <pbuf_clen>
    24f0:	8aaa                	mv	s5,a0
    24f2:	854e                	mv	a0,s3
    24f4:	26b000ef          	jal	ra,2f5e <pbuf_free>
    24f8:	00442983          	lw	s3,4(s0)
    24fc:	02099663          	bnez	s3,2528 <ip_reass_tmr+0xaa>
    2500:	00092703          	lw	a4,0(s2)
    2504:	401c                	lw	a5,0(s0)
    2506:	04e41c63          	bne	s0,a4,255e <ip_reass_tmr+0xe0>
    250a:	00f92023          	sw	a5,0(s2)
    250e:	85a2                	mv	a1,s0
    2510:	4515                	li	a0,5
    2512:	07f000ef          	jal	ra,2d90 <memp_free>
    2516:	8c018713          	addi	a4,gp,-1856 # 20000130 <ip_reass_pbufcount>
    251a:	231e                	lhu	a5,0(a4)
    251c:	845a                	mv	s0,s6
    251e:	41578ab3          	sub	s5,a5,s5
    2522:	01571023          	sh	s5,0(a4)
    2526:	b749                	j	24a8 <ip_reass_tmr+0x2a>
    2528:	0049a703          	lw	a4,4(s3)
    252c:	854e                	mv	a0,s3
    252e:	331c                	lbu	a5,1(a4)
    2530:	00074a03          	lbu	s4,0(a4)
    2534:	07a2                	slli	a5,a5,0x8
    2536:	0147e7b3          	or	a5,a5,s4
    253a:	00274a03          	lbu	s4,2(a4)
    253e:	0a42                	slli	s4,s4,0x10
    2540:	00fa67b3          	or	a5,s4,a5
    2544:	00374a03          	lbu	s4,3(a4)
    2548:	0a62                	slli	s4,s4,0x18
    254a:	00fa6a33          	or	s4,s4,a5
    254e:	3f5000ef          	jal	ra,3142 <pbuf_clen>
    2552:	9aaa                	add	s5,s5,a0
    2554:	854e                	mv	a0,s3
    2556:	209000ef          	jal	ra,2f5e <pbuf_free>
    255a:	89d2                	mv	s3,s4
    255c:	b745                	j	24fc <ip_reass_tmr+0x7e>
    255e:	00fb2023          	sw	a5,0(s6)
    2562:	b775                	j	250e <ip_reass_tmr+0x90>

00002564 <ip_reass>:
ip_reass():
    2564:	ca5fd2ef          	jal	t0,208 <__riscv_save_10>
    2568:	4144                	lw	s1,4(a0)
    256a:	892a                	mv	s2,a0
    256c:	309c                	lbu	a5,1(s1)
    256e:	2088                	lbu	a0,0(s1)
    2570:	07a2                	slli	a5,a5,0x8
    2572:	8d5d                	or	a0,a0,a5
    2574:	35f9                	jal	2442 <ntohs>
    2576:	8119                	srli	a0,a0,0x6
    2578:	03c57513          	andi	a0,a0,60
    257c:	47d1                	li	a5,20
    257e:	24f51f63          	bne	a0,a5,27dc <ip_reass+0x278>
    2582:	30fc                	lbu	a5,7(s1)
    2584:	20e8                	lbu	a0,6(s1)
    2586:	07a2                	slli	a5,a5,0x8
    2588:	8d5d                	or	a0,a0,a5
    258a:	3d65                	jal	2442 <ntohs>
    258c:	30bc                	lbu	a5,3(s1)
    258e:	8b2a                	mv	s6,a0
    2590:	20a8                	lbu	a0,2(s1)
    2592:	07a2                	slli	a5,a5,0x8
    2594:	8d5d                	or	a0,a0,a5
    2596:	3575                	jal	2442 <ntohs>
    2598:	309c                	lbu	a5,1(s1)
    259a:	8caa                	mv	s9,a0
    259c:	2088                	lbu	a0,0(s1)
    259e:	07a2                	slli	a5,a5,0x8
    25a0:	8d5d                	or	a0,a0,a5
    25a2:	3545                	jal	2442 <ntohs>
    25a4:	8c2a                	mv	s8,a0
    25a6:	854a                	mv	a0,s2
    25a8:	39b000ef          	jal	ra,3142 <pbuf_clen>
    25ac:	2001e7b7          	lui	a5,0x2001e
    25b0:	ea07a783          	lw	a5,-352(a5) # 2001dea0 <WCHCfg+0x10>
    25b4:	8c01d703          	lhu	a4,-1856(gp) # 20000130 <ip_reass_pbufcount>
    25b8:	8d2a                	mv	s10,a0
    25ba:	838d                	srli	a5,a5,0x3
    25bc:	972a                	add	a4,a4,a0
    25be:	8bbd                	andi	a5,a5,15
    25c0:	8c018993          	addi	s3,gp,-1856 # 20000130 <ip_reass_pbufcount>
    25c4:	20e7cc63          	blt	a5,a4,27dc <ip_reass+0x278>
    25c8:	8c41a403          	lw	s0,-1852(gp) # 20000134 <reassdatagrams>
    25cc:	4a81                	li	s5,0
    25ce:	8c418a13          	addi	s4,gp,-1852 # 20000134 <reassdatagrams>
    25d2:	e81d                	bnez	s0,2608 <ip_reass+0xa4>
    25d4:	4515                	li	a0,5
    25d6:	79a000ef          	jal	ra,2d70 <memp_malloc>
    25da:	842a                	mv	s0,a0
    25dc:	20050063          	beqz	a0,27dc <ip_reass+0x278>
    25e0:	4671                	li	a2,28
    25e2:	4581                	li	a1,0
    25e4:	00440513          	addi	a0,s0,4
    25e8:	c79fd0ef          	jal	ra,260 <memset>
    25ec:	478d                	li	a5,3
    25ee:	bc7c                	sb	a5,31(s0)
    25f0:	000a2783          	lw	a5,0(s4)
    25f4:	008a2023          	sw	s0,0(s4)
    25f8:	c01c                	sw	a5,0(s0)
    25fa:	4651                	li	a2,20
    25fc:	85a6                	mv	a1,s1
    25fe:	00840513          	addi	a0,s0,8
    2602:	6fe060ef          	jal	ra,8d00 <memcpy>
    2606:	ac8d                	j	2878 <ip_reass+0x314>
    2608:	34d8                	lbu	a4,13(s1)
    260a:	24dc                	lbu	a5,12(s1)
    260c:	0722                	slli	a4,a4,0x8
    260e:	8f5d                	or	a4,a4,a5
    2610:	24fc                	lbu	a5,14(s1)
    2612:	07c2                	slli	a5,a5,0x10
    2614:	8f5d                	or	a4,a4,a5
    2616:	34fc                	lbu	a5,15(s1)
    2618:	07e2                	slli	a5,a5,0x18
    261a:	8fd9                	or	a5,a5,a4
    261c:	4858                	lw	a4,20(s0)
    261e:	02f71663          	bne	a4,a5,264a <ip_reass+0xe6>
    2622:	3898                	lbu	a4,17(s1)
    2624:	289c                	lbu	a5,16(s1)
    2626:	0722                	slli	a4,a4,0x8
    2628:	8f5d                	or	a4,a4,a5
    262a:	28bc                	lbu	a5,18(s1)
    262c:	07c2                	slli	a5,a5,0x10
    262e:	8f5d                	or	a4,a4,a5
    2630:	38bc                	lbu	a5,19(s1)
    2632:	07e2                	slli	a5,a5,0x18
    2634:	8fd9                	or	a5,a5,a4
    2636:	4c18                	lw	a4,24(s0)
    2638:	00f71963          	bne	a4,a5,264a <ip_reass+0xe6>
    263c:	30dc                	lbu	a5,5(s1)
    263e:	20d4                	lbu	a3,4(s1)
    2640:	245a                	lhu	a4,12(s0)
    2642:	07a2                	slli	a5,a5,0x8
    2644:	8fd5                	or	a5,a5,a3
    2646:	20f70563          	beq	a4,a5,2850 <ip_reass+0x2ec>
    264a:	8aa2                	mv	s5,s0
    264c:	4000                	lw	s0,0(s0)
    264e:	b751                	j	25d2 <ip_reass+0x6e>
    2650:	42cc                	lw	a1,4(a3)
    2652:	0055c803          	lbu	a6,5(a1)
    2656:	0045c303          	lbu	t1,4(a1)
    265a:	0822                	slli	a6,a6,0x8
    265c:	00686833          	or	a6,a6,t1
    2660:	0d067c63          	bgeu	a2,a6,2738 <ip_reass+0x1d4>
    2664:	0086d593          	srli	a1,a3,0x8
    2668:	a394                	sb	a3,0(a5)
    266a:	b38c                	sb	a1,1(a5)
    266c:	0106d593          	srli	a1,a3,0x10
    2670:	82e1                	srli	a3,a3,0x18
    2672:	a3ac                	sb	a1,2(a5)
    2674:	b3b4                	sb	a3,3(a5)
    2676:	2a070d63          	beqz	a4,2930 <ip_reass+0x3cc>
    267a:	3374                	lbu	a3,7(a4)
    267c:	236c                	lbu	a1,6(a4)
    267e:	06a2                	slli	a3,a3,0x8
    2680:	8ecd                	or	a3,a3,a1
    2682:	14d66463          	bltu	a2,a3,27ca <ip_reass+0x266>
    2686:	14a86263          	bltu	a6,a0,27ca <ip_reass+0x266>
    268a:	00895693          	srli	a3,s2,0x8
    268e:	01270023          	sb	s2,0(a4)
    2692:	b314                	sb	a3,1(a4)
    2694:	01095693          	srli	a3,s2,0x10
    2698:	01895913          	srli	s2,s2,0x18
    269c:	a334                	sb	a3,2(a4)
    269e:	012701a3          	sb	s2,3(a4)
    26a2:	2c78                	lbu	a4,30(s0)
    26a4:	4b01                	li	s6,0
    26a6:	8b05                	andi	a4,a4,1
    26a8:	18070e63          	beqz	a4,2844 <ip_reass+0x2e0>
    26ac:	18088c63          	beqz	a7,2844 <ip_reass+0x2e0>
    26b0:	4058                	lw	a4,4(s0)
    26b2:	4344                	lw	s1,4(a4)
    26b4:	30d8                	lbu	a4,5(s1)
    26b6:	20d4                	lbu	a3,4(s1)
    26b8:	0722                	slli	a4,a4,0x8
    26ba:	8f55                	or	a4,a4,a3
    26bc:	18071463          	bnez	a4,2844 <ip_reass+0x2e0>
    26c0:	3394                	lbu	a3,1(a5)
    26c2:	2398                	lbu	a4,0(a5)
    26c4:	06a2                	slli	a3,a3,0x8
    26c6:	8ed9                	or	a3,a3,a4
    26c8:	23b8                	lbu	a4,2(a5)
    26ca:	0742                	slli	a4,a4,0x10
    26cc:	8ed9                	or	a3,a3,a4
    26ce:	33b8                	lbu	a4,3(a5)
    26d0:	0762                	slli	a4,a4,0x18
    26d2:	8f55                	or	a4,a4,a3
    26d4:	e761                	bnez	a4,279c <ip_reass+0x238>
    26d6:	2c5e                	lhu	a5,28(s0)
    26d8:	0004c903          	lbu	s2,0(s1)
    26dc:	4651                	li	a2,20
    26de:	07d1                	addi	a5,a5,20
    26e0:	ac5e                	sh	a5,28(s0)
    26e2:	309c                	lbu	a5,1(s1)
    26e4:	00840593          	addi	a1,s0,8
    26e8:	8526                	mv	a0,s1
    26ea:	07a2                	slli	a5,a5,0x8
    26ec:	0127e7b3          	or	a5,a5,s2
    26f0:	0024c903          	lbu	s2,2(s1)
    26f4:	0942                	slli	s2,s2,0x10
    26f6:	00f967b3          	or	a5,s2,a5
    26fa:	0034c903          	lbu	s2,3(s1)
    26fe:	0962                	slli	s2,s2,0x18
    2700:	00f96933          	or	s2,s2,a5
    2704:	5fc060ef          	jal	ra,8d00 <memcpy>
    2708:	2c4a                	lhu	a0,28(s0)
    270a:	d2bff0ef          	jal	ra,2434 <htons>
    270e:	a0a8                	sb	a0,2(s1)
    2710:	8121                	srli	a0,a0,0x8
    2712:	b0a8                	sb	a0,3(s1)
    2714:	00048323          	sb	zero,6(s1)
    2718:	000483a3          	sb	zero,7(s1)
    271c:	00048523          	sb	zero,10(s1)
    2720:	000485a3          	sb	zero,11(s1)
    2724:	45d1                	li	a1,20
    2726:	8526                	mv	a0,s1
    2728:	28e040ef          	jal	ra,69b6 <inet_chksum>
    272c:	a4a8                	sb	a0,10(s1)
    272e:	8121                	srli	a0,a0,0x8
    2730:	b4a8                	sb	a0,11(s1)
    2732:	00442b03          	lw	s6,4(s0)
    2736:	a0d5                	j	281a <ip_reass+0x2b6>
    2738:	09060963          	beq	a2,a6,27ca <ip_reass+0x266>
    273c:	31f4                	lbu	a3,7(a1)
    273e:	0065c303          	lbu	t1,6(a1)
    2742:	06a2                	slli	a3,a3,0x8
    2744:	0066e6b3          	or	a3,a3,t1
    2748:	08d66163          	bltu	a2,a3,27ca <ip_reass+0x266>
    274c:	cb01                	beqz	a4,275c <ip_reass+0x1f8>
    274e:	2374                	lbu	a3,6(a4)
    2750:	3378                	lbu	a4,7(a4)
    2752:	0722                	slli	a4,a4,0x8
    2754:	8f55                	or	a4,a4,a3
    2756:	00e80363          	beq	a6,a4,275c <ip_reass+0x1f8>
    275a:	4881                	li	a7,0
    275c:	3198                	lbu	a4,1(a1)
    275e:	2194                	lbu	a3,0(a1)
    2760:	0722                	slli	a4,a4,0x8
    2762:	8f55                	or	a4,a4,a3
    2764:	21b4                	lbu	a3,2(a1)
    2766:	06c2                	slli	a3,a3,0x10
    2768:	8f55                	or	a4,a4,a3
    276a:	31b4                	lbu	a3,3(a1)
    276c:	06e2                	slli	a3,a3,0x18
    276e:	8ed9                	or	a3,a3,a4
    2770:	872e                	mv	a4,a1
    2772:	aa5d                	j	2928 <ip_reass+0x3c4>
    2774:	00895693          	srli	a3,s2,0x8
    2778:	01270023          	sb	s2,0(a4)
    277c:	b314                	sb	a3,1(a4)
    277e:	01095693          	srli	a3,s2,0x10
    2782:	01895913          	srli	s2,s2,0x18
    2786:	a334                	sb	a3,2(a4)
    2788:	012701a3          	sb	s2,3(a4)
    278c:	2374                	lbu	a3,6(a4)
    278e:	3378                	lbu	a4,7(a4)
    2790:	0722                	slli	a4,a4,0x8
    2792:	8f55                	or	a4,a4,a3
    2794:	f0e607e3          	beq	a2,a4,26a2 <ip_reass+0x13e>
    2798:	4881                	li	a7,0
    279a:	b721                	j	26a2 <ip_reass+0x13e>
    279c:	4354                	lw	a3,4(a4)
    279e:	23ec                	lbu	a1,6(a5)
    27a0:	33f8                	lbu	a4,7(a5)
    27a2:	32dc                	lbu	a5,5(a3)
    27a4:	22d0                	lbu	a2,4(a3)
    27a6:	0722                	slli	a4,a4,0x8
    27a8:	07a2                	slli	a5,a5,0x8
    27aa:	8f4d                	or	a4,a4,a1
    27ac:	8fd1                	or	a5,a5,a2
    27ae:	02f71a63          	bne	a4,a5,27e2 <ip_reass+0x27e>
    27b2:	329c                	lbu	a5,1(a3)
    27b4:	2298                	lbu	a4,0(a3)
    27b6:	07a2                	slli	a5,a5,0x8
    27b8:	8fd9                	or	a5,a5,a4
    27ba:	22b8                	lbu	a4,2(a3)
    27bc:	0742                	slli	a4,a4,0x10
    27be:	8fd9                	or	a5,a5,a4
    27c0:	32b8                	lbu	a4,3(a3)
    27c2:	0762                	slli	a4,a4,0x18
    27c4:	8f5d                	or	a4,a4,a5
    27c6:	87b6                	mv	a5,a3
    27c8:	b731                	j	26d4 <ip_reass+0x170>
    27ca:	854a                	mv	a0,s2
    27cc:	177000ef          	jal	ra,3142 <pbuf_clen>
    27d0:	0009d783          	lhu	a5,0(s3)
    27d4:	40a78533          	sub	a0,a5,a0
    27d8:	00a99023          	sh	a0,0(s3)
    27dc:	854a                	mv	a0,s2
    27de:	780000ef          	jal	ra,2f5e <pbuf_free>
    27e2:	4b01                	li	s6,0
    27e4:	a085                	j	2844 <ip_reass+0x2e0>
    27e6:	55b1                	li	a1,-20
    27e8:	854a                	mv	a0,s2
    27ea:	00492483          	lw	s1,4(s2)
    27ee:	702000ef          	jal	ra,2ef0 <pbuf_header>
    27f2:	85ca                	mv	a1,s2
    27f4:	855a                	mv	a0,s6
    27f6:	169000ef          	jal	ra,315e <pbuf_cat>
    27fa:	309c                	lbu	a5,1(s1)
    27fc:	0004c903          	lbu	s2,0(s1)
    2800:	07a2                	slli	a5,a5,0x8
    2802:	0127e7b3          	or	a5,a5,s2
    2806:	0024c903          	lbu	s2,2(s1)
    280a:	0942                	slli	s2,s2,0x10
    280c:	00f967b3          	or	a5,s2,a5
    2810:	0034c903          	lbu	s2,3(s1)
    2814:	0962                	slli	s2,s2,0x18
    2816:	00f96933          	or	s2,s2,a5
    281a:	fc0916e3          	bnez	s2,27e6 <ip_reass+0x282>
    281e:	000a2703          	lw	a4,0(s4)
    2822:	401c                	lw	a5,0(s0)
    2824:	02e41363          	bne	s0,a4,284a <ip_reass+0x2e6>
    2828:	00fa2023          	sw	a5,0(s4)
    282c:	85a2                	mv	a1,s0
    282e:	4515                	li	a0,5
    2830:	2385                	jal	2d90 <memp_free>
    2832:	855a                	mv	a0,s6
    2834:	10f000ef          	jal	ra,3142 <pbuf_clen>
    2838:	0009d783          	lhu	a5,0(s3)
    283c:	40a78533          	sub	a0,a5,a0
    2840:	00a99023          	sh	a0,0(s3)
    2844:	855a                	mv	a0,s6
    2846:	9fbfd06f          	j	240 <__riscv_restore_10>
    284a:	00faa023          	sw	a5,0(s5)
    284e:	bff9                	j	282c <ip_reass+0x2c8>
    2850:	30fc                	lbu	a5,7(s1)
    2852:	20e8                	lbu	a0,6(s1)
    2854:	6b89                	lui	s7,0x2
    2856:	07a2                	slli	a5,a5,0x8
    2858:	8d5d                	or	a0,a0,a5
    285a:	be9ff0ef          	jal	ra,2442 <ntohs>
    285e:	1bfd                	addi	s7,s7,-1
    2860:	01757533          	and	a0,a0,s7
    2864:	0542                	slli	a0,a0,0x10
    2866:	8141                	srli	a0,a0,0x10
    2868:	e901                	bnez	a0,2878 <ip_reass+0x314>
    286a:	246a                	lhu	a0,14(s0)
    286c:	bd7ff0ef          	jal	ra,2442 <ntohs>
    2870:	01757533          	and	a0,a0,s7
    2874:	d80513e3          	bnez	a0,25fa <ip_reass+0x96>
    2878:	0009d783          	lhu	a5,0(s3)
    287c:	9d3e                	add	s10,s10,a5
    287e:	01a99023          	sh	s10,0(s3)
    2882:	30fc                	lbu	a5,7(s1)
    2884:	20e8                	lbu	a0,6(s1)
    2886:	07a2                	slli	a5,a5,0x8
    2888:	8d5d                	or	a0,a0,a5
    288a:	bb9ff0ef          	jal	ra,2442 <ntohs>
    288e:	01251793          	slli	a5,a0,0x12
    2892:	0207c263          	bltz	a5,28b6 <ip_reass+0x352>
    2896:	013b1513          	slli	a0,s6,0x13
    289a:	2c7c                	lbu	a5,30(s0)
    289c:	814d                	srli	a0,a0,0x13
    289e:	050e                	slli	a0,a0,0x3
    28a0:	006c5c13          	srli	s8,s8,0x6
    28a4:	9566                	add	a0,a0,s9
    28a6:	03cc7c13          	andi	s8,s8,60
    28aa:	0017e793          	ori	a5,a5,1
    28ae:	41850533          	sub	a0,a0,s8
    28b2:	ac7c                	sb	a5,30(s0)
    28b4:	ac4a                	sh	a0,28(s0)
    28b6:	00492483          	lw	s1,4(s2)
    28ba:	30bc                	lbu	a5,3(s1)
    28bc:	20a8                	lbu	a0,2(s1)
    28be:	07a2                	slli	a5,a5,0x8
    28c0:	8d5d                	or	a0,a0,a5
    28c2:	b81ff0ef          	jal	ra,2442 <ntohs>
    28c6:	309c                	lbu	a5,1(s1)
    28c8:	8b2a                	mv	s6,a0
    28ca:	2088                	lbu	a0,0(s1)
    28cc:	07a2                	slli	a5,a5,0x8
    28ce:	8d5d                	or	a0,a0,a5
    28d0:	b73ff0ef          	jal	ra,2442 <ntohs>
    28d4:	30fc                	lbu	a5,7(s1)
    28d6:	8baa                	mv	s7,a0
    28d8:	20e8                	lbu	a0,6(s1)
    28da:	07a2                	slli	a5,a5,0x8
    28dc:	006bdb93          	srli	s7,s7,0x6
    28e0:	8d5d                	or	a0,a0,a5
    28e2:	b61ff0ef          	jal	ra,2442 <ntohs>
    28e6:	054e                	slli	a0,a0,0x13
    28e8:	814d                	srli	a0,a0,0x13
    28ea:	00351613          	slli	a2,a0,0x3
    28ee:	00cb0533          	add	a0,s6,a2
    28f2:	03cbfb13          	andi	s6,s7,60
    28f6:	00492783          	lw	a5,4(s2)
    28fa:	41650533          	sub	a0,a0,s6
    28fe:	0542                	slli	a0,a0,0x10
    2900:	00865713          	srli	a4,a2,0x8
    2904:	8141                	srli	a0,a0,0x10
    2906:	4054                	lw	a3,4(s0)
    2908:	b3d8                	sb	a4,5(a5)
    290a:	00855713          	srli	a4,a0,0x8
    290e:	b3f8                	sb	a4,7(a5)
    2910:	00078023          	sb	zero,0(a5)
    2914:	000780a3          	sb	zero,1(a5)
    2918:	00078123          	sb	zero,2(a5)
    291c:	000781a3          	sb	zero,3(a5)
    2920:	a3d0                	sb	a2,4(a5)
    2922:	a3e8                	sb	a0,6(a5)
    2924:	4885                	li	a7,1
    2926:	4701                	li	a4,0
    2928:	d20694e3          	bnez	a3,2650 <ip_reass+0xec>
    292c:	e40714e3          	bnez	a4,2774 <ip_reass+0x210>
    2930:	01242223          	sw	s2,4(s0)
    2934:	b3bd                	j	26a2 <ip_reass+0x13e>

00002936 <ip_frag>:
ip_frag():
    2936:	8cbfd2ef          	jal	t0,200 <__riscv_save_12>
    293a:	00452c03          	lw	s8,4(a0)
    293e:	1101                	addi	sp,sp,-32
    2940:	ca32                	sw	a2,20(sp)
    2942:	007c4703          	lbu	a4,7(s8)
    2946:	8daa                	mv	s11,a0
    2948:	006c4503          	lbu	a0,6(s8)
    294c:	0722                	slli	a4,a4,0x8
    294e:	0285db83          	lhu	s7,40(a1)
    2952:	8d59                	or	a0,a0,a4
    2954:	8cae                	mv	s9,a1
    2956:	aedff0ef          	jal	ra,2442 <ntohs>
    295a:	6689                	lui	a3,0x2
    295c:	00d577b3          	and	a5,a0,a3
    2960:	fecb8a13          	addi	s4,s7,-20 # 1fec <low_level_output+0x6e>
    2964:	46a1                	li	a3,8
    2966:	02da4a33          	div	s4,s4,a3
    296a:	008dd483          	lhu	s1,8(s11)
    296e:	6709                	lui	a4,0x2
    2970:	177d                	addi	a4,a4,-1
    2972:	c63e                	sw	a5,12(sp)
    2974:	00e57933          	and	s2,a0,a4
    2978:	14b1                	addi	s1,s1,-20
    297a:	0942                	slli	s2,s2,0x10
    297c:	04c2                	slli	s1,s1,0x10
    297e:	01095913          	srli	s2,s2,0x10
    2982:	80c1                	srli	s1,s1,0x10
    2984:	4401                	li	s0,0
    2986:	4d51                	li	s10,20
    2988:	cc3a                	sw	a4,24(sp)
    298a:	0a42                	slli	s4,s4,0x10
    298c:	010a5a13          	srli	s4,s4,0x10
    2990:	003a1693          	slli	a3,s4,0x3
    2994:	01069793          	slli	a5,a3,0x10
    2998:	83c1                	srli	a5,a5,0x10
    299a:	c83e                	sw	a5,16(sp)
    299c:	fedb8793          	addi	a5,s7,-19
    29a0:	ce3e                	sw	a5,28(sp)
    29a2:	e489                	bnez	s1,29ac <ip_frag+0x76>
    29a4:	4501                	li	a0,0
    29a6:	6105                	addi	sp,sp,32
    29a8:	895fd06f          	j	23c <__riscv_restore_12>
    29ac:	47e2                	lw	a5,24(sp)
    29ae:	8aa6                	mv	s5,s1
    29b0:	00f97b33          	and	s6,s2,a5
    29b4:	47b2                	lw	a5,12(sp)
    29b6:	0167eb33          	or	s6,a5,s6
    29ba:	47f2                	lw	a5,28(sp)
    29bc:	00f4c663          	blt	s1,a5,29c8 <ip_frag+0x92>
    29c0:	4ac2                	lw	s5,16(sp)
    29c2:	6789                	lui	a5,0x2
    29c4:	00fb6b33          	or	s6,s6,a5
    29c8:	4601                	li	a2,0
    29ca:	45d1                	li	a1,20
    29cc:	4509                	li	a0,2
    29ce:	2bf9                	jal	2fac <pbuf_alloc>
    29d0:	89aa                	mv	s3,a0
    29d2:	c929                	beqz	a0,2a24 <ip_frag+0xee>
    29d4:	4148                	lw	a0,4(a0)
    29d6:	4651                	li	a2,20
    29d8:	85e2                	mv	a1,s8
    29da:	326060ef          	jal	ra,8d00 <memcpy>
    29de:	004da603          	lw	a2,4(s11)
    29e2:	0049ab83          	lw	s7,4(s3)
    29e6:	966a                	add	a2,a2,s10
    29e8:	00cda223          	sw	a2,4(s11)
    29ec:	00add603          	lhu	a2,10(s11)
    29f0:	41a606b3          	sub	a3,a2,s10
    29f4:	00dd9523          	sh	a3,10(s11)
    29f8:	8d56                	mv	s10,s5
    29fa:	040d0763          	beqz	s10,2a48 <ip_frag+0x112>
    29fe:	00add403          	lhu	s0,10(s11)
    2a02:	008d7363          	bgeu	s10,s0,2a08 <ip_frag+0xd2>
    2a06:	846a                	mv	s0,s10
    2a08:	0442                	slli	s0,s0,0x10
    2a0a:	8041                	srli	s0,s0,0x10
    2a0c:	e401                	bnez	s0,2a14 <ip_frag+0xde>
    2a0e:	000dad83          	lw	s11,0(s11)
    2a12:	b7e5                	j	29fa <ip_frag+0xc4>
    2a14:	4581                	li	a1,0
    2a16:	4609                	li	a2,2
    2a18:	450d                	li	a0,3
    2a1a:	2b49                	jal	2fac <pbuf_alloc>
    2a1c:	85aa                	mv	a1,a0
    2a1e:	e509                	bnez	a0,2a28 <ip_frag+0xf2>
    2a20:	854e                	mv	a0,s3
    2a22:	2b35                	jal	2f5e <pbuf_free>
    2a24:	557d                	li	a0,-1
    2a26:	b741                	j	29a6 <ip_frag+0x70>
    2a28:	004da603          	lw	a2,4(s11)
    2a2c:	a502                	sh	s0,8(a0)
    2a2e:	a522                	sh	s0,10(a0)
    2a30:	c150                	sw	a2,4(a0)
    2a32:	854e                	mv	a0,s3
    2a34:	72a000ef          	jal	ra,315e <pbuf_cat>
    2a38:	408d06b3          	sub	a3,s10,s0
    2a3c:	01069d13          	slli	s10,a3,0x10
    2a40:	010d5d13          	srli	s10,s10,0x10
    2a44:	fc0d15e3          	bnez	s10,2a0e <ip_frag+0xd8>
    2a48:	855a                	mv	a0,s6
    2a4a:	9ebff0ef          	jal	ra,2434 <htons>
    2a4e:	00ab8323          	sb	a0,6(s7)
    2a52:	8121                	srli	a0,a0,0x8
    2a54:	00ab83a3          	sb	a0,7(s7)
    2a58:	014a8513          	addi	a0,s5,20
    2a5c:	0542                	slli	a0,a0,0x10
    2a5e:	8141                	srli	a0,a0,0x10
    2a60:	9d5ff0ef          	jal	ra,2434 <htons>
    2a64:	00ab8123          	sb	a0,2(s7)
    2a68:	8121                	srli	a0,a0,0x8
    2a6a:	00ab81a3          	sb	a0,3(s7)
    2a6e:	45d1                	li	a1,20
    2a70:	000b8523          	sb	zero,10(s7)
    2a74:	000b85a3          	sb	zero,11(s7)
    2a78:	855e                	mv	a0,s7
    2a7a:	73d030ef          	jal	ra,69b6 <inet_chksum>
    2a7e:	014ca703          	lw	a4,20(s9)
    2a82:	4652                	lw	a2,20(sp)
    2a84:	00ab8523          	sb	a0,10(s7)
    2a88:	8121                	srli	a0,a0,0x8
    2a8a:	00ab85a3          	sb	a0,11(s7)
    2a8e:	85ce                	mv	a1,s3
    2a90:	8566                	mv	a0,s9
    2a92:	9702                	jalr	a4
    2a94:	415484b3          	sub	s1,s1,s5
    2a98:	9952                	add	s2,s2,s4
    2a9a:	854e                	mv	a0,s3
    2a9c:	04c2                	slli	s1,s1,0x10
    2a9e:	0942                	slli	s2,s2,0x10
    2aa0:	297d                	jal	2f5e <pbuf_free>
    2aa2:	80c1                	srli	s1,s1,0x10
    2aa4:	01095913          	srli	s2,s2,0x10
    2aa8:	8d22                	mv	s10,s0
    2aaa:	bde5                	j	29a2 <ip_frag+0x6c>

00002aac <lwip_init>:
lwip_init():
    2aac:	f84fd2ef          	jal	t0,230 <__riscv_save_0>
    2ab0:	2811                	jal	2ac4 <mem_init>
    2ab2:	24bd                	jal	2d20 <memp_init>
    2ab4:	2001e7b7          	lui	a5,0x2001e
    2ab8:	eac7a783          	lw	a5,-340(a5) # 2001deac <DNSInf+0x8>
    2abc:	c391                	beqz	a5,2ac0 <lwip_init+0x14>
    2abe:	9782                	jalr	a5
    2ac0:	f94fd06f          	j	254 <__riscv_restore_0>

00002ac4 <mem_init>:
mem_init():
    2ac4:	20014737          	lui	a4,0x20014
    2ac8:	96770713          	addi	a4,a4,-1689 # 20013967 <Mem_Heap_Memory+0x3>
    2acc:	9b71                	andi	a4,a4,-4
    2ace:	8ce1a623          	sw	a4,-1844(gp) # 2000013c <ram>
    2ad2:	2001e7b7          	lui	a5,0x2001e
    2ad6:	e987a783          	lw	a5,-360(a5) # 2001de98 <WCHCfg+0x8>
    2ada:	00071123          	sh	zero,2(a4)
    2ade:	078d                	addi	a5,a5,3
    2ae0:	9bf1                	andi	a5,a5,-4
    2ae2:	01079693          	slli	a3,a5,0x10
    2ae6:	82c1                	srli	a3,a3,0x10
    2ae8:	97ba                	add	a5,a5,a4
    2aea:	a316                	sh	a3,0(a4)
    2aec:	00070223          	sb	zero,4(a4)
    2af0:	8cf1a823          	sw	a5,-1840(gp) # 20000140 <ram_end>
    2af4:	4605                	li	a2,1
    2af6:	a3d0                	sb	a2,4(a5)
    2af8:	a396                	sh	a3,0(a5)
    2afa:	a3b6                	sh	a3,2(a5)
    2afc:	8ce1a423          	sw	a4,-1848(gp) # 20000138 <lfree>
    2b00:	8082                	ret

00002b02 <mem_free>:
mem_free():
    2b02:	c149                	beqz	a0,2b84 <mem_free+0x82>
    2b04:	8cc1a783          	lw	a5,-1844(gp) # 2000013c <ram>
    2b08:	06f56e63          	bltu	a0,a5,2b84 <mem_free+0x82>
    2b0c:	8d01a583          	lw	a1,-1840(gp) # 20000140 <ram_end>
    2b10:	06b57a63          	bgeu	a0,a1,2b84 <mem_free+0x82>
    2b14:	8c81a683          	lw	a3,-1848(gp) # 20000138 <lfree>
    2b18:	ff850613          	addi	a2,a0,-8
    2b1c:	fe050e23          	sb	zero,-4(a0)
    2b20:	8c818713          	addi	a4,gp,-1848 # 20000138 <lfree>
    2b24:	00d67363          	bgeu	a2,a3,2b2a <mem_free+0x28>
    2b28:	c310                	sw	a2,0(a4)
    2b2a:	ff855683          	lhu	a3,-8(a0)
    2b2e:	96be                	add	a3,a3,a5
    2b30:	02d60463          	beq	a2,a3,2b58 <mem_free+0x56>
    2b34:	0046c803          	lbu	a6,4(a3) # 2004 <low_level_output+0x86>
    2b38:	02081063          	bnez	a6,2b58 <mem_free+0x56>
    2b3c:	00d58e63          	beq	a1,a3,2b58 <mem_free+0x56>
    2b40:	430c                	lw	a1,0(a4)
    2b42:	00b69363          	bne	a3,a1,2b48 <mem_free+0x46>
    2b46:	c310                	sw	a2,0(a4)
    2b48:	228e                	lhu	a1,0(a3)
    2b4a:	feb51c23          	sh	a1,-8(a0)
    2b4e:	2296                	lhu	a3,0(a3)
    2b50:	40f605b3          	sub	a1,a2,a5
    2b54:	96be                	add	a3,a3,a5
    2b56:	a2ae                	sh	a1,2(a3)
    2b58:	ffa55583          	lhu	a1,-6(a0)
    2b5c:	00b786b3          	add	a3,a5,a1
    2b60:	02d60263          	beq	a2,a3,2b84 <mem_free+0x82>
    2b64:	0046c803          	lbu	a6,4(a3)
    2b68:	00081e63          	bnez	a6,2b84 <mem_free+0x82>
    2b6c:	00072803          	lw	a6,0(a4)
    2b70:	01061363          	bne	a2,a6,2b76 <mem_free+0x74>
    2b74:	c314                	sw	a3,0(a4)
    2b76:	ff855703          	lhu	a4,-8(a0)
    2b7a:	a29a                	sh	a4,0(a3)
    2b7c:	ff855703          	lhu	a4,-8(a0)
    2b80:	97ba                	add	a5,a5,a4
    2b82:	a3ae                	sh	a1,2(a5)
    2b84:	8082                	ret

00002b86 <mem_realloc>:
mem_realloc():
    2b86:	058d                	addi	a1,a1,3
    2b88:	05c2                	slli	a1,a1,0x10
    2b8a:	81c1                	srli	a1,a1,0x10
    2b8c:	99f1                	andi	a1,a1,-4
    2b8e:	05c2                	slli	a1,a1,0x10
    2b90:	81c1                	srli	a1,a1,0x10
    2b92:	4731                	li	a4,12
    2b94:	87ae                	mv	a5,a1
    2b96:	00e5f363          	bgeu	a1,a4,2b9c <mem_realloc+0x16>
    2b9a:	47b1                	li	a5,12
    2b9c:	2001e737          	lui	a4,0x2001e
    2ba0:	e9872603          	lw	a2,-360(a4) # 2001de98 <WCHCfg+0x8>
    2ba4:	07c2                	slli	a5,a5,0x10
    2ba6:	83c1                	srli	a5,a5,0x10
    2ba8:	060d                	addi	a2,a2,3
    2baa:	9a71                	andi	a2,a2,-4
    2bac:	0af66063          	bltu	a2,a5,2c4c <mem_realloc+0xc6>
    2bb0:	8cc1a703          	lw	a4,-1844(gp) # 2000013c <ram>
    2bb4:	08e56d63          	bltu	a0,a4,2c4e <mem_realloc+0xc8>
    2bb8:	8d01a683          	lw	a3,-1840(gp) # 20000140 <ram_end>
    2bbc:	08d57963          	bgeu	a0,a3,2c4e <mem_realloc+0xc8>
    2bc0:	ff850693          	addi	a3,a0,-8
    2bc4:	ff855883          	lhu	a7,-8(a0)
    2bc8:	8e99                	sub	a3,a3,a4
    2bca:	06c2                	slli	a3,a3,0x10
    2bcc:	82c1                	srli	a3,a3,0x10
    2bce:	ff888593          	addi	a1,a7,-8 # 400ffff8 <_eusrstack+0x200dfff8>
    2bd2:	8d95                	sub	a1,a1,a3
    2bd4:	05c2                	slli	a1,a1,0x10
    2bd6:	81c1                	srli	a1,a1,0x10
    2bd8:	06f5ea63          	bltu	a1,a5,2c4c <mem_realloc+0xc6>
    2bdc:	06f58963          	beq	a1,a5,2c4e <mem_realloc+0xc8>
    2be0:	01170333          	add	t1,a4,a7
    2be4:	00434803          	lbu	a6,4(t1) # 80000004 <_eusrstack+0x5ffe0004>
    2be8:	02081463          	bnez	a6,2c10 <mem_realloc+0x8a>
    2bec:	00868593          	addi	a1,a3,8
    2bf0:	8c818813          	addi	a6,gp,-1848 # 20000138 <lfree>
    2bf4:	97ae                	add	a5,a5,a1
    2bf6:	00082e03          	lw	t3,0(a6)
    2bfa:	07c2                	slli	a5,a5,0x10
    2bfc:	83c1                	srli	a5,a5,0x10
    2bfe:	00035883          	lhu	a7,0(t1)
    2c02:	00f705b3          	add	a1,a4,a5
    2c06:	026e1663          	bne	t3,t1,2c32 <mem_realloc+0xac>
    2c0a:	00b82023          	sw	a1,0(a6)
    2c0e:	a015                	j	2c32 <mem_realloc+0xac>
    2c10:	01478813          	addi	a6,a5,20
    2c14:	0305ed63          	bltu	a1,a6,2c4e <mem_realloc+0xc8>
    2c18:	00868593          	addi	a1,a3,8
    2c1c:	97ae                	add	a5,a5,a1
    2c1e:	8c818813          	addi	a6,gp,-1848 # 20000138 <lfree>
    2c22:	07c2                	slli	a5,a5,0x10
    2c24:	00082303          	lw	t1,0(a6)
    2c28:	83c1                	srli	a5,a5,0x10
    2c2a:	00f705b3          	add	a1,a4,a5
    2c2e:	fc65eee3          	bltu	a1,t1,2c0a <mem_realloc+0x84>
    2c32:	01159023          	sh	a7,0(a1)
    2c36:	a1b6                	sh	a3,2(a1)
    2c38:	00058223          	sb	zero,4(a1)
    2c3c:	fef51c23          	sh	a5,-8(a0)
    2c40:	2196                	lhu	a3,0(a1)
    2c42:	00d60663          	beq	a2,a3,2c4e <mem_realloc+0xc8>
    2c46:	9736                	add	a4,a4,a3
    2c48:	a33e                	sh	a5,2(a4)
    2c4a:	8082                	ret
    2c4c:	4501                	li	a0,0
    2c4e:	8082                	ret

00002c50 <mem_malloc>:
mem_malloc():
    2c50:	c539                	beqz	a0,2c9e <mem_malloc+0x4e>
    2c52:	00350713          	addi	a4,a0,3
    2c56:	0742                	slli	a4,a4,0x10
    2c58:	8341                	srli	a4,a4,0x10
    2c5a:	9b71                	andi	a4,a4,-4
    2c5c:	0742                	slli	a4,a4,0x10
    2c5e:	8341                	srli	a4,a4,0x10
    2c60:	46b1                	li	a3,12
    2c62:	87ba                	mv	a5,a4
    2c64:	00d77363          	bgeu	a4,a3,2c6a <mem_malloc+0x1a>
    2c68:	47b1                	li	a5,12
    2c6a:	2001e737          	lui	a4,0x2001e
    2c6e:	e9872603          	lw	a2,-360(a4) # 2001de98 <WCHCfg+0x8>
    2c72:	07c2                	slli	a5,a5,0x10
    2c74:	83c1                	srli	a5,a5,0x10
    2c76:	060d                	addi	a2,a2,3
    2c78:	9a71                	andi	a2,a2,-4
    2c7a:	4501                	li	a0,0
    2c7c:	02f66263          	bltu	a2,a5,2ca0 <mem_malloc+0x50>
    2c80:	8c81a703          	lw	a4,-1848(gp) # 20000138 <lfree>
    2c84:	8cc1ae83          	lw	t4,-1844(gp) # 2000013c <ram>
    2c88:	8c818593          	addi	a1,gp,-1848 # 20000138 <lfree>
    2c8c:	40f60333          	sub	t1,a2,a5
    2c90:	41d706b3          	sub	a3,a4,t4
    2c94:	06c2                	slli	a3,a3,0x10
    2c96:	82c1                	srli	a3,a3,0x10
    2c98:	5e61                	li	t3,-8
    2c9a:	0066e463          	bltu	a3,t1,2ca2 <mem_malloc+0x52>
    2c9e:	4501                	li	a0,0
    2ca0:	8082                	ret
    2ca2:	00de8533          	add	a0,t4,a3
    2ca6:	00454803          	lbu	a6,4(a0)
    2caa:	00055883          	lhu	a7,0(a0)
    2cae:	06081763          	bnez	a6,2d1c <mem_malloc+0xcc>
    2cb2:	40de0833          	sub	a6,t3,a3
    2cb6:	9846                	add	a6,a6,a7
    2cb8:	06f86263          	bltu	a6,a5,2d1c <mem_malloc+0xcc>
    2cbc:	01478313          	addi	t1,a5,20
    2cc0:	04686263          	bltu	a6,t1,2d04 <mem_malloc+0xb4>
    2cc4:	07a1                	addi	a5,a5,8
    2cc6:	97b6                	add	a5,a5,a3
    2cc8:	07c2                	slli	a5,a5,0x10
    2cca:	83c1                	srli	a5,a5,0x10
    2ccc:	00fe8833          	add	a6,t4,a5
    2cd0:	01181023          	sh	a7,0(a6)
    2cd4:	00d81123          	sh	a3,2(a6)
    2cd8:	00080223          	sb	zero,4(a6)
    2cdc:	4685                	li	a3,1
    2cde:	a11e                	sh	a5,0(a0)
    2ce0:	a154                	sb	a3,4(a0)
    2ce2:	00085683          	lhu	a3,0(a6)
    2ce6:	00d60463          	beq	a2,a3,2cee <mem_malloc+0x9e>
    2cea:	96f6                	add	a3,a3,t4
    2cec:	a2be                	sh	a5,2(a3)
    2cee:	00a71963          	bne	a4,a0,2d00 <mem_malloc+0xb0>
    2cf2:	8d01a683          	lw	a3,-1840(gp) # 20000140 <ram_end>
    2cf6:	4781                	li	a5,0
    2cf8:	2350                	lbu	a2,4(a4)
    2cfa:	ee01                	bnez	a2,2d12 <mem_malloc+0xc2>
    2cfc:	c391                	beqz	a5,2d00 <mem_malloc+0xb0>
    2cfe:	c198                	sw	a4,0(a1)
    2d00:	0521                	addi	a0,a0,8
    2d02:	8082                	ret
    2d04:	4785                	li	a5,1
    2d06:	a15c                	sb	a5,4(a0)
    2d08:	b7dd                	j	2cee <mem_malloc+0x9e>
    2d0a:	231a                	lhu	a4,0(a4)
    2d0c:	4785                	li	a5,1
    2d0e:	9776                	add	a4,a4,t4
    2d10:	b7e5                	j	2cf8 <mem_malloc+0xa8>
    2d12:	fee69ce3          	bne	a3,a4,2d0a <mem_malloc+0xba>
    2d16:	d7ed                	beqz	a5,2d00 <mem_malloc+0xb0>
    2d18:	c194                	sw	a3,0(a1)
    2d1a:	b7dd                	j	2d00 <mem_malloc+0xb0>
    2d1c:	86c6                	mv	a3,a7
    2d1e:	bfb5                	j	2c9a <mem_malloc+0x4a>

00002d20 <memp_init>:
memp_init():
    2d20:	8241a583          	lw	a1,-2012(gp) # 20000094 <memp_num>
    2d24:	8281a683          	lw	a3,-2008(gp) # 20000098 <memp_sizes>
    2d28:	200157b7          	lui	a5,0x20015
    2d2c:	b7b78793          	addi	a5,a5,-1157 # 20014b7b <Memp_Memory+0x3>
    2d30:	2001e737          	lui	a4,0x2001e
    2d34:	9bf1                	andi	a5,a5,-4
    2d36:	e1470713          	addi	a4,a4,-492 # 2001de14 <memp_tab>
    2d3a:	01068513          	addi	a0,a3,16
    2d3e:	0005d803          	lhu	a6,0(a1)
    2d42:	00072023          	sw	zero,0(a4)
    2d46:	4601                	li	a2,0
    2d48:	00c81863          	bne	a6,a2,2d58 <memp_init+0x38>
    2d4c:	0689                	addi	a3,a3,2
    2d4e:	0711                	addi	a4,a4,4
    2d50:	0589                	addi	a1,a1,2
    2d52:	fea696e3          	bne	a3,a0,2d3e <memp_init+0x1e>
    2d56:	8082                	ret
    2d58:	00072883          	lw	a7,0(a4)
    2d5c:	0605                	addi	a2,a2,1
    2d5e:	0642                	slli	a2,a2,0x10
    2d60:	0117a023          	sw	a7,0(a5)
    2d64:	0006d883          	lhu	a7,0(a3)
    2d68:	c31c                	sw	a5,0(a4)
    2d6a:	8241                	srli	a2,a2,0x10
    2d6c:	97c6                	add	a5,a5,a7
    2d6e:	bfe9                	j	2d48 <memp_init+0x28>

00002d70 <memp_malloc>:
memp_malloc():
    2d70:	479d                	li	a5,7
    2d72:	00a7ed63          	bltu	a5,a0,2d8c <memp_malloc+0x1c>
    2d76:	2001e7b7          	lui	a5,0x2001e
    2d7a:	050a                	slli	a0,a0,0x2
    2d7c:	e1478793          	addi	a5,a5,-492 # 2001de14 <memp_tab>
    2d80:	97aa                	add	a5,a5,a0
    2d82:	4388                	lw	a0,0(a5)
    2d84:	c509                	beqz	a0,2d8e <memp_malloc+0x1e>
    2d86:	4118                	lw	a4,0(a0)
    2d88:	c398                	sw	a4,0(a5)
    2d8a:	8082                	ret
    2d8c:	4501                	li	a0,0
    2d8e:	8082                	ret

00002d90 <memp_free>:
memp_free():
    2d90:	c999                	beqz	a1,2da6 <memp_free+0x16>
    2d92:	00251793          	slli	a5,a0,0x2
    2d96:	2001e537          	lui	a0,0x2001e
    2d9a:	e1450513          	addi	a0,a0,-492 # 2001de14 <memp_tab>
    2d9e:	953e                	add	a0,a0,a5
    2da0:	411c                	lw	a5,0(a0)
    2da2:	c19c                	sw	a5,0(a1)
    2da4:	c10c                	sw	a1,0(a0)
    2da6:	8082                	ret

00002da8 <netif_set_ipaddr>:
netif_set_ipaddr():
    2da8:	c6efd2ef          	jal	t0,216 <__riscv_save_4>
    2dac:	3198                	lbu	a4,1(a1)
    2dae:	219c                	lbu	a5,0(a1)
    2db0:	84aa                	mv	s1,a0
    2db2:	0722                	slli	a4,a4,0x8
    2db4:	8f5d                	or	a4,a4,a5
    2db6:	21bc                	lbu	a5,2(a1)
    2db8:	842e                	mv	s0,a1
    2dba:	07c2                	slli	a5,a5,0x10
    2dbc:	8f5d                	or	a4,a4,a5
    2dbe:	31bc                	lbu	a5,3(a1)
    2dc0:	07e2                	slli	a5,a5,0x18
    2dc2:	8fd9                	or	a5,a5,a4
    2dc4:	4158                	lw	a4,4(a0)
    2dc6:	00e79f63          	bne	a5,a4,2de4 <netif_set_ipaddr+0x3c>
    2dca:	3018                	lbu	a4,1(s0)
    2dcc:	201c                	lbu	a5,0(s0)
    2dce:	0722                	slli	a4,a4,0x8
    2dd0:	8f5d                	or	a4,a4,a5
    2dd2:	203c                	lbu	a5,2(s0)
    2dd4:	07c2                	slli	a5,a5,0x10
    2dd6:	8f5d                	or	a4,a4,a5
    2dd8:	303c                	lbu	a5,3(s0)
    2dda:	07e2                	slli	a5,a5,0x18
    2ddc:	8fd9                	or	a5,a5,a4
    2dde:	c0dc                	sw	a5,4(s1)
    2de0:	c6afd06f          	j	24a <__riscv_restore_4>
    2de4:	8e01a503          	lw	a0,-1824(gp) # 20000150 <tcp_active_pcbs>
    2de8:	4901                	li	s2,0
    2dea:	06400993          	li	s3,100
    2dee:	c105                	beqz	a0,2e0e <netif_set_ipaddr+0x66>
    2df0:	4118                	lw	a4,0(a0)
    2df2:	40dc                	lw	a5,4(s1)
    2df4:	00c52a03          	lw	s4,12(a0)
    2df8:	04f71163          	bne	a4,a5,2e3a <netif_set_ipaddr+0x92>
    2dfc:	4585                	li	a1,1
    2dfe:	37b000ef          	jal	ra,3978 <tcp_abandon>
    2e02:	00190793          	addi	a5,s2,1
    2e06:	0ff7f793          	andi	a5,a5,255
    2e0a:	0329f763          	bgeu	s3,s2,2e38 <netif_set_ipaddr+0x90>
    2e0e:	8e81a783          	lw	a5,-1816(gp) # 20000158 <tcp_listen_pcbs>
    2e12:	dfc5                	beqz	a5,2dca <netif_set_ipaddr+0x22>
    2e14:	4398                	lw	a4,0(a5)
    2e16:	cf19                	beqz	a4,2e34 <netif_set_ipaddr+0x8c>
    2e18:	40d4                	lw	a3,4(s1)
    2e1a:	00d71d63          	bne	a4,a3,2e34 <netif_set_ipaddr+0x8c>
    2e1e:	3014                	lbu	a3,1(s0)
    2e20:	2018                	lbu	a4,0(s0)
    2e22:	06a2                	slli	a3,a3,0x8
    2e24:	8ed9                	or	a3,a3,a4
    2e26:	2038                	lbu	a4,2(s0)
    2e28:	0742                	slli	a4,a4,0x10
    2e2a:	8ed9                	or	a3,a3,a4
    2e2c:	3038                	lbu	a4,3(s0)
    2e2e:	0762                	slli	a4,a4,0x18
    2e30:	8f55                	or	a4,a4,a3
    2e32:	c398                	sw	a4,0(a5)
    2e34:	47dc                	lw	a5,12(a5)
    2e36:	bff1                	j	2e12 <netif_set_ipaddr+0x6a>
    2e38:	893e                	mv	s2,a5
    2e3a:	8552                	mv	a0,s4
    2e3c:	bf4d                	j	2dee <netif_set_ipaddr+0x46>

00002e3e <netif_set_addr>:
netif_set_addr():
    2e3e:	bf2fd2ef          	jal	t0,230 <__riscv_save_0>
    2e42:	1141                	addi	sp,sp,-16
    2e44:	c632                	sw	a2,12(sp)
    2e46:	c436                	sw	a3,8(sp)
    2e48:	842a                	mv	s0,a0
    2e4a:	3fb9                	jal	2da8 <netif_set_ipaddr>
    2e4c:	4632                	lw	a2,12(sp)
    2e4e:	46a2                	lw	a3,8(sp)
    2e50:	4781                	li	a5,0
    2e52:	ca19                	beqz	a2,2e68 <netif_set_addr+0x2a>
    2e54:	3218                	lbu	a4,1(a2)
    2e56:	221c                	lbu	a5,0(a2)
    2e58:	0722                	slli	a4,a4,0x8
    2e5a:	8f5d                	or	a4,a4,a5
    2e5c:	223c                	lbu	a5,2(a2)
    2e5e:	07c2                	slli	a5,a5,0x10
    2e60:	8f5d                	or	a4,a4,a5
    2e62:	323c                	lbu	a5,3(a2)
    2e64:	07e2                	slli	a5,a5,0x18
    2e66:	8fd9                	or	a5,a5,a4
    2e68:	c41c                	sw	a5,8(s0)
    2e6a:	4781                	li	a5,0
    2e6c:	ca99                	beqz	a3,2e82 <netif_set_addr+0x44>
    2e6e:	3298                	lbu	a4,1(a3)
    2e70:	229c                	lbu	a5,0(a3)
    2e72:	0722                	slli	a4,a4,0x8
    2e74:	8f5d                	or	a4,a4,a5
    2e76:	22bc                	lbu	a5,2(a3)
    2e78:	07c2                	slli	a5,a5,0x10
    2e7a:	8f5d                	or	a4,a4,a5
    2e7c:	32bc                	lbu	a5,3(a3)
    2e7e:	07e2                	slli	a5,a5,0x18
    2e80:	8fd9                	or	a5,a5,a4
    2e82:	c45c                	sw	a5,12(s0)
    2e84:	0141                	addi	sp,sp,16
    2e86:	bcefd06f          	j	254 <__riscv_restore_0>

00002e8a <netif_add>:
netif_add():
    2e8a:	ba6fd2ef          	jal	t0,230 <__riscv_save_0>
    2e8e:	cd58                	sw	a4,28(a0)
    2e90:	8dc18713          	addi	a4,gp,-1828 # 2000014c <netifnum.6387>
    2e94:	00074883          	lbu	a7,0(a4)
    2e98:	1141                	addi	sp,sp,-16
    2e9a:	00052223          	sw	zero,4(a0)
    2e9e:	00052423          	sw	zero,8(a0)
    2ea2:	00052623          	sw	zero,12(a0)
    2ea6:	020508a3          	sb	zero,49(a0)
    2eaa:	02052023          	sw	zero,32(a0)
    2eae:	00188313          	addi	t1,a7,1
    2eb2:	03150a23          	sb	a7,52(a0)
    2eb6:	01052823          	sw	a6,16(a0)
    2eba:	842a                	mv	s0,a0
    2ebc:	c63e                	sw	a5,12(sp)
    2ebe:	00670023          	sb	t1,0(a4)
    2ec2:	3fb5                	jal	2e3e <netif_set_addr>
    2ec4:	47b2                	lw	a5,12(sp)
    2ec6:	8522                	mv	a0,s0
    2ec8:	9782                	jalr	a5
    2eca:	e911                	bnez	a0,2ede <netif_add+0x54>
    2ecc:	8d818793          	addi	a5,gp,-1832 # 20000148 <netif_list>
    2ed0:	4398                	lw	a4,0(a5)
    2ed2:	c018                	sw	a4,0(s0)
    2ed4:	c380                	sw	s0,0(a5)
    2ed6:	8522                	mv	a0,s0
    2ed8:	0141                	addi	sp,sp,16
    2eda:	b7afd06f          	j	254 <__riscv_restore_0>
    2ede:	4401                	li	s0,0
    2ee0:	bfdd                	j	2ed6 <netif_add+0x4c>

00002ee2 <netif_set_default>:
netif_set_default():
    2ee2:	8ca1aa23          	sw	a0,-1836(gp) # 20000144 <netif_default>
    2ee6:	8082                	ret

00002ee8 <netif_is_up>:
netif_is_up():
    2ee8:	03154503          	lbu	a0,49(a0)
    2eec:	8905                	andi	a0,a0,1
    2eee:	8082                	ret

00002ef0 <pbuf_header>:
pbuf_header():
    2ef0:	87aa                	mv	a5,a0
    2ef2:	4501                	li	a0,0
    2ef4:	c5a5                	beqz	a1,2f5c <pbuf_header+0x6c>
    2ef6:	c3bd                	beqz	a5,2f5c <pbuf_header+0x6c>
    2ef8:	01059613          	slli	a2,a1,0x10
    2efc:	8241                	srli	a2,a2,0x10
    2efe:	8832                	mv	a6,a2
    2f00:	0005db63          	bgez	a1,2f16 <pbuf_header+0x26>
    2f04:	40c00833          	neg	a6,a2
    2f08:	27ba                	lhu	a4,10(a5)
    2f0a:	0842                	slli	a6,a6,0x10
    2f0c:	01085813          	srli	a6,a6,0x10
    2f10:	4505                	li	a0,1
    2f12:	05076563          	bltu	a4,a6,2f5c <pbuf_header+0x6c>
    2f16:	27d4                	lbu	a3,12(a5)
    2f18:	43d8                	lw	a4,4(a5)
    2f1a:	c681                	beqz	a3,2f22 <pbuf_header+0x32>
    2f1c:	450d                	li	a0,3
    2f1e:	02a69163          	bne	a3,a0,2f40 <pbuf_header+0x50>
    2f22:	8f0d                	sub	a4,a4,a1
    2f24:	01078693          	addi	a3,a5,16
    2f28:	4505                	li	a0,1
    2f2a:	02d76963          	bltu	a4,a3,2f5c <pbuf_header+0x6c>
    2f2e:	c3d8                	sw	a4,4(a5)
    2f30:	27ba                	lhu	a4,10(a5)
    2f32:	4501                	li	a0,0
    2f34:	9732                	add	a4,a4,a2
    2f36:	a7ba                	sh	a4,10(a5)
    2f38:	279a                	lhu	a4,8(a5)
    2f3a:	963a                	add	a2,a2,a4
    2f3c:	a792                	sh	a2,8(a5)
    2f3e:	8082                	ret
    2f40:	16fd                	addi	a3,a3,-1
    2f42:	06c2                	slli	a3,a3,0x10
    2f44:	82c1                	srli	a3,a3,0x10
    2f46:	4885                	li	a7,1
    2f48:	4505                	li	a0,1
    2f4a:	00d8e963          	bltu	a7,a3,2f5c <pbuf_header+0x6c>
    2f4e:	0005d763          	bgez	a1,2f5c <pbuf_header+0x6c>
    2f52:	27b6                	lhu	a3,10(a5)
    2f54:	0106e463          	bltu	a3,a6,2f5c <pbuf_header+0x6c>
    2f58:	8f0d                	sub	a4,a4,a1
    2f5a:	bfd1                	j	2f2e <pbuf_header+0x3e>
    2f5c:	8082                	ret

00002f5e <pbuf_free>:
pbuf_free():
    2f5e:	ab8fd2ef          	jal	t0,216 <__riscv_save_4>
    2f62:	4401                	li	s0,0
    2f64:	cd0d                	beqz	a0,2f9e <pbuf_free+0x40>
    2f66:	85aa                	mv	a1,a0
    2f68:	4401                	li	s0,0
    2f6a:	490d                	li	s2,3
    2f6c:	4985                	li	s3,1
    2f6e:	25fe                	lhu	a5,14(a1)
    2f70:	17fd                	addi	a5,a5,-1
    2f72:	07c2                	slli	a5,a5,0x10
    2f74:	83c1                	srli	a5,a5,0x10
    2f76:	a5fe                	sh	a5,14(a1)
    2f78:	e39d                	bnez	a5,2f9e <pbuf_free+0x40>
    2f7a:	25dc                	lbu	a5,12(a1)
    2f7c:	4184                	lw	s1,0(a1)
    2f7e:	451d                	li	a0,7
    2f80:	01278863          	beq	a5,s2,2f90 <pbuf_free+0x32>
    2f84:	17fd                	addi	a5,a5,-1
    2f86:	07c2                	slli	a5,a5,0x10
    2f88:	83c1                	srli	a5,a5,0x10
    2f8a:	00f9ed63          	bltu	s3,a5,2fa4 <pbuf_free+0x46>
    2f8e:	4519                	li	a0,6
    2f90:	e01ff0ef          	jal	ra,2d90 <memp_free>
    2f94:	0405                	addi	s0,s0,1
    2f96:	0ff47413          	andi	s0,s0,255
    2f9a:	85a6                	mv	a1,s1
    2f9c:	f8e9                	bnez	s1,2f6e <pbuf_free+0x10>
    2f9e:	8522                	mv	a0,s0
    2fa0:	aaafd06f          	j	24a <__riscv_restore_4>
    2fa4:	852e                	mv	a0,a1
    2fa6:	b5dff0ef          	jal	ra,2b02 <mem_free>
    2faa:	b7ed                	j	2f94 <pbuf_free+0x36>

00002fac <pbuf_alloc>:
pbuf_alloc():
    2fac:	a6afd2ef          	jal	t0,216 <__riscv_save_4>
    2fb0:	4785                	li	a5,1
    2fb2:	00f50d63          	beq	a0,a5,2fcc <pbuf_alloc+0x20>
    2fb6:	c531                	beqz	a0,3002 <pbuf_alloc+0x56>
    2fb8:	4789                	li	a5,2
    2fba:	04f50663          	beq	a0,a5,3006 <pbuf_alloc+0x5a>
    2fbe:	478d                	li	a5,3
    2fc0:	04f50563          	beq	a0,a5,300a <pbuf_alloc+0x5e>
    2fc4:	4401                	li	s0,0
    2fc6:	8522                	mv	a0,s0
    2fc8:	a82fd06f          	j	24a <__riscv_restore_4>
    2fcc:	4481                	li	s1,0
    2fce:	04d1                	addi	s1,s1,20
    2fd0:	04b9                	addi	s1,s1,14
    2fd2:	04c2                	slli	s1,s1,0x10
    2fd4:	80c1                	srli	s1,s1,0x10
    2fd6:	4789                	li	a5,2
    2fd8:	89b2                	mv	s3,a2
    2fda:	892e                	mv	s2,a1
    2fdc:	02c7e963          	bltu	a5,a2,300e <pbuf_alloc+0x62>
    2fe0:	ca71                	beqz	a2,30b4 <pbuf_alloc+0x108>
    2fe2:	4519                	li	a0,6
    2fe4:	d8dff0ef          	jal	ra,2d70 <memp_malloc>
    2fe8:	842a                	mv	s0,a0
    2fea:	dd69                	beqz	a0,2fc4 <pbuf_alloc+0x18>
    2fec:	00052223          	sw	zero,4(a0)
    2ff0:	01251423          	sh	s2,8(a0)
    2ff4:	01251523          	sh	s2,10(a0)
    2ff8:	00052023          	sw	zero,0(a0)
    2ffc:	01350623          	sb	s3,12(a0)
    3000:	a0b5                	j	306c <pbuf_alloc+0xc0>
    3002:	44d1                	li	s1,20
    3004:	b7e9                	j	2fce <pbuf_alloc+0x22>
    3006:	4481                	li	s1,0
    3008:	b7e1                	j	2fd0 <pbuf_alloc+0x24>
    300a:	4481                	li	s1,0
    300c:	b7e9                	j	2fd6 <pbuf_alloc+0x2a>
    300e:	478d                	li	a5,3
    3010:	4401                	li	s0,0
    3012:	faf61ae3          	bne	a2,a5,2fc6 <pbuf_alloc+0x1a>
    3016:	451d                	li	a0,7
    3018:	d59ff0ef          	jal	ra,2d70 <memp_malloc>
    301c:	842a                	mv	s0,a0
    301e:	d15d                	beqz	a0,2fc4 <pbuf_alloc+0x18>
    3020:	009507b3          	add	a5,a0,s1
    3024:	07cd                	addi	a5,a5,19
    3026:	9bf1                	andi	a5,a5,-4
    3028:	2001e737          	lui	a4,0x2001e
    302c:	c15c                	sw	a5,4(a0)
    302e:	e9070793          	addi	a5,a4,-368 # 2001de90 <WCHCfg>
    3032:	43dc                	lw	a5,4(a5)
    3034:	048d                	addi	s1,s1,3
    3036:	98f1                	andi	s1,s1,-4
    3038:	03978793          	addi	a5,a5,57
    303c:	9bf1                	andi	a5,a5,-4
    303e:	01350623          	sb	s3,12(a0)
    3042:	00052023          	sw	zero,0(a0)
    3046:	01251423          	sh	s2,8(a0)
    304a:	409784b3          	sub	s1,a5,s1
    304e:	e9070993          	addi	s3,a4,-368
    3052:	00997363          	bgeu	s2,s1,3058 <pbuf_alloc+0xac>
    3056:	84ca                	mv	s1,s2
    3058:	4785                	li	a5,1
    305a:	a426                	sh	s1,10(s0)
    305c:	a47e                	sh	a5,14(s0)
    305e:	409904b3          	sub	s1,s2,s1
    3062:	4a0d                	li	s4,3
    3064:	8922                	mv	s2,s0
    3066:	4a85                	li	s5,1
    3068:	00904763          	bgtz	s1,3076 <pbuf_alloc+0xca>
    306c:	4785                	li	a5,1
    306e:	a47e                	sh	a5,14(s0)
    3070:	000406a3          	sb	zero,13(s0)
    3074:	bf89                	j	2fc6 <pbuf_alloc+0x1a>
    3076:	451d                	li	a0,7
    3078:	cf9ff0ef          	jal	ra,2d70 <memp_malloc>
    307c:	e501                	bnez	a0,3084 <pbuf_alloc+0xd8>
    307e:	8522                	mv	a0,s0
    3080:	3df9                	jal	2f5e <pbuf_free>
    3082:	b789                	j	2fc4 <pbuf_alloc+0x18>
    3084:	0049a783          	lw	a5,4(s3)
    3088:	01451623          	sh	s4,12(a0)
    308c:	00052023          	sw	zero,0(a0)
    3090:	00a92023          	sw	a0,0(s2)
    3094:	03978793          	addi	a5,a5,57
    3098:	a506                	sh	s1,8(a0)
    309a:	9bf1                	andi	a5,a5,-4
    309c:	00f4f363          	bgeu	s1,a5,30a2 <pbuf_alloc+0xf6>
    30a0:	87a6                	mv	a5,s1
    30a2:	01050713          	addi	a4,a0,16
    30a6:	a53e                	sh	a5,10(a0)
    30a8:	c158                	sw	a4,4(a0)
    30aa:	01551723          	sh	s5,14(a0)
    30ae:	8c9d                	sub	s1,s1,a5
    30b0:	892a                	mv	s2,a0
    30b2:	bf5d                	j	3068 <pbuf_alloc+0xbc>
    30b4:	00358793          	addi	a5,a1,3
    30b8:	01348513          	addi	a0,s1,19
    30bc:	9bf1                	andi	a5,a5,-4
    30be:	9971                	andi	a0,a0,-4
    30c0:	953e                	add	a0,a0,a5
    30c2:	0542                	slli	a0,a0,0x10
    30c4:	8141                	srli	a0,a0,0x10
    30c6:	b8bff0ef          	jal	ra,2c50 <mem_malloc>
    30ca:	842a                	mv	s0,a0
    30cc:	ee050ce3          	beqz	a0,2fc4 <pbuf_alloc+0x18>
    30d0:	94aa                	add	s1,s1,a0
    30d2:	04cd                	addi	s1,s1,19
    30d4:	98f1                	andi	s1,s1,-4
    30d6:	c144                	sw	s1,4(a0)
    30d8:	01251423          	sh	s2,8(a0)
    30dc:	01251523          	sh	s2,10(a0)
    30e0:	00052023          	sw	zero,0(a0)
    30e4:	00050623          	sb	zero,12(a0)
    30e8:	b751                	j	306c <pbuf_alloc+0xc0>

000030ea <pbuf_realloc>:
pbuf_realloc():
    30ea:	251e                	lhu	a5,8(a0)
    30ec:	04f5fa63          	bgeu	a1,a5,3140 <pbuf_realloc+0x56>
    30f0:	940fd2ef          	jal	t0,230 <__riscv_save_0>
    30f4:	842a                	mv	s0,a0
    30f6:	84ae                	mv	s1,a1
    30f8:	40f587b3          	sub	a5,a1,a5
    30fc:	242e                	lhu	a1,10(s0)
    30fe:	0295e963          	bltu	a1,s1,3130 <pbuf_realloc+0x46>
    3102:	245c                	lbu	a5,12(s0)
    3104:	ef81                	bnez	a5,311c <pbuf_realloc+0x32>
    3106:	00958b63          	beq	a1,s1,311c <pbuf_realloc+0x32>
    310a:	404c                	lw	a1,4(s0)
    310c:	8522                	mv	a0,s0
    310e:	8d81                	sub	a1,a1,s0
    3110:	95a6                	add	a1,a1,s1
    3112:	05c2                	slli	a1,a1,0x10
    3114:	81c1                	srli	a1,a1,0x10
    3116:	a71ff0ef          	jal	ra,2b86 <mem_realloc>
    311a:	842a                	mv	s0,a0
    311c:	4008                	lw	a0,0(s0)
    311e:	a426                	sh	s1,10(s0)
    3120:	a406                	sh	s1,8(s0)
    3122:	c119                	beqz	a0,3128 <pbuf_realloc+0x3e>
    3124:	e3bff0ef          	jal	ra,2f5e <pbuf_free>
    3128:	00042023          	sw	zero,0(s0)
    312c:	928fd06f          	j	254 <__riscv_restore_0>
    3130:	241a                	lhu	a4,8(s0)
    3132:	8c8d                	sub	s1,s1,a1
    3134:	04c2                	slli	s1,s1,0x10
    3136:	973e                	add	a4,a4,a5
    3138:	a41a                	sh	a4,8(s0)
    313a:	80c1                	srli	s1,s1,0x10
    313c:	4000                	lw	s0,0(s0)
    313e:	bf7d                	j	30fc <pbuf_realloc+0x12>
    3140:	8082                	ret

00003142 <pbuf_clen>:
pbuf_clen():
    3142:	4781                	li	a5,0
    3144:	e119                	bnez	a0,314a <pbuf_clen+0x8>
    3146:	853e                	mv	a0,a5
    3148:	8082                	ret
    314a:	0785                	addi	a5,a5,1
    314c:	0ff7f793          	andi	a5,a5,255
    3150:	4108                	lw	a0,0(a0)
    3152:	bfcd                	j	3144 <pbuf_clen+0x2>

00003154 <pbuf_ref>:
pbuf_ref():
    3154:	c501                	beqz	a0,315c <pbuf_ref+0x8>
    3156:	257e                	lhu	a5,14(a0)
    3158:	0785                	addi	a5,a5,1
    315a:	a57e                	sh	a5,14(a0)
    315c:	8082                	ret

0000315e <pbuf_cat>:
pbuf_cat():
    315e:	cd09                	beqz	a0,3178 <pbuf_cat+0x1a>
    3160:	e199                	bnez	a1,3166 <pbuf_cat+0x8>
    3162:	8082                	ret
    3164:	853a                	mv	a0,a4
    3166:	259e                	lhu	a5,8(a1)
    3168:	2516                	lhu	a3,8(a0)
    316a:	4118                	lw	a4,0(a0)
    316c:	97b6                	add	a5,a5,a3
    316e:	07c2                	slli	a5,a5,0x10
    3170:	83c1                	srli	a5,a5,0x10
    3172:	a51e                	sh	a5,8(a0)
    3174:	fb65                	bnez	a4,3164 <pbuf_cat+0x6>
    3176:	c10c                	sw	a1,0(a0)
    3178:	8082                	ret

0000317a <pbuf_chain>:
pbuf_chain():
    317a:	8b6fd2ef          	jal	t0,230 <__riscv_save_0>
    317e:	842e                	mv	s0,a1
    3180:	3ff9                	jal	315e <pbuf_cat>
    3182:	8522                	mv	a0,s0
    3184:	3fc1                	jal	3154 <pbuf_ref>
    3186:	8cefd06f          	j	254 <__riscv_restore_0>

0000318a <pbuf_copy>:
pbuf_copy():
    318a:	cd3d                	beqz	a0,3208 <pbuf_copy+0x7e>
    318c:	88afd2ef          	jal	t0,216 <__riscv_save_4>
    3190:	842a                	mv	s0,a0
    3192:	84ae                	mv	s1,a1
    3194:	5559                	li	a0,-10
    3196:	c5ad                	beqz	a1,3200 <pbuf_copy+0x76>
    3198:	241a                	lhu	a4,8(s0)
    319a:	259e                	lhu	a5,8(a1)
    319c:	06f76263          	bltu	a4,a5,3200 <pbuf_copy+0x76>
    31a0:	4901                	li	s2,0
    31a2:	4a01                	li	s4,0
    31a4:	00a45983          	lhu	s3,10(s0)
    31a8:	24be                	lhu	a5,10(s1)
    31aa:	414989b3          	sub	s3,s3,s4
    31ae:	412787b3          	sub	a5,a5,s2
    31b2:	04f9c963          	blt	s3,a5,3204 <pbuf_copy+0x7a>
    31b6:	01079993          	slli	s3,a5,0x10
    31ba:	4048                	lw	a0,4(s0)
    31bc:	40cc                	lw	a1,4(s1)
    31be:	0109d993          	srli	s3,s3,0x10
    31c2:	9552                	add	a0,a0,s4
    31c4:	95ca                	add	a1,a1,s2
    31c6:	864e                	mv	a2,s3
    31c8:	339050ef          	jal	ra,8d00 <memcpy>
    31cc:	9a4e                	add	s4,s4,s3
    31ce:	243e                	lhu	a5,10(s0)
    31d0:	0a42                	slli	s4,s4,0x10
    31d2:	994e                	add	s2,s2,s3
    31d4:	0942                	slli	s2,s2,0x10
    31d6:	010a5a13          	srli	s4,s4,0x10
    31da:	01095913          	srli	s2,s2,0x10
    31de:	01479463          	bne	a5,s4,31e6 <pbuf_copy+0x5c>
    31e2:	4000                	lw	s0,0(s0)
    31e4:	4a01                	li	s4,0
    31e6:	24be                	lhu	a5,10(s1)
    31e8:	00f96563          	bltu	s2,a5,31f2 <pbuf_copy+0x68>
    31ec:	4084                	lw	s1,0(s1)
    31ee:	cc99                	beqz	s1,320c <pbuf_copy+0x82>
    31f0:	4901                	li	s2,0
    31f2:	24ba                	lhu	a4,10(s1)
    31f4:	249e                	lhu	a5,8(s1)
    31f6:	02f71663          	bne	a4,a5,3222 <pbuf_copy+0x98>
    31fa:	409c                	lw	a5,0(s1)
    31fc:	c39d                	beqz	a5,3222 <pbuf_copy+0x98>
    31fe:	555d                	li	a0,-9
    3200:	84afd06f          	j	24a <__riscv_restore_4>
    3204:	09c2                	slli	s3,s3,0x10
    3206:	bf55                	j	31ba <pbuf_copy+0x30>
    3208:	5559                	li	a0,-10
    320a:	8082                	ret
    320c:	c809                	beqz	s0,321e <pbuf_copy+0x94>
    320e:	4901                	li	s2,0
    3210:	243a                	lhu	a4,10(s0)
    3212:	241e                	lhu	a5,8(s0)
    3214:	00f71463          	bne	a4,a5,321c <pbuf_copy+0x92>
    3218:	401c                	lw	a5,0(s0)
    321a:	f3f5                	bnez	a5,31fe <pbuf_copy+0x74>
    321c:	f4c1                	bnez	s1,31a4 <pbuf_copy+0x1a>
    321e:	4501                	li	a0,0
    3220:	b7c5                	j	3200 <pbuf_copy+0x76>
    3222:	f47d                	bnez	s0,3210 <pbuf_copy+0x86>
    3224:	b741                	j	31a4 <pbuf_copy+0x1a>

00003226 <tcp_new_port>:
tcp_new_port():
    3226:	8e01a683          	lw	a3,-1824(gp) # 20000150 <tcp_active_pcbs>
    322a:	8f81a603          	lw	a2,-1800(gp) # 20000168 <tcp_tw_pcbs>
    322e:	8e81a583          	lw	a1,-1816(gp) # 20000158 <tcp_listen_pcbs>
    3232:	8301d503          	lhu	a0,-2000(gp) # 200000a0 <port.6623>
    3236:	83018793          	addi	a5,gp,-2000 # 200000a0 <port.6623>
    323a:	00150713          	addi	a4,a0,1
    323e:	01071513          	slli	a0,a4,0x10
    3242:	01071813          	slli	a6,a4,0x10
    3246:	8141                	srli	a0,a0,0x10
    3248:	00085363          	bgez	a6,324e <tcp_new_port+0x28>
    324c:	6505                	lui	a0,0x1
    324e:	8736                	mv	a4,a3
    3250:	e719                	bnez	a4,325e <tcp_new_port+0x38>
    3252:	8732                	mv	a4,a2
    3254:	eb19                	bnez	a4,326a <tcp_new_port+0x44>
    3256:	872e                	mv	a4,a1
    3258:	ef19                	bnez	a4,3276 <tcp_new_port+0x50>
    325a:	a38a                	sh	a0,0(a5)
    325c:	8082                	ret
    325e:	01c75803          	lhu	a6,28(a4)
    3262:	fca80ce3          	beq	a6,a0,323a <tcp_new_port+0x14>
    3266:	4758                	lw	a4,12(a4)
    3268:	b7e5                	j	3250 <tcp_new_port+0x2a>
    326a:	01c75803          	lhu	a6,28(a4)
    326e:	fca806e3          	beq	a6,a0,323a <tcp_new_port+0x14>
    3272:	4758                	lw	a4,12(a4)
    3274:	b7c5                	j	3254 <tcp_new_port+0x2e>
    3276:	01c75803          	lhu	a6,28(a4)
    327a:	fca800e3          	beq	a6,a0,323a <tcp_new_port+0x14>
    327e:	4758                	lw	a4,12(a4)
    3280:	bfe1                	j	3258 <tcp_new_port+0x32>

00003282 <tcp_bind>:
tcp_bind():
    3282:	491c                	lw	a5,16(a0)
    3284:	10079563          	bnez	a5,338e <tcp_bind+0x10c>
    3288:	f8ffc2ef          	jal	t0,216 <__riscv_save_4>
    328c:	1141                	addi	sp,sp,-16
    328e:	84aa                	mv	s1,a0
    3290:	8432                	mv	s0,a2
    3292:	e609                	bnez	a2,329c <tcp_bind+0x1a>
    3294:	c62e                	sw	a1,12(sp)
    3296:	3f41                	jal	3226 <tcp_new_port>
    3298:	45b2                	lw	a1,12(sp)
    329a:	842a                	mv	s0,a0
    329c:	8e81a703          	lw	a4,-1816(gp) # 20000158 <tcp_listen_pcbs>
    32a0:	e731                	bnez	a4,32ec <tcp_bind+0x6a>
    32a2:	8e01a703          	lw	a4,-1824(gp) # 20000150 <tcp_active_pcbs>
    32a6:	eb25                	bnez	a4,3316 <tcp_bind+0x94>
    32a8:	8e41a983          	lw	s3,-1820(gp) # 20000154 <tcp_bound_pcbs>
    32ac:	8e418913          	addi	s2,gp,-1820 # 20000154 <tcp_bound_pcbs>
    32b0:	874e                	mv	a4,s3
    32b2:	e759                	bnez	a4,3340 <tcp_bind+0xbe>
    32b4:	8f81a783          	lw	a5,-1800(gp) # 20000168 <tcp_tw_pcbs>
    32b8:	ebcd                	bnez	a5,336a <tcp_bind+0xe8>
    32ba:	c185                	beqz	a1,32da <tcp_bind+0x58>
    32bc:	3198                	lbu	a4,1(a1)
    32be:	219c                	lbu	a5,0(a1)
    32c0:	0722                	slli	a4,a4,0x8
    32c2:	8f5d                	or	a4,a4,a5
    32c4:	21bc                	lbu	a5,2(a1)
    32c6:	07c2                	slli	a5,a5,0x10
    32c8:	8f5d                	or	a4,a4,a5
    32ca:	31bc                	lbu	a5,3(a1)
    32cc:	07e2                	slli	a5,a5,0x18
    32ce:	8fd9                	or	a5,a5,a4
    32d0:	c789                	beqz	a5,32da <tcp_bind+0x58>
    32d2:	4611                	li	a2,4
    32d4:	8526                	mv	a0,s1
    32d6:	22b050ef          	jal	ra,8d00 <memcpy>
    32da:	acc2                	sh	s0,28(s1)
    32dc:	0134a623          	sw	s3,12(s1)
    32e0:	00992023          	sw	s1,0(s2)
    32e4:	4501                	li	a0,0
    32e6:	0141                	addi	sp,sp,16
    32e8:	f63fc06f          	j	24a <__riscv_restore_4>
    32ec:	2f5e                	lhu	a5,28(a4)
    32ee:	02879263          	bne	a5,s0,3312 <tcp_bind+0x90>
    32f2:	4310                	lw	a2,0(a4)
    32f4:	ce59                	beqz	a2,3392 <tcp_bind+0x110>
    32f6:	cdd1                	beqz	a1,3392 <tcp_bind+0x110>
    32f8:	3194                	lbu	a3,1(a1)
    32fa:	219c                	lbu	a5,0(a1)
    32fc:	06a2                	slli	a3,a3,0x8
    32fe:	8edd                	or	a3,a3,a5
    3300:	21bc                	lbu	a5,2(a1)
    3302:	07c2                	slli	a5,a5,0x10
    3304:	8edd                	or	a3,a3,a5
    3306:	31bc                	lbu	a5,3(a1)
    3308:	07e2                	slli	a5,a5,0x18
    330a:	8fd5                	or	a5,a5,a3
    330c:	c3d9                	beqz	a5,3392 <tcp_bind+0x110>
    330e:	08f60263          	beq	a2,a5,3392 <tcp_bind+0x110>
    3312:	4758                	lw	a4,12(a4)
    3314:	b771                	j	32a0 <tcp_bind+0x1e>
    3316:	2f5e                	lhu	a5,28(a4)
    3318:	02879263          	bne	a5,s0,333c <tcp_bind+0xba>
    331c:	4310                	lw	a2,0(a4)
    331e:	ca35                	beqz	a2,3392 <tcp_bind+0x110>
    3320:	c9ad                	beqz	a1,3392 <tcp_bind+0x110>
    3322:	3194                	lbu	a3,1(a1)
    3324:	219c                	lbu	a5,0(a1)
    3326:	06a2                	slli	a3,a3,0x8
    3328:	8edd                	or	a3,a3,a5
    332a:	21bc                	lbu	a5,2(a1)
    332c:	07c2                	slli	a5,a5,0x10
    332e:	8edd                	or	a3,a3,a5
    3330:	31bc                	lbu	a5,3(a1)
    3332:	07e2                	slli	a5,a5,0x18
    3334:	8fd5                	or	a5,a5,a3
    3336:	cfb1                	beqz	a5,3392 <tcp_bind+0x110>
    3338:	04f60d63          	beq	a2,a5,3392 <tcp_bind+0x110>
    333c:	4758                	lw	a4,12(a4)
    333e:	b7a5                	j	32a6 <tcp_bind+0x24>
    3340:	2f5e                	lhu	a5,28(a4)
    3342:	02879263          	bne	a5,s0,3366 <tcp_bind+0xe4>
    3346:	4310                	lw	a2,0(a4)
    3348:	c629                	beqz	a2,3392 <tcp_bind+0x110>
    334a:	c5a1                	beqz	a1,3392 <tcp_bind+0x110>
    334c:	3194                	lbu	a3,1(a1)
    334e:	219c                	lbu	a5,0(a1)
    3350:	06a2                	slli	a3,a3,0x8
    3352:	8edd                	or	a3,a3,a5
    3354:	21bc                	lbu	a5,2(a1)
    3356:	07c2                	slli	a5,a5,0x10
    3358:	8edd                	or	a3,a3,a5
    335a:	31bc                	lbu	a5,3(a1)
    335c:	07e2                	slli	a5,a5,0x18
    335e:	8fd5                	or	a5,a5,a3
    3360:	cb8d                	beqz	a5,3392 <tcp_bind+0x110>
    3362:	02f60863          	beq	a2,a5,3392 <tcp_bind+0x110>
    3366:	4758                	lw	a4,12(a4)
    3368:	b7a9                	j	32b2 <tcp_bind+0x30>
    336a:	2fda                	lhu	a4,28(a5)
    336c:	00871f63          	bne	a4,s0,338a <tcp_bind+0x108>
    3370:	3194                	lbu	a3,1(a1)
    3372:	2198                	lbu	a4,0(a1)
    3374:	06a2                	slli	a3,a3,0x8
    3376:	8ed9                	or	a3,a3,a4
    3378:	21b8                	lbu	a4,2(a1)
    337a:	0742                	slli	a4,a4,0x10
    337c:	8ed9                	or	a3,a3,a4
    337e:	31b8                	lbu	a4,3(a1)
    3380:	0762                	slli	a4,a4,0x18
    3382:	8f55                	or	a4,a4,a3
    3384:	4394                	lw	a3,0(a5)
    3386:	00e68663          	beq	a3,a4,3392 <tcp_bind+0x110>
    338a:	47dc                	lw	a5,12(a5)
    338c:	b735                	j	32b8 <tcp_bind+0x36>
    338e:	554d                	li	a0,-13
    3390:	8082                	ret
    3392:	5555                	li	a0,-11
    3394:	bf89                	j	32e6 <tcp_bind+0x64>

00003396 <tcp_update_rcv_ann_wnd>:
tcp_update_rcv_ann_wnd():
    3396:	2001e737          	lui	a4,0x2001e
    339a:	87aa                	mv	a5,a0
    339c:	354e                	lhu	a1,44(a0)
    339e:	5914                	lw	a3,48(a0)
    33a0:	e9472703          	lw	a4,-364(a4) # 2001de94 <WCHCfg+0x4>
    33a4:	5510                	lw	a2,40(a0)
    33a6:	03c7d803          	lhu	a6,60(a5)
    33aa:	40d58533          	sub	a0,a1,a3
    33ae:	8305                	srli	a4,a4,0x1
    33b0:	9532                	add	a0,a0,a2
    33b2:	00e87363          	bgeu	a6,a4,33b8 <tcp_update_rcv_ann_wnd+0x22>
    33b6:	8742                	mv	a4,a6
    33b8:	40e50733          	sub	a4,a0,a4
    33bc:	00074463          	bltz	a4,33c4 <tcp_update_rcv_ann_wnd+0x2e>
    33c0:	b7ee                	sh	a1,46(a5)
    33c2:	8082                	ret
    33c4:	40d60733          	sub	a4,a2,a3
    33c8:	00e05663          	blez	a4,33d4 <tcp_update_rcv_ann_wnd+0x3e>
    33cc:	02079723          	sh	zero,46(a5)
    33d0:	4501                	li	a0,0
    33d2:	8082                	ret
    33d4:	8e91                	sub	a3,a3,a2
    33d6:	b7f6                	sh	a3,46(a5)
    33d8:	bfe5                	j	33d0 <tcp_update_rcv_ann_wnd+0x3a>

000033da <tcp_recved>:
tcp_recved():
    33da:	e57fc2ef          	jal	t0,230 <__riscv_save_0>
    33de:	355e                	lhu	a5,44(a0)
    33e0:	842a                	mv	s0,a0
    33e2:	95be                	add	a1,a1,a5
    33e4:	2001e7b7          	lui	a5,0x2001e
    33e8:	e9078713          	addi	a4,a5,-368 # 2001de90 <WCHCfg>
    33ec:	05c2                	slli	a1,a1,0x10
    33ee:	4358                	lw	a4,4(a4)
    33f0:	81c1                	srli	a1,a1,0x10
    33f2:	b54e                	sh	a1,44(a0)
    33f4:	e9078493          	addi	s1,a5,-368
    33f8:	00b77363          	bgeu	a4,a1,33fe <tcp_recved+0x24>
    33fc:	b55a                	sh	a4,44(a0)
    33fe:	8522                	mv	a0,s0
    3400:	3f59                	jal	3396 <tcp_update_rcv_ann_wnd>
    3402:	40dc                	lw	a5,4(s1)
    3404:	8389                	srli	a5,a5,0x2
    3406:	00f56b63          	bltu	a0,a5,341c <tcp_recved+0x42>
    340a:	02644783          	lbu	a5,38(s0)
    340e:	8522                	mv	a0,s0
    3410:	0027e793          	ori	a5,a5,2
    3414:	02f40323          	sb	a5,38(s0)
    3418:	623000ef          	jal	ra,423a <tcp_output>
    341c:	e39fc06f          	j	254 <__riscv_restore_0>

00003420 <tcp_seg_free>:
tcp_seg_free():
    3420:	e11fc2ef          	jal	t0,230 <__riscv_save_0>
    3424:	1141                	addi	sp,sp,-16
    3426:	4401                	li	s0,0
    3428:	cd09                	beqz	a0,3442 <tcp_seg_free+0x22>
    342a:	85aa                	mv	a1,a0
    342c:	4148                	lw	a0,4(a0)
    342e:	4401                	li	s0,0
    3430:	c511                	beqz	a0,343c <tcp_seg_free+0x1c>
    3432:	c62e                	sw	a1,12(sp)
    3434:	b2bff0ef          	jal	ra,2f5e <pbuf_free>
    3438:	45b2                	lw	a1,12(sp)
    343a:	842a                	mv	s0,a0
    343c:	4511                	li	a0,4
    343e:	953ff0ef          	jal	ra,2d90 <memp_free>
    3442:	8522                	mv	a0,s0
    3444:	0141                	addi	sp,sp,16
    3446:	e0ffc06f          	j	254 <__riscv_restore_0>

0000344a <tcp_segs_free>:
tcp_segs_free():
    344a:	de7fc2ef          	jal	t0,230 <__riscv_save_0>
    344e:	4401                	li	s0,0
    3450:	e501                	bnez	a0,3458 <tcp_segs_free+0xe>
    3452:	8522                	mv	a0,s0
    3454:	e01fc06f          	j	254 <__riscv_restore_0>
    3458:	4104                	lw	s1,0(a0)
    345a:	37d9                	jal	3420 <tcp_seg_free>
    345c:	942a                	add	s0,s0,a0
    345e:	0ff47413          	andi	s0,s0,255
    3462:	8526                	mv	a0,s1
    3464:	b7f5                	j	3450 <tcp_segs_free+0x6>

00003466 <tcp_seg_copy>:
tcp_seg_copy():
    3466:	dcbfc2ef          	jal	t0,230 <__riscv_save_0>
    346a:	1141                	addi	sp,sp,-16
    346c:	c62a                	sw	a0,12(sp)
    346e:	4511                	li	a0,4
    3470:	901ff0ef          	jal	ra,2d70 <memp_malloc>
    3474:	842a                	mv	s0,a0
    3476:	c901                	beqz	a0,3486 <tcp_seg_copy+0x20>
    3478:	45b2                	lw	a1,12(sp)
    347a:	4651                	li	a2,20
    347c:	085050ef          	jal	ra,8d00 <memcpy>
    3480:	4048                	lw	a0,4(s0)
    3482:	cd3ff0ef          	jal	ra,3154 <pbuf_ref>
    3486:	8522                	mv	a0,s0
    3488:	0141                	addi	sp,sp,16
    348a:	dcbfc06f          	j	254 <__riscv_restore_0>

0000348e <tcp_arg>:
tcp_arg():
    348e:	cd0c                	sw	a1,24(a0)
    3490:	8082                	ret

00003492 <tcp_recv>:
tcp_recv():
    3492:	08b52623          	sw	a1,140(a0) # 108c <uart_tx+0xca>
    3496:	8082                	ret

00003498 <tcp_sent>:
tcp_sent():
    3498:	08b52423          	sw	a1,136(a0)
    349c:	8082                	ret

0000349e <tcp_err>:
tcp_err():
    349e:	08b52c23          	sw	a1,152(a0)
    34a2:	8082                	ret

000034a4 <tcp_poll>:
tcp_poll():
    34a4:	08b52a23          	sw	a1,148(a0)
    34a8:	02c50ca3          	sb	a2,57(a0)
    34ac:	8082                	ret

000034ae <tcp_pcb_purge>:
tcp_pcb_purge():
    34ae:	491c                	lw	a5,16(a0)
    34b0:	4705                	li	a4,1
    34b2:	04f77363          	bgeu	a4,a5,34f8 <tcp_pcb_purge+0x4a>
    34b6:	4729                	li	a4,10
    34b8:	04e78063          	beq	a5,a4,34f8 <tcp_pcb_purge+0x4a>
    34bc:	d75fc2ef          	jal	t0,230 <__riscv_save_0>
    34c0:	842a                	mv	s0,a0
    34c2:	08452503          	lw	a0,132(a0)
    34c6:	c509                	beqz	a0,34d0 <tcp_pcb_purge+0x22>
    34c8:	a97ff0ef          	jal	ra,2f5e <pbuf_free>
    34cc:	08042223          	sw	zero,132(s0)
    34d0:	08042503          	lw	a0,128(s0)
    34d4:	57fd                	li	a5,-1
    34d6:	bc3e                	sh	a5,58(s0)
    34d8:	f73ff0ef          	jal	ra,344a <tcp_segs_free>
    34dc:	5c28                	lw	a0,120(s0)
    34de:	08042023          	sw	zero,128(s0)
    34e2:	f69ff0ef          	jal	ra,344a <tcp_segs_free>
    34e6:	5c68                	lw	a0,124(s0)
    34e8:	f63ff0ef          	jal	ra,344a <tcp_segs_free>
    34ec:	06042c23          	sw	zero,120(s0)
    34f0:	06042e23          	sw	zero,124(s0)
    34f4:	d61fc06f          	j	254 <__riscv_restore_0>
    34f8:	8082                	ret

000034fa <tcp_slowtmr>:
tcp_slowtmr():
    34fa:	d07fc2ef          	jal	t0,200 <__riscv_save_12>
    34fe:	8ec18713          	addi	a4,gp,-1812 # 2000015c <tcp_ticks>
    3502:	2001e7b7          	lui	a5,0x2001e
    3506:	e647cc83          	lbu	s9,-412(a5) # 2001de64 <NetInf+0x18>
    350a:	431c                	lw	a5,0(a4)
    350c:	6b29                	lui	s6,0xa
    350e:	0785                	addi	a5,a5,1
    3510:	8e01a403          	lw	s0,-1824(gp) # 20000150 <tcp_active_pcbs>
    3514:	c31c                	sw	a5,0(a4)
    3516:	06600993          	li	s3,102
    351a:	4a81                	li	s5,0
    351c:	8ec18913          	addi	s2,gp,-1812 # 2000015c <tcp_ticks>
    3520:	8e018a13          	addi	s4,gp,-1824 # 20000150 <tcp_active_pcbs>
    3524:	4d09                	li	s10,2
    3526:	134b0b13          	addi	s6,s6,308 # a134 <tcp_backoff>
    352a:	84018b93          	addi	s7,gp,-1984 # 200000b0 <tcp_persist_backoff>
    352e:	4c19                	li	s8,6
    3530:	e809                	bnez	s0,3542 <tcp_slowtmr+0x48>
    3532:	8f81a403          	lw	s0,-1800(gp) # 20000168 <tcp_tw_pcbs>
    3536:	8f818493          	addi	s1,gp,-1800 # 20000168 <tcp_tw_pcbs>
    353a:	20041a63          	bnez	s0,374e <tcp_slowtmr+0x254>
    353e:	cfffc06f          	j	23c <__riscv_restore_12>
    3542:	19fd                	addi	s3,s3,-1
    3544:	0ff9f993          	andi	s3,s3,255
    3548:	fe098be3          	beqz	s3,353e <tcp_slowtmr+0x44>
    354c:	04e44703          	lbu	a4,78(s0)
    3550:	4814                	lw	a3,16(s0)
    3552:	4485                	li	s1,1
    3554:	02ec8263          	beq	s9,a4,3578 <tcp_slowtmr+0x7e>
    3558:	0ac44483          	lbu	s1,172(s0)
    355c:	10048863          	beqz	s1,366c <tcp_slowtmr+0x172>
    3560:	0a842783          	lw	a5,168(s0)
    3564:	009b8733          	add	a4,s7,s1
    3568:	fff74703          	lbu	a4,-1(a4)
    356c:	0785                	addi	a5,a5,1
    356e:	0af42423          	sw	a5,168(s0)
    3572:	0ee7f263          	bgeu	a5,a4,3656 <tcp_slowtmr+0x15c>
    3576:	4481                	li	s1,0
    3578:	481c                	lw	a5,16(s0)
    357a:	01879c63          	bne	a5,s8,3592 <tcp_slowtmr+0x98>
    357e:	5854                	lw	a3,52(s0)
    3580:	00092703          	lw	a4,0(s2)
    3584:	8f15                	sub	a4,a4,a3
    3586:	46d1                	li	a3,20
    3588:	00e6f563          	bgeu	a3,a4,3592 <tcp_slowtmr+0x98>
    358c:	0485                	addi	s1,s1,1
    358e:	0ff4f493          	andi	s1,s1,255
    3592:	241a                	lhu	a4,8(s0)
    3594:	4d81                	li	s11,0
    3596:	8b21                	andi	a4,a4,8
    3598:	cf15                	beqz	a4,35d4 <tcp_slowtmr+0xda>
    359a:	4711                	li	a4,4
    359c:	00e78563          	beq	a5,a4,35a6 <tcp_slowtmr+0xac>
    35a0:	471d                	li	a4,7
    35a2:	02e79963          	bne	a5,a4,35d4 <tcp_slowtmr+0xda>
    35a6:	0a042503          	lw	a0,160(s0)
    35aa:	0a442703          	lw	a4,164(s0)
    35ae:	09c42583          	lw	a1,156(s0)
    35b2:	3e800613          	li	a2,1000
    35b6:	02e50733          	mul	a4,a0,a4
    35ba:	00092683          	lw	a3,0(s2)
    35be:	585c                	lw	a5,52(s0)
    35c0:	8e9d                	sub	a3,a3,a5
    35c2:	972e                	add	a4,a4,a1
    35c4:	02c75733          	divu	a4,a4,a2
    35c8:	10d77863          	bgeu	a4,a3,36d8 <tcp_slowtmr+0x1de>
    35cc:	0485                	addi	s1,s1,1
    35ce:	0ff4f493          	andi	s1,s1,255
    35d2:	4d85                	li	s11,1
    35d4:	08042503          	lw	a0,128(s0)
    35d8:	cd19                	beqz	a0,35f6 <tcp_slowtmr+0xfc>
    35da:	585c                	lw	a5,52(s0)
    35dc:	00092703          	lw	a4,0(s2)
    35e0:	8f1d                	sub	a4,a4,a5
    35e2:	04c41783          	lh	a5,76(s0)
    35e6:	038787b3          	mul	a5,a5,s8
    35ea:	00f76663          	bltu	a4,a5,35f6 <tcp_slowtmr+0xfc>
    35ee:	e5dff0ef          	jal	ra,344a <tcp_segs_free>
    35f2:	08042023          	sw	zero,128(s0)
    35f6:	481c                	lw	a5,16(s0)
    35f8:	470d                	li	a4,3
    35fa:	10e79263          	bne	a5,a4,36fe <tcp_slowtmr+0x204>
    35fe:	5858                	lw	a4,52(s0)
    3600:	00092783          	lw	a5,0(s2)
    3604:	8f99                	sub	a5,a5,a4
    3606:	4751                	li	a4,20
    3608:	00f76463          	bltu	a4,a5,3610 <tcp_slowtmr+0x116>
    360c:	10048663          	beqz	s1,3718 <tcp_slowtmr+0x21e>
    3610:	8522                	mv	a0,s0
    3612:	454020ef          	jal	ra,5a66 <LwipRemoveTcpPcb>
    3616:	8522                	mv	a0,s0
    3618:	e97ff0ef          	jal	ra,34ae <tcp_pcb_purge>
    361c:	445c                	lw	a5,12(s0)
    361e:	0e0a8a63          	beqz	s5,3712 <tcp_slowtmr+0x218>
    3622:	00faa623          	sw	a5,12(s5)
    3626:	09842783          	lw	a5,152(s0)
    362a:	c781                	beqz	a5,3632 <tcp_slowtmr+0x138>
    362c:	4c08                	lw	a0,24(s0)
    362e:	55ed                	li	a1,-5
    3630:	9782                	jalr	a5
    3632:	000d8b63          	beqz	s11,3648 <tcp_slowtmr+0x14e>
    3636:	305e                	lhu	a5,36(s0)
    3638:	2c5a                	lhu	a4,28(s0)
    363a:	540c                	lw	a1,40(s0)
    363c:	4c68                	lw	a0,92(s0)
    363e:	00440693          	addi	a3,s0,4
    3642:	8622                	mv	a2,s0
    3644:	751000ef          	jal	ra,4594 <tcp_rst>
    3648:	4444                	lw	s1,12(s0)
    364a:	85a2                	mv	a1,s0
    364c:	4509                	li	a0,2
    364e:	f42ff0ef          	jal	ra,2d90 <memp_free>
    3652:	8426                	mv	s0,s1
    3654:	bdf1                	j	3530 <tcp_slowtmr+0x36>
    3656:	0a042423          	sw	zero,168(s0)
    365a:	009c6563          	bltu	s8,s1,3664 <tcp_slowtmr+0x16a>
    365e:	0485                	addi	s1,s1,1
    3660:	0a940623          	sb	s1,172(s0)
    3664:	8522                	mv	a0,s0
    3666:	19e010ef          	jal	ra,4804 <tcp_zero_window_probe>
    366a:	b731                	j	3576 <tcp_slowtmr+0x7c>
    366c:	03a41783          	lh	a5,58(s0)
    3670:	0007c463          	bltz	a5,3678 <tcp_slowtmr+0x17e>
    3674:	0785                	addi	a5,a5,1
    3676:	bc3e                	sh	a5,58(s0)
    3678:	5c7c                	lw	a5,124(s0)
    367a:	ee078ee3          	beqz	a5,3576 <tcp_slowtmr+0x7c>
    367e:	03a41783          	lh	a5,58(s0)
    3682:	eef05ae3          	blez	a5,3576 <tcp_slowtmr+0x7c>
    3686:	01a68e63          	beq	a3,s10,36a2 <tcp_slowtmr+0x1a8>
    368a:	04841783          	lh	a5,72(s0)
    368e:	04a41683          	lh	a3,74(s0)
    3692:	975a                	add	a4,a4,s6
    3694:	2318                	lbu	a4,0(a4)
    3696:	878d                	srai	a5,a5,0x3
    3698:	97b6                	add	a5,a5,a3
    369a:	00e797b3          	sll	a5,a5,a4
    369e:	04f41623          	sh	a5,76(s0)
    36a2:	05645703          	lhu	a4,86(s0)
    36a6:	06045783          	lhu	a5,96(s0)
    36aa:	02041d23          	sh	zero,58(s0)
    36ae:	00f77363          	bgeu	a4,a5,36b4 <tcp_slowtmr+0x1ba>
    36b2:	87ba                	mv	a5,a4
    36b4:	07c2                	slli	a5,a5,0x10
    36b6:	83c1                	srli	a5,a5,0x10
    36b8:	3c5a                	lhu	a4,60(s0)
    36ba:	8385                	srli	a5,a5,0x1
    36bc:	04f41c23          	sh	a5,88(s0)
    36c0:	00e7f663          	bgeu	a5,a4,36cc <tcp_slowtmr+0x1d2>
    36c4:	00171793          	slli	a5,a4,0x1
    36c8:	04f41c23          	sh	a5,88(s0)
    36cc:	04e41b23          	sh	a4,86(s0)
    36d0:	8522                	mv	a0,s0
    36d2:	7cb000ef          	jal	ra,469c <tcp_rexmit_rto>
    36d6:	b54d                	j	3578 <tcp_slowtmr+0x7e>
    36d8:	0ad44783          	lbu	a5,173(s0)
    36dc:	4d81                	li	s11,0
    36de:	02a787b3          	mul	a5,a5,a0
    36e2:	97ae                	add	a5,a5,a1
    36e4:	02c7d7b3          	divu	a5,a5,a2
    36e8:	eed7f6e3          	bgeu	a5,a3,35d4 <tcp_slowtmr+0xda>
    36ec:	8522                	mv	a0,s0
    36ee:	0b8010ef          	jal	ra,47a6 <tcp_keepalive>
    36f2:	0ad44783          	lbu	a5,173(s0)
    36f6:	0785                	addi	a5,a5,1
    36f8:	0af406a3          	sb	a5,173(s0)
    36fc:	bde1                	j	35d4 <tcp_slowtmr+0xda>
    36fe:	4725                	li	a4,9
    3700:	f0e796e3          	bne	a5,a4,360c <tcp_slowtmr+0x112>
    3704:	5858                	lw	a4,52(s0)
    3706:	00092783          	lw	a5,0(s2)
    370a:	8f99                	sub	a5,a5,a4
    370c:	07800713          	li	a4,120
    3710:	bde5                	j	3608 <tcp_slowtmr+0x10e>
    3712:	00fa2023          	sw	a5,0(s4)
    3716:	bf01                	j	3626 <tcp_slowtmr+0x12c>
    3718:	03844783          	lbu	a5,56(s0)
    371c:	03944703          	lbu	a4,57(s0)
    3720:	0785                	addi	a5,a5,1
    3722:	0ff7f793          	andi	a5,a5,255
    3726:	02f40c23          	sb	a5,56(s0)
    372a:	00e7ea63          	bltu	a5,a4,373e <tcp_slowtmr+0x244>
    372e:	09442783          	lw	a5,148(s0)
    3732:	02040c23          	sb	zero,56(s0)
    3736:	e799                	bnez	a5,3744 <tcp_slowtmr+0x24a>
    3738:	8522                	mv	a0,s0
    373a:	301000ef          	jal	ra,423a <tcp_output>
    373e:	8aa2                	mv	s5,s0
    3740:	4440                	lw	s0,12(s0)
    3742:	b3fd                	j	3530 <tcp_slowtmr+0x36>
    3744:	4c08                	lw	a0,24(s0)
    3746:	85a2                	mv	a1,s0
    3748:	9782                	jalr	a5
    374a:	d57d                	beqz	a0,3738 <tcp_slowtmr+0x23e>
    374c:	bfcd                	j	373e <tcp_slowtmr+0x244>
    374e:	8522                	mv	a0,s0
    3750:	316020ef          	jal	ra,5a66 <LwipRemoveTcpPcb>
    3754:	8522                	mv	a0,s0
    3756:	d59ff0ef          	jal	ra,34ae <tcp_pcb_purge>
    375a:	00c42903          	lw	s2,12(s0)
    375e:	85a2                	mv	a1,s0
    3760:	4509                	li	a0,2
    3762:	0124a023          	sw	s2,0(s1)
    3766:	844a                	mv	s0,s2
    3768:	e28ff0ef          	jal	ra,2d90 <memp_free>
    376c:	b3f9                	j	353a <tcp_slowtmr+0x40>

0000376e <RemoveTimeWaiTCP>:
RemoveTimeWaiTCP():
    376e:	ac3fc2ef          	jal	t0,230 <__riscv_save_0>
    3772:	8f81a403          	lw	s0,-1800(gp) # 20000168 <tcp_tw_pcbs>
    3776:	8f818493          	addi	s1,gp,-1800 # 20000168 <tcp_tw_pcbs>
    377a:	e019                	bnez	s0,3780 <RemoveTimeWaiTCP+0x12>
    377c:	ad9fc06f          	j	254 <__riscv_restore_0>
    3780:	8522                	mv	a0,s0
    3782:	2e4020ef          	jal	ra,5a66 <LwipRemoveTcpPcb>
    3786:	8522                	mv	a0,s0
    3788:	d27ff0ef          	jal	ra,34ae <tcp_pcb_purge>
    378c:	00c42903          	lw	s2,12(s0)
    3790:	85a2                	mv	a1,s0
    3792:	4509                	li	a0,2
    3794:	0124a023          	sw	s2,0(s1)
    3798:	844a                	mv	s0,s2
    379a:	df6ff0ef          	jal	ra,2d90 <memp_free>
    379e:	bff1                	j	377a <RemoveTimeWaiTCP+0xc>

000037a0 <tcp_pcb_remove>:
tcp_pcb_remove():
    37a0:	a91fc2ef          	jal	t0,230 <__riscv_save_0>
    37a4:	411c                	lw	a5,0(a0)
    37a6:	842e                	mv	s0,a1
    37a8:	04b79063          	bne	a5,a1,37e8 <tcp_pcb_remove+0x48>
    37ac:	45dc                	lw	a5,12(a1)
    37ae:	c11c                	sw	a5,0(a0)
    37b0:	00042623          	sw	zero,12(s0)
    37b4:	8522                	mv	a0,s0
    37b6:	cf9ff0ef          	jal	ra,34ae <tcp_pcb_purge>
    37ba:	481c                	lw	a5,16(s0)
    37bc:	4729                	li	a4,10
    37be:	02e78163          	beq	a5,a4,37e0 <tcp_pcb_remove+0x40>
    37c2:	4705                	li	a4,1
    37c4:	00e78e63          	beq	a5,a4,37e0 <tcp_pcb_remove+0x40>
    37c8:	02644783          	lbu	a5,38(s0)
    37cc:	0017f713          	andi	a4,a5,1
    37d0:	cb01                	beqz	a4,37e0 <tcp_pcb_remove+0x40>
    37d2:	0027e793          	ori	a5,a5,2
    37d6:	02f40323          	sb	a5,38(s0)
    37da:	8522                	mv	a0,s0
    37dc:	25f000ef          	jal	ra,423a <tcp_output>
    37e0:	00042823          	sw	zero,16(s0)
    37e4:	a71fc06f          	j	254 <__riscv_restore_0>
    37e8:	8ef1aa23          	sw	a5,-1804(gp) # 20000164 <tcp_tmp_pcb>
    37ec:	4681                	li	a3,0
    37ee:	8f418713          	addi	a4,gp,-1804 # 20000164 <tcp_tmp_pcb>
    37f2:	e789                	bnez	a5,37fc <tcp_pcb_remove+0x5c>
    37f4:	ded5                	beqz	a3,37b0 <tcp_pcb_remove+0x10>
    37f6:	00072023          	sw	zero,0(a4)
    37fa:	bf5d                	j	37b0 <tcp_pcb_remove+0x10>
    37fc:	47d0                	lw	a2,12(a5)
    37fe:	00861763          	bne	a2,s0,380c <tcp_pcb_remove+0x6c>
    3802:	c291                	beqz	a3,3806 <tcp_pcb_remove+0x66>
    3804:	c31c                	sw	a5,0(a4)
    3806:	4458                	lw	a4,12(s0)
    3808:	c7d8                	sw	a4,12(a5)
    380a:	b75d                	j	37b0 <tcp_pcb_remove+0x10>
    380c:	4685                	li	a3,1
    380e:	87b2                	mv	a5,a2
    3810:	b7cd                	j	37f2 <tcp_pcb_remove+0x52>

00003812 <tcp_close>:
tcp_close():
    3812:	491c                	lw	a5,16(a0)
    3814:	471d                	li	a4,7
    3816:	0af76563          	bltu	a4,a5,38c0 <tcp_close+0xae>
    381a:	a17fc2ef          	jal	t0,230 <__riscv_save_0>
    381e:	6729                	lui	a4,0xa
    3820:	078a                	slli	a5,a5,0x2
    3822:	11470713          	addi	a4,a4,276 # a114 <MemSize+0x1c>
    3826:	97ba                	add	a5,a5,a4
    3828:	439c                	lw	a5,0(a5)
    382a:	842a                	mv	s0,a0
    382c:	8782                	jr	a5
    382e:	238020ef          	jal	ra,5a66 <LwipRemoveTcpPcb>
    3832:	8e418713          	addi	a4,gp,-1820 # 20000154 <tcp_bound_pcbs>
    3836:	431c                	lw	a5,0(a4)
    3838:	00879963          	bne	a5,s0,384a <tcp_close+0x38>
    383c:	445c                	lw	a5,12(s0)
    383e:	c31c                	sw	a5,0(a4)
    3840:	00042623          	sw	zero,12(s0)
    3844:	85a2                	mv	a1,s0
    3846:	4509                	li	a0,2
    3848:	a83d                	j	3886 <tcp_close+0x74>
    384a:	8ef1aa23          	sw	a5,-1804(gp) # 20000164 <tcp_tmp_pcb>
    384e:	4681                	li	a3,0
    3850:	8f418713          	addi	a4,gp,-1804 # 20000164 <tcp_tmp_pcb>
    3854:	e789                	bnez	a5,385e <tcp_close+0x4c>
    3856:	d6ed                	beqz	a3,3840 <tcp_close+0x2e>
    3858:	00072023          	sw	zero,0(a4)
    385c:	b7d5                	j	3840 <tcp_close+0x2e>
    385e:	47d0                	lw	a2,12(a5)
    3860:	00861763          	bne	a2,s0,386e <tcp_close+0x5c>
    3864:	c291                	beqz	a3,3868 <tcp_close+0x56>
    3866:	c31c                	sw	a5,0(a4)
    3868:	4458                	lw	a4,12(s0)
    386a:	c7d8                	sw	a4,12(a5)
    386c:	bfd1                	j	3840 <tcp_close+0x2e>
    386e:	4685                	li	a3,1
    3870:	87b2                	mv	a5,a2
    3872:	b7cd                	j	3854 <tcp_close+0x42>
    3874:	1f2020ef          	jal	ra,5a66 <LwipRemoveTcpPcb>
    3878:	85a2                	mv	a1,s0
    387a:	8e818513          	addi	a0,gp,-1816 # 20000158 <tcp_listen_pcbs>
    387e:	f23ff0ef          	jal	ra,37a0 <tcp_pcb_remove>
    3882:	85a2                	mv	a1,s0
    3884:	450d                	li	a0,3
    3886:	d0aff0ef          	jal	ra,2d90 <memp_free>
    388a:	4501                	li	a0,0
    388c:	a831                	j	38a8 <tcp_close+0x96>
    388e:	1d8020ef          	jal	ra,5a66 <LwipRemoveTcpPcb>
    3892:	85a2                	mv	a1,s0
    3894:	8e018513          	addi	a0,gp,-1824 # 20000150 <tcp_active_pcbs>
    3898:	f09ff0ef          	jal	ra,37a0 <tcp_pcb_remove>
    389c:	b765                	j	3844 <tcp_close+0x32>
    389e:	4585                	li	a1,1
    38a0:	0e9000ef          	jal	ra,4188 <tcp_send_ctrl>
    38a4:	4795                	li	a5,5
    38a6:	c901                	beqz	a0,38b6 <tcp_close+0xa4>
    38a8:	9adfc06f          	j	254 <__riscv_restore_0>
    38ac:	4585                	li	a1,1
    38ae:	0db000ef          	jal	ra,4188 <tcp_send_ctrl>
    38b2:	f97d                	bnez	a0,38a8 <tcp_close+0x96>
    38b4:	47a5                	li	a5,9
    38b6:	c81c                	sw	a5,16(s0)
    38b8:	8522                	mv	a0,s0
    38ba:	181000ef          	jal	ra,423a <tcp_output>
    38be:	b7f1                	j	388a <tcp_close+0x78>
    38c0:	4501                	li	a0,0
    38c2:	8082                	ret

000038c4 <tcp_recv_null>:
tcp_recv_null():
    38c4:	96dfc2ef          	jal	t0,230 <__riscv_save_0>
    38c8:	1141                	addi	sp,sp,-16
    38ca:	852e                	mv	a0,a1
    38cc:	ce11                	beqz	a2,38e8 <tcp_recv_null+0x24>
    38ce:	260e                	lhu	a1,8(a2)
    38d0:	c632                	sw	a2,12(sp)
    38d2:	b09ff0ef          	jal	ra,33da <tcp_recved>
    38d6:	4632                	lw	a2,12(sp)
    38d8:	8532                	mv	a0,a2
    38da:	e84ff0ef          	jal	ra,2f5e <pbuf_free>
    38de:	4781                	li	a5,0
    38e0:	853e                	mv	a0,a5
    38e2:	0141                	addi	sp,sp,16
    38e4:	971fc06f          	j	254 <__riscv_restore_0>
    38e8:	4781                	li	a5,0
    38ea:	fafd                	bnez	a3,38e0 <tcp_recv_null+0x1c>
    38ec:	f27ff0ef          	jal	ra,3812 <tcp_close>
    38f0:	87aa                	mv	a5,a0
    38f2:	b7fd                	j	38e0 <tcp_recv_null+0x1c>

000038f4 <tcp_fasttmr>:
tcp_fasttmr():
    38f4:	93dfc2ef          	jal	t0,230 <__riscv_save_0>
    38f8:	8e01a403          	lw	s0,-1824(gp) # 20000150 <tcp_active_pcbs>
    38fc:	06500493          	li	s1,101
    3900:	e019                	bnez	s0,3906 <tcp_fasttmr+0x12>
    3902:	953fc06f          	j	254 <__riscv_restore_0>
    3906:	08442603          	lw	a2,132(s0)
    390a:	ca19                	beqz	a2,3920 <tcp_fasttmr+0x2c>
    390c:	08c42783          	lw	a5,140(s0)
    3910:	4681                	li	a3,0
    3912:	85a2                	mv	a1,s0
    3914:	cf8d                	beqz	a5,394e <tcp_fasttmr+0x5a>
    3916:	4c08                	lw	a0,24(s0)
    3918:	9782                	jalr	a5
    391a:	e119                	bnez	a0,3920 <tcp_fasttmr+0x2c>
    391c:	08042223          	sw	zero,132(s0)
    3920:	14fd                	addi	s1,s1,-1
    3922:	0ff4f493          	andi	s1,s1,255
    3926:	dcf1                	beqz	s1,3902 <tcp_fasttmr+0xe>
    3928:	02644783          	lbu	a5,38(s0)
    392c:	0017f713          	andi	a4,a5,1
    3930:	cf09                	beqz	a4,394a <tcp_fasttmr+0x56>
    3932:	0027e793          	ori	a5,a5,2
    3936:	02f40323          	sb	a5,38(s0)
    393a:	8522                	mv	a0,s0
    393c:	0ff000ef          	jal	ra,423a <tcp_output>
    3940:	02644783          	lbu	a5,38(s0)
    3944:	9bf1                	andi	a5,a5,-4
    3946:	02f40323          	sb	a5,38(s0)
    394a:	4440                	lw	s0,12(s0)
    394c:	bf55                	j	3900 <tcp_fasttmr+0xc>
    394e:	4501                	li	a0,0
    3950:	f75ff0ef          	jal	ra,38c4 <tcp_recv_null>
    3954:	b7d9                	j	391a <tcp_fasttmr+0x26>

00003956 <tcp_tmr>:
tcp_tmr():
    3956:	8dbfc2ef          	jal	t0,230 <__riscv_save_0>
    395a:	f9bff0ef          	jal	ra,38f4 <tcp_fasttmr>
    395e:	8f018713          	addi	a4,gp,-1808 # 20000160 <tcp_timer>
    3962:	231c                	lbu	a5,0(a4)
    3964:	0785                	addi	a5,a5,1
    3966:	0ff7f793          	andi	a5,a5,255
    396a:	a31c                	sb	a5,0(a4)
    396c:	8b85                	andi	a5,a5,1
    396e:	c399                	beqz	a5,3974 <tcp_tmr+0x1e>
    3970:	b8bff0ef          	jal	ra,34fa <tcp_slowtmr>
    3974:	8e1fc06f          	j	254 <__riscv_restore_0>

00003978 <tcp_abandon>:
tcp_abandon():
    3978:	891fc2ef          	jal	t0,208 <__riscv_save_10>
    397c:	4918                	lw	a4,16(a0)
    397e:	47a9                	li	a5,10
    3980:	1141                	addi	sp,sp,-16
    3982:	842a                	mv	s0,a0
    3984:	00f71e63          	bne	a4,a5,39a0 <tcp_abandon+0x28>
    3988:	85aa                	mv	a1,a0
    398a:	8f818513          	addi	a0,gp,-1800 # 20000168 <tcp_tw_pcbs>
    398e:	e13ff0ef          	jal	ra,37a0 <tcp_pcb_remove>
    3992:	85a2                	mv	a1,s0
    3994:	4509                	li	a0,2
    3996:	bfaff0ef          	jal	ra,2d90 <memp_free>
    399a:	0141                	addi	sp,sp,16
    399c:	8a5fc06f          	j	240 <__riscv_restore_10>
    39a0:	411c                	lw	a5,0(a0)
    39a2:	8b2e                	mv	s6,a1
    39a4:	05c52903          	lw	s2,92(a0)
    39a8:	c63e                	sw	a5,12(sp)
    39aa:	415c                	lw	a5,4(a0)
    39ac:	02852983          	lw	s3,40(a0)
    39b0:	01c55a03          	lhu	s4,28(a0)
    39b4:	c43e                	sw	a5,8(sp)
    39b6:	02455a83          	lhu	s5,36(a0)
    39ba:	09852483          	lw	s1,152(a0)
    39be:	01852b83          	lw	s7,24(a0)
    39c2:	0a4020ef          	jal	ra,5a66 <LwipRemoveTcpPcb>
    39c6:	8e018513          	addi	a0,gp,-1824 # 20000150 <tcp_active_pcbs>
    39ca:	85a2                	mv	a1,s0
    39cc:	dd5ff0ef          	jal	ra,37a0 <tcp_pcb_remove>
    39d0:	5c68                	lw	a0,124(s0)
    39d2:	c119                	beqz	a0,39d8 <tcp_abandon+0x60>
    39d4:	a77ff0ef          	jal	ra,344a <tcp_segs_free>
    39d8:	5c28                	lw	a0,120(s0)
    39da:	c119                	beqz	a0,39e0 <tcp_abandon+0x68>
    39dc:	a6fff0ef          	jal	ra,344a <tcp_segs_free>
    39e0:	08042503          	lw	a0,128(s0)
    39e4:	c119                	beqz	a0,39ea <tcp_abandon+0x72>
    39e6:	a65ff0ef          	jal	ra,344a <tcp_segs_free>
    39ea:	85a2                	mv	a1,s0
    39ec:	4509                	li	a0,2
    39ee:	ba2ff0ef          	jal	ra,2d90 <memp_free>
    39f2:	c481                	beqz	s1,39fa <tcp_abandon+0x82>
    39f4:	55ed                	li	a1,-5
    39f6:	855e                	mv	a0,s7
    39f8:	9482                	jalr	s1
    39fa:	fa0b00e3          	beqz	s6,399a <tcp_abandon+0x22>
    39fe:	87d6                	mv	a5,s5
    3a00:	8752                	mv	a4,s4
    3a02:	0034                	addi	a3,sp,8
    3a04:	0070                	addi	a2,sp,12
    3a06:	85ce                	mv	a1,s3
    3a08:	854a                	mv	a0,s2
    3a0a:	38b000ef          	jal	ra,4594 <tcp_rst>
    3a0e:	b771                	j	399a <tcp_abandon+0x22>

00003a10 <tcp_next_iss>:
tcp_next_iss():
    3a10:	82c18793          	addi	a5,gp,-2004 # 2000009c <iss.6791>
    3a14:	4388                	lw	a0,0(a5)
    3a16:	8ec1a703          	lw	a4,-1812(gp) # 2000015c <tcp_ticks>
    3a1a:	953a                	add	a0,a0,a4
    3a1c:	c388                	sw	a0,0(a5)
    3a1e:	8082                	ret

00003a20 <tcp_alloc>:
tcp_alloc():
    3a20:	ff6fc2ef          	jal	t0,216 <__riscv_save_4>
    3a24:	84aa                	mv	s1,a0
    3a26:	4509                	li	a0,2
    3a28:	b48ff0ef          	jal	ra,2d70 <memp_malloc>
    3a2c:	2001e937          	lui	s2,0x2001e
    3a30:	e9090913          	addi	s2,s2,-368 # 2001de90 <WCHCfg>
    3a34:	842a                	mv	s0,a0
    3a36:	e125                	bnez	a0,3a96 <tcp_alloc+0x76>
    3a38:	01092783          	lw	a5,16(s2)
    3a3c:	8b91                	andi	a5,a5,4
    3a3e:	e789                	bnez	a5,3a48 <tcp_alloc+0x28>
    3a40:	4401                	li	s0,0
    3a42:	8522                	mv	a0,s0
    3a44:	807fc06f          	j	24a <__riscv_restore_4>
    3a48:	8f81a783          	lw	a5,-1800(gp) # 20000168 <tcp_tw_pcbs>
    3a4c:	8ec1a603          	lw	a2,-1812(gp) # 2000015c <tcp_ticks>
    3a50:	4501                	li	a0,0
    3a52:	4681                	li	a3,0
    3a54:	8ec18993          	addi	s3,gp,-1812 # 2000015c <tcp_ticks>
    3a58:	ebe1                	bnez	a5,3b28 <tcp_alloc+0x108>
    3a5a:	c501                	beqz	a0,3a62 <tcp_alloc+0x42>
    3a5c:	4585                	li	a1,1
    3a5e:	f1bff0ef          	jal	ra,3978 <tcp_abandon>
    3a62:	4509                	li	a0,2
    3a64:	b0cff0ef          	jal	ra,2d70 <memp_malloc>
    3a68:	842a                	mv	s0,a0
    3a6a:	e515                	bnez	a0,3a96 <tcp_alloc+0x76>
    3a6c:	8e01a783          	lw	a5,-1824(gp) # 20000150 <tcp_active_pcbs>
    3a70:	0009a503          	lw	a0,0(s3)
    3a74:	14fd                	addi	s1,s1,-1
    3a76:	0ff4f493          	andi	s1,s1,255
    3a7a:	07f00613          	li	a2,127
    3a7e:	4581                	li	a1,0
    3a80:	efcd                	bnez	a5,3b3a <tcp_alloc+0x11a>
    3a82:	c409                	beqz	s0,3a8c <tcp_alloc+0x6c>
    3a84:	4585                	li	a1,1
    3a86:	8522                	mv	a0,s0
    3a88:	ef1ff0ef          	jal	ra,3978 <tcp_abandon>
    3a8c:	4509                	li	a0,2
    3a8e:	ae2ff0ef          	jal	ra,2d70 <memp_malloc>
    3a92:	842a                	mv	s0,a0
    3a94:	d555                	beqz	a0,3a40 <tcp_alloc+0x20>
    3a96:	0b000613          	li	a2,176
    3a9a:	4581                	li	a1,0
    3a9c:	8522                	mv	a0,s0
    3a9e:	fc2fc0ef          	jal	ra,260 <memset>
    3aa2:	04000793          	li	a5,64
    3aa6:	a85c                	sb	a5,20(s0)
    3aa8:	6789                	lui	a5,0x2
    3aaa:	06f41923          	sh	a5,114(s0)
    3aae:	00492783          	lw	a5,4(s2)
    3ab2:	01079713          	slli	a4,a5,0x10
    3ab6:	8341                	srli	a4,a4,0x10
    3ab8:	b45a                	sh	a4,44(s0)
    3aba:	b47a                	sh	a4,46(s0)
    3abc:	7761                	lui	a4,0xffff8
    3abe:	a43a                	sh	a4,10(s0)
    3ac0:	21800713          	li	a4,536
    3ac4:	00f77463          	bgeu	a4,a5,3acc <tcp_alloc+0xac>
    3ac8:	21800793          	li	a5,536
    3acc:	bc5e                	sh	a5,60(s0)
    3ace:	000307b7          	lui	a5,0x30
    3ad2:	c43c                	sw	a5,72(s0)
    3ad4:	478d                	li	a5,3
    3ad6:	04f41623          	sh	a5,76(s0)
    3ada:	57fd                	li	a5,-1
    3adc:	bc3e                	sh	a5,58(s0)
    3ade:	4785                	li	a5,1
    3ae0:	04f41b23          	sh	a5,86(s0)
    3ae4:	f2dff0ef          	jal	ra,3a10 <tcp_next_iss>
    3ae8:	8ec1a783          	lw	a5,-1812(gp) # 2000015c <tcp_ticks>
    3aec:	d428                	sw	a0,104(s0)
    3aee:	cc68                	sw	a0,92(s0)
    3af0:	d85c                	sw	a5,52(s0)
    3af2:	000047b7          	lui	a5,0x4
    3af6:	8c478793          	addi	a5,a5,-1852 # 38c4 <tcp_recv_null>
    3afa:	08f42623          	sw	a5,140(s0)
    3afe:	2001e7b7          	lui	a5,0x2001e
    3b02:	e407a703          	lw	a4,-448(a5) # 2001de40 <KeepLiveCfg>
    3b06:	e4078793          	addi	a5,a5,-448
    3b0a:	c828                	sw	a0,80(s0)
    3b0c:	08e42e23          	sw	a4,156(s0)
    3b10:	43d8                	lw	a4,4(a5)
    3b12:	479c                	lw	a5,8(a5)
    3b14:	d468                	sw	a0,108(s0)
    3b16:	02040c23          	sb	zero,56(s0)
    3b1a:	0ae42023          	sw	a4,160(s0)
    3b1e:	0af42223          	sw	a5,164(s0)
    3b22:	0a0406a3          	sb	zero,173(s0)
    3b26:	bf31                	j	3a42 <tcp_alloc+0x22>
    3b28:	5bd8                	lw	a4,52(a5)
    3b2a:	40e60733          	sub	a4,a2,a4
    3b2e:	00d76463          	bltu	a4,a3,3b36 <tcp_alloc+0x116>
    3b32:	86ba                	mv	a3,a4
    3b34:	853e                	mv	a0,a5
    3b36:	47dc                	lw	a5,12(a5)
    3b38:	b705                	j	3a58 <tcp_alloc+0x38>
    3b3a:	2bd4                	lbu	a3,20(a5)
    3b3c:	00d4ec63          	bltu	s1,a3,3b54 <tcp_alloc+0x134>
    3b40:	00d66a63          	bltu	a2,a3,3b54 <tcp_alloc+0x134>
    3b44:	5bd8                	lw	a4,52(a5)
    3b46:	40e50733          	sub	a4,a0,a4
    3b4a:	00b76563          	bltu	a4,a1,3b54 <tcp_alloc+0x134>
    3b4e:	8636                	mv	a2,a3
    3b50:	85ba                	mv	a1,a4
    3b52:	843e                	mv	s0,a5
    3b54:	47dc                	lw	a5,12(a5)
    3b56:	b72d                	j	3a80 <tcp_alloc+0x60>

00003b58 <tcp_new>:
tcp_new():
    3b58:	ed8fc2ef          	jal	t0,230 <__riscv_save_0>
    3b5c:	04000513          	li	a0,64
    3b60:	ec1ff0ef          	jal	ra,3a20 <tcp_alloc>
    3b64:	ef0fc06f          	j	254 <__riscv_restore_0>

00003b68 <tcp_eff_send_mss>:
tcp_eff_send_mss():
    3b68:	ec8fc2ef          	jal	t0,230 <__riscv_save_0>
    3b6c:	842a                	mv	s0,a0
    3b6e:	852e                	mv	a0,a1
    3b70:	6c5020ef          	jal	ra,6a34 <ip_route>
    3b74:	cd11                	beqz	a0,3b90 <tcp_eff_send_mss+0x28>
    3b76:	351e                	lhu	a5,40(a0)
    3b78:	cf81                	beqz	a5,3b90 <tcp_eff_send_mss+0x28>
    3b7a:	fd878793          	addi	a5,a5,-40
    3b7e:	873e                	mv	a4,a5
    3b80:	07c2                	slli	a5,a5,0x10
    3b82:	83c1                	srli	a5,a5,0x10
    3b84:	00f47363          	bgeu	s0,a5,3b8a <tcp_eff_send_mss+0x22>
    3b88:	8722                	mv	a4,s0
    3b8a:	01071413          	slli	s0,a4,0x10
    3b8e:	8041                	srli	s0,s0,0x10
    3b90:	8522                	mv	a0,s0
    3b92:	ec2fc06f          	j	254 <__riscv_restore_0>

00003b96 <tcp_connect>:
tcp_connect():
    3b96:	e80fc2ef          	jal	t0,216 <__riscv_save_4>
    3b9a:	4918                	lw	a4,16(a0)
    3b9c:	54cd                	li	s1,-13
    3b9e:	e75d                	bnez	a4,3c4c <tcp_connect+0xb6>
    3ba0:	89ae                	mv	s3,a1
    3ba2:	54dd                	li	s1,-9
    3ba4:	c5c5                	beqz	a1,3c4c <tcp_connect+0xb6>
    3ba6:	842a                	mv	s0,a0
    3ba8:	8932                	mv	s2,a2
    3baa:	0511                	addi	a0,a0,4
    3bac:	4611                	li	a2,4
    3bae:	84b6                	mv	s1,a3
    3bb0:	150050ef          	jal	ra,8d00 <memcpy>
    3bb4:	2c5e                	lhu	a5,28(s0)
    3bb6:	03241223          	sh	s2,36(s0)
    3bba:	e781                	bnez	a5,3bc2 <tcp_connect+0x2c>
    3bbc:	e6aff0ef          	jal	ra,3226 <tcp_new_port>
    3bc0:	ac4a                	sh	a0,28(s0)
    3bc2:	e4fff0ef          	jal	ra,3a10 <tcp_next_iss>
    3bc6:	2001e7b7          	lui	a5,0x2001e
    3bca:	cc68                	sw	a0,92(s0)
    3bcc:	157d                	addi	a0,a0,-1
    3bce:	c828                	sw	a0,80(s0)
    3bd0:	d468                	sw	a0,108(s0)
    3bd2:	e947a503          	lw	a0,-364(a5) # 2001de94 <WCHCfg+0x4>
    3bd6:	02042423          	sw	zero,40(s0)
    3bda:	02042823          	sw	zero,48(s0)
    3bde:	01051793          	slli	a5,a0,0x10
    3be2:	83c1                	srli	a5,a5,0x10
    3be4:	b45e                	sh	a5,44(s0)
    3be6:	b47e                	sh	a5,46(s0)
    3be8:	06f41023          	sh	a5,96(s0)
    3bec:	21800793          	li	a5,536
    3bf0:	00a7f463          	bgeu	a5,a0,3bf8 <tcp_connect+0x62>
    3bf4:	21800513          	li	a0,536
    3bf8:	0542                	slli	a0,a0,0x10
    3bfa:	8141                	srli	a0,a0,0x10
    3bfc:	bc4a                	sh	a0,60(s0)
    3bfe:	85ce                	mv	a1,s3
    3c00:	f69ff0ef          	jal	ra,3b68 <tcp_eff_send_mss>
    3c04:	4785                	li	a5,1
    3c06:	04f41b23          	sh	a5,86(s0)
    3c0a:	47a9                	li	a5,10
    3c0c:	bc4a                	sh	a0,60(s0)
    3c0e:	02f50533          	mul	a0,a0,a5
    3c12:	4789                	li	a5,2
    3c14:	8e418713          	addi	a4,gp,-1820 # 20000154 <tcp_bound_pcbs>
    3c18:	c81c                	sw	a5,16(s0)
    3c1a:	431c                	lw	a5,0(a4)
    3c1c:	08942823          	sw	s1,144(s0)
    3c20:	04a41c23          	sh	a0,88(s0)
    3c24:	02879763          	bne	a5,s0,3c52 <tcp_connect+0xbc>
    3c28:	445c                	lw	a5,12(s0)
    3c2a:	c31c                	sw	a5,0(a4)
    3c2c:	8e018793          	addi	a5,gp,-1824 # 20000150 <tcp_active_pcbs>
    3c30:	4398                	lw	a4,0(a5)
    3c32:	4689                	li	a3,2
    3c34:	c380                	sw	s0,0(a5)
    3c36:	c458                	sw	a4,12(s0)
    3c38:	4785                	li	a5,1
    3c3a:	4701                	li	a4,0
    3c3c:	4601                	li	a2,0
    3c3e:	4581                	li	a1,0
    3c40:	8522                	mv	a0,s0
    3c42:	2219                	jal	3d48 <tcp_enqueue>
    3c44:	84aa                	mv	s1,a0
    3c46:	e119                	bnez	a0,3c4c <tcp_connect+0xb6>
    3c48:	8522                	mv	a0,s0
    3c4a:	2bc5                	jal	423a <tcp_output>
    3c4c:	8526                	mv	a0,s1
    3c4e:	dfcfc06f          	j	24a <__riscv_restore_4>
    3c52:	8ef1aa23          	sw	a5,-1804(gp) # 20000164 <tcp_tmp_pcb>
    3c56:	4681                	li	a3,0
    3c58:	8f418713          	addi	a4,gp,-1804 # 20000164 <tcp_tmp_pcb>
    3c5c:	e789                	bnez	a5,3c66 <tcp_connect+0xd0>
    3c5e:	d6f9                	beqz	a3,3c2c <tcp_connect+0x96>
    3c60:	00072023          	sw	zero,0(a4) # ffff8000 <_eusrstack+0xdffd8000>
    3c64:	b7e1                	j	3c2c <tcp_connect+0x96>
    3c66:	47d0                	lw	a2,12(a5)
    3c68:	00861763          	bne	a2,s0,3c76 <tcp_connect+0xe0>
    3c6c:	c291                	beqz	a3,3c70 <tcp_connect+0xda>
    3c6e:	c31c                	sw	a5,0(a4)
    3c70:	4458                	lw	a4,12(s0)
    3c72:	c7d8                	sw	a4,12(a5)
    3c74:	bf65                	j	3c2c <tcp_connect+0x96>
    3c76:	4685                	li	a3,1
    3c78:	87b2                	mv	a5,a2
    3c7a:	b7cd                	j	3c5c <tcp_connect+0xc6>

00003c7c <tcp_output_set_header.isra.0.constprop.1>:
tcp_output_set_header.isra.0.constprop.1():
    3c7c:	db4fc2ef          	jal	t0,230 <__riscv_save_0>
    3c80:	892a                	mv	s2,a0
    3c82:	2d4a                	lhu	a0,28(a0)
    3c84:	1141                	addi	sp,sp,-16
    3c86:	842e                	mv	s0,a1
    3c88:	c632                	sw	a2,12(sp)
    3c8a:	faafe0ef          	jal	ra,2434 <htons>
    3c8e:	a008                	sb	a0,0(s0)
    3c90:	8121                	srli	a0,a0,0x8
    3c92:	b008                	sb	a0,1(s0)
    3c94:	02495503          	lhu	a0,36(s2)
    3c98:	f9cfe0ef          	jal	ra,2434 <htons>
    3c9c:	4632                	lw	a2,12(sp)
    3c9e:	a028                	sb	a0,2(s0)
    3ca0:	8121                	srli	a0,a0,0x8
    3ca2:	b028                	sb	a0,3(s0)
    3ca4:	00865793          	srli	a5,a2,0x8
    3ca8:	02892503          	lw	a0,40(s2)
    3cac:	a050                	sb	a2,4(s0)
    3cae:	b05c                	sb	a5,5(s0)
    3cb0:	01065793          	srli	a5,a2,0x10
    3cb4:	8261                	srli	a2,a2,0x18
    3cb6:	b070                	sb	a2,7(s0)
    3cb8:	a07c                	sb	a5,6(s0)
    3cba:	f96fe0ef          	jal	ra,2450 <htonl>
    3cbe:	00855793          	srli	a5,a0,0x8
    3cc2:	a408                	sb	a0,8(s0)
    3cc4:	b41c                	sb	a5,9(s0)
    3cc6:	3444                	lbu	s1,13(s0)
    3cc8:	01055793          	srli	a5,a0,0x10
    3ccc:	8161                	srli	a0,a0,0x18
    3cce:	b428                	sb	a0,11(s0)
    3cd0:	2448                	lbu	a0,12(s0)
    3cd2:	04a2                	slli	s1,s1,0x8
    3cd4:	a43c                	sb	a5,10(s0)
    3cd6:	8cc9                	or	s1,s1,a0
    3cd8:	6541                	lui	a0,0x10
    3cda:	fc050513          	addi	a0,a0,-64 # ffc0 <_data_lma+0x5d80>
    3cde:	f56fe0ef          	jal	ra,2434 <htons>
    3ce2:	8ce9                	and	s1,s1,a0
    3ce4:	4541                	li	a0,16
    3ce6:	f4efe0ef          	jal	ra,2434 <htons>
    3cea:	8d45                	or	a0,a0,s1
    3cec:	0542                	slli	a0,a0,0x10
    3cee:	8141                	srli	a0,a0,0x10
    3cf0:	a448                	sb	a0,12(s0)
    3cf2:	8121                	srli	a0,a0,0x8
    3cf4:	b448                	sb	a0,13(s0)
    3cf6:	02e95503          	lhu	a0,46(s2)
    3cfa:	f3afe0ef          	jal	ra,2434 <htons>
    3cfe:	a468                	sb	a0,14(s0)
    3d00:	345c                	lbu	a5,13(s0)
    3d02:	8121                	srli	a0,a0,0x8
    3d04:	b468                	sb	a0,15(s0)
    3d06:	2448                	lbu	a0,12(s0)
    3d08:	07a2                	slli	a5,a5,0x8
    3d0a:	00040923          	sb	zero,18(s0)
    3d0e:	000409a3          	sb	zero,19(s0)
    3d12:	8d5d                	or	a0,a0,a5
    3d14:	f2efe0ef          	jal	ra,2442 <ntohs>
    3d18:	6795                	lui	a5,0x5
    3d1a:	03f57513          	andi	a0,a0,63
    3d1e:	8d5d                	or	a0,a0,a5
    3d20:	f14fe0ef          	jal	ra,2434 <htons>
    3d24:	02e95703          	lhu	a4,46(s2)
    3d28:	02892783          	lw	a5,40(s2)
    3d2c:	a448                	sb	a0,12(s0)
    3d2e:	8121                	srli	a0,a0,0x8
    3d30:	b448                	sb	a0,13(s0)
    3d32:	00040823          	sb	zero,16(s0)
    3d36:	000408a3          	sb	zero,17(s0)
    3d3a:	97ba                	add	a5,a5,a4
    3d3c:	02f92823          	sw	a5,48(s2)
    3d40:	8522                	mv	a0,s0
    3d42:	0141                	addi	sp,sp,16
    3d44:	d10fc06f          	j	254 <__riscv_restore_0>

00003d48 <tcp_enqueue>:
tcp_enqueue():
    3d48:	cb8fc2ef          	jal	t0,200 <__riscv_save_12>
    3d4c:	7179                	addi	sp,sp,-48
    3d4e:	c62e                	sw	a1,12(sp)
    3d50:	ca3a                	sw	a4,20(sp)
    3d52:	892a                	mv	s2,a0
    3d54:	8ab2                	mv	s5,a2
    3d56:	8b36                	mv	s6,a3
    3d58:	8dbe                	mv	s11,a5
    3d5a:	ee01                	bnez	a2,3d72 <tcp_enqueue+0x2a>
    3d5c:	0036f793          	andi	a5,a3,3
    3d60:	00fde7b3          	or	a5,s11,a5
    3d64:	5a59                	li	s4,-10
    3d66:	c391                	beqz	a5,3d6a <tcp_enqueue+0x22>
    3d68:	c18d                	beqz	a1,3d8a <tcp_enqueue+0x42>
    3d6a:	8552                	mv	a0,s4
    3d6c:	6145                	addi	sp,sp,48
    3d6e:	ccefc06f          	j	23c <__riscv_restore_12>
    3d72:	07255783          	lhu	a5,114(a0)
    3d76:	00c7fa63          	bgeu	a5,a2,3d8a <tcp_enqueue+0x42>
    3d7a:	02694783          	lbu	a5,38(s2)
    3d7e:	5a7d                	li	s4,-1
    3d80:	f807e793          	ori	a5,a5,-128
    3d84:	02f90323          	sb	a5,38(s2)
    3d88:	b7cd                	j	3d6a <tcp_enqueue+0x22>
    3d8a:	002d9c13          	slli	s8,s11,0x2
    3d8e:	002df793          	andi	a5,s11,2
    3d92:	004c7c13          	andi	s8,s8,4
    3d96:	4731                	li	a4,12
    3d98:	e391                	bnez	a5,3d9c <tcp_enqueue+0x54>
    3d9a:	4701                	li	a4,0
    3d9c:	06c92783          	lw	a5,108(s2)
    3da0:	9c3a                	add	s8,s8,a4
    3da2:	2001e737          	lui	a4,0x2001e
    3da6:	c43e                	sw	a5,8(sp)
    3da8:	e9070793          	addi	a5,a4,-368 # 2001de90 <WCHCfg>
    3dac:	43d4                	lw	a3,4(a5)
    3dae:	67a1                	lui	a5,0x8
    3db0:	07495483          	lhu	s1,116(s2)
    3db4:	02d7d7b3          	divu	a5,a5,a3
    3db8:	e9070713          	addi	a4,a4,-368
    3dbc:	ce3a                	sw	a4,28(sp)
    3dbe:	faf4fee3          	bgeu	s1,a5,3d7a <tcp_enqueue+0x32>
    3dc2:	6741                	lui	a4,0x10
    3dc4:	1771                	addi	a4,a4,-4
    3dc6:	fa976ae3          	bltu	a4,s1,3d7a <tcp_enqueue+0x32>
    3dca:	002c5793          	srli	a5,s8,0x2
    3dce:	010c1693          	slli	a3,s8,0x10
    3dd2:	82c1                	srli	a3,a3,0x10
    3dd4:	0ff7f793          	andi	a5,a5,255
    3dd8:	0795                	addi	a5,a5,5
    3dda:	c836                	sw	a3,16(sp)
    3ddc:	46d2                	lw	a3,20(sp)
    3dde:	07b2                	slli	a5,a5,0xc
    3de0:	07c2                	slli	a5,a5,0x10
    3de2:	d23a                	sw	a4,36(sp)
    3de4:	4d32                	lw	s10,12(sp)
    3de6:	010b1713          	slli	a4,s6,0x10
    3dea:	83c1                	srli	a5,a5,0x10
    3dec:	8a85                	andi	a3,a3,1
    3dee:	8341                	srli	a4,a4,0x10
    3df0:	cc3e                	sw	a5,24(sp)
    3df2:	8bd6                	mv	s7,s5
    3df4:	4981                	li	s3,0
    3df6:	4781                	li	a5,0
    3df8:	d036                	sw	a3,32(sp)
    3dfa:	d43a                	sw	a4,40(sp)
    3dfc:	03c95a03          	lhu	s4,60(s2)
    3e00:	418a0a33          	sub	s4,s4,s8
    3e04:	014bd363          	bge	s7,s4,3e0a <tcp_enqueue+0xc2>
    3e08:	8a5e                	mv	s4,s7
    3e0a:	4511                	li	a0,4
    3e0c:	d63e                	sw	a5,44(sp)
    3e0e:	010a1c93          	slli	s9,s4,0x10
    3e12:	f5ffe0ef          	jal	ra,2d70 <memp_malloc>
    3e16:	010cdc93          	srli	s9,s9,0x10
    3e1a:	842a                	mv	s0,a0
    3e1c:	18050563          	beqz	a0,3fa6 <tcp_enqueue+0x25e>
    3e20:	00052023          	sw	zero,0(a0)
    3e24:	00052223          	sw	zero,4(a0)
    3e28:	14098363          	beqz	s3,3f6e <tcp_enqueue+0x226>
    3e2c:	57b2                	lw	a5,44(sp)
    3e2e:	c388                	sw	a0,0(a5)
    3e30:	5782                	lw	a5,32(sp)
    3e32:	14078063          	beqz	a5,3f72 <tcp_enqueue+0x22a>
    3e36:	47c2                	lw	a5,16(sp)
    3e38:	4601                	li	a2,0
    3e3a:	4501                	li	a0,0
    3e3c:	00fc85b3          	add	a1,s9,a5
    3e40:	05c2                	slli	a1,a1,0x10
    3e42:	81c1                	srli	a1,a1,0x10
    3e44:	968ff0ef          	jal	ra,2fac <pbuf_alloc>
    3e48:	c048                	sw	a0,4(s0)
    3e4a:	14050e63          	beqz	a0,3fa6 <tcp_enqueue+0x25e>
    3e4e:	af4ff0ef          	jal	ra,3142 <pbuf_clen>
    3e52:	47b2                	lw	a5,12(sp)
    3e54:	94aa                	add	s1,s1,a0
    3e56:	04c2                	slli	s1,s1,0x10
    3e58:	80c1                	srli	s1,s1,0x10
    3e5a:	cb99                	beqz	a5,3e70 <tcp_enqueue+0x128>
    3e5c:	405c                	lw	a5,4(s0)
    3e5e:	85ea                	mv	a1,s10
    3e60:	43c8                	lw	a0,4(a5)
    3e62:	67c1                	lui	a5,0x10
    3e64:	17fd                	addi	a5,a5,-1
    3e66:	00fa7633          	and	a2,s4,a5
    3e6a:	9562                	add	a0,a0,s8
    3e6c:	695040ef          	jal	ra,8d00 <memcpy>
    3e70:	405c                	lw	a5,4(s0)
    3e72:	43dc                	lw	a5,4(a5)
    3e74:	c41c                	sw	a5,8(s0)
    3e76:	47f2                	lw	a5,28(sp)
    3e78:	6721                	lui	a4,0x8
    3e7a:	43dc                	lw	a5,4(a5)
    3e7c:	02f757b3          	divu	a5,a4,a5
    3e80:	1297e363          	bltu	a5,s1,3fa6 <tcp_enqueue+0x25e>
    3e84:	5792                	lw	a5,36(sp)
    3e86:	1297e063          	bltu	a5,s1,3fa6 <tcp_enqueue+0x25e>
    3e8a:	4048                	lw	a0,4(s0)
    3e8c:	01941623          	sh	s9,12(s0)
    3e90:	45d1                	li	a1,20
    3e92:	85eff0ef          	jal	ra,2ef0 <pbuf_header>
    3e96:	10051863          	bnez	a0,3fa6 <tcp_enqueue+0x25e>
    3e9a:	405c                	lw	a5,4(s0)
    3e9c:	01c95503          	lhu	a0,28(s2)
    3ea0:	419b8bb3          	sub	s7,s7,s9
    3ea4:	43dc                	lw	a5,4(a5)
    3ea6:	0bc2                	slli	s7,s7,0x10
    3ea8:	010bdb93          	srli	s7,s7,0x10
    3eac:	c81c                	sw	a5,16(s0)
    3eae:	d63e                	sw	a5,44(sp)
    3eb0:	d84fe0ef          	jal	ra,2434 <htons>
    3eb4:	57b2                	lw	a5,44(sp)
    3eb6:	a388                	sb	a0,0(a5)
    3eb8:	8121                	srli	a0,a0,0x8
    3eba:	b388                	sb	a0,1(a5)
    3ebc:	481c                	lw	a5,16(s0)
    3ebe:	02495503          	lhu	a0,36(s2)
    3ec2:	d63e                	sw	a5,44(sp)
    3ec4:	d70fe0ef          	jal	ra,2434 <htons>
    3ec8:	57b2                	lw	a5,44(sp)
    3eca:	a3a8                	sb	a0,2(a5)
    3ecc:	8121                	srli	a0,a0,0x8
    3ece:	b3a8                	sb	a0,3(a5)
    3ed0:	481c                	lw	a5,16(s0)
    3ed2:	4522                	lw	a0,8(sp)
    3ed4:	d63e                	sw	a5,44(sp)
    3ed6:	d7afe0ef          	jal	ra,2450 <htonl>
    3eda:	57b2                	lw	a5,44(sp)
    3edc:	00855713          	srli	a4,a0,0x8
    3ee0:	b3d8                	sb	a4,5(a5)
    3ee2:	01055713          	srli	a4,a0,0x10
    3ee6:	a3f8                	sb	a4,6(a5)
    3ee8:	4818                	lw	a4,16(s0)
    3eea:	a3c8                	sb	a0,4(a5)
    3eec:	8161                	srli	a0,a0,0x18
    3eee:	b3e8                	sb	a0,7(a5)
    3ef0:	375c                	lbu	a5,13(a4)
    3ef2:	2748                	lbu	a0,12(a4)
    3ef4:	00070923          	sb	zero,18(a4) # 8012 <tcp_input+0x53e>
    3ef8:	07a2                	slli	a5,a5,0x8
    3efa:	8fc9                	or	a5,a5,a0
    3efc:	d63e                	sw	a5,44(sp)
    3efe:	67c1                	lui	a5,0x10
    3f00:	000709a3          	sb	zero,19(a4)
    3f04:	fc078513          	addi	a0,a5,-64 # ffc0 <_data_lma+0x5d80>
    3f08:	d2cfe0ef          	jal	ra,2434 <htons>
    3f0c:	57b2                	lw	a5,44(sp)
    3f0e:	8fe9                	and	a5,a5,a0
    3f10:	5522                	lw	a0,40(sp)
    3f12:	d63e                	sw	a5,44(sp)
    3f14:	d20fe0ef          	jal	ra,2434 <htons>
    3f18:	57b2                	lw	a5,44(sp)
    3f1a:	8d5d                	or	a0,a0,a5
    3f1c:	0542                	slli	a0,a0,0x10
    3f1e:	481c                	lw	a5,16(s0)
    3f20:	8141                	srli	a0,a0,0x10
    3f22:	00855713          	srli	a4,a0,0x8
    3f26:	b7d8                	sb	a4,13(a5)
    3f28:	a7c8                	sb	a0,12(a5)
    3f2a:	01b40723          	sb	s11,14(s0)
    3f2e:	d14fe0ef          	jal	ra,2442 <ntohs>
    3f32:	4762                	lw	a4,24(sp)
    3f34:	481c                	lw	a5,16(s0)
    3f36:	03f57513          	andi	a0,a0,63
    3f3a:	8d59                	or	a0,a0,a4
    3f3c:	d63e                	sw	a5,44(sp)
    3f3e:	cf6fe0ef          	jal	ra,2434 <htons>
    3f42:	57b2                	lw	a5,44(sp)
    3f44:	a7c8                	sb	a0,12(a5)
    3f46:	8121                	srli	a0,a0,0x8
    3f48:	b7c8                	sb	a0,13(a5)
    3f4a:	67c1                	lui	a5,0x10
    3f4c:	17fd                	addi	a5,a5,-1
    3f4e:	00fa7a33          	and	s4,s4,a5
    3f52:	47a2                	lw	a5,8(sp)
    3f54:	9d52                	add	s10,s10,s4
    3f56:	97d2                	add	a5,a5,s4
    3f58:	c43e                	sw	a5,8(sp)
    3f5a:	87a2                	mv	a5,s0
    3f5c:	ea0b90e3          	bnez	s7,3dfc <tcp_enqueue+0xb4>
    3f60:	07892a03          	lw	s4,120(s2)
    3f64:	060a1963          	bnez	s4,3fd6 <tcp_enqueue+0x28e>
    3f68:	07392c23          	sw	s3,120(s2)
    3f6c:	a251                	j	40f0 <tcp_enqueue+0x3a8>
    3f6e:	89aa                	mv	s3,a0
    3f70:	b5c1                	j	3e30 <tcp_enqueue+0xe8>
    3f72:	45c2                	lw	a1,16(sp)
    3f74:	4601                	li	a2,0
    3f76:	4501                	li	a0,0
    3f78:	834ff0ef          	jal	ra,2fac <pbuf_alloc>
    3f7c:	c048                	sw	a0,4(s0)
    3f7e:	c505                	beqz	a0,3fa6 <tcp_enqueue+0x25e>
    3f80:	9c2ff0ef          	jal	ra,3142 <pbuf_clen>
    3f84:	94aa                	add	s1,s1,a0
    3f86:	04c2                	slli	s1,s1,0x10
    3f88:	80c1                	srli	s1,s1,0x10
    3f8a:	ee0b86e3          	beqz	s7,3e76 <tcp_enqueue+0x12e>
    3f8e:	85e6                	mv	a1,s9
    3f90:	4605                	li	a2,1
    3f92:	450d                	li	a0,3
    3f94:	818ff0ef          	jal	ra,2fac <pbuf_alloc>
    3f98:	85aa                	mv	a1,a0
    3f9a:	4048                	lw	a0,4(s0)
    3f9c:	e195                	bnez	a1,3fc0 <tcp_enqueue+0x278>
    3f9e:	fc1fe0ef          	jal	ra,2f5e <pbuf_free>
    3fa2:	00042223          	sw	zero,4(s0)
    3fa6:	02694783          	lbu	a5,38(s2)
    3faa:	5a7d                	li	s4,-1
    3fac:	f807e793          	ori	a5,a5,-128
    3fb0:	02f90323          	sb	a5,38(s2)
    3fb4:	da098be3          	beqz	s3,3d6a <tcp_enqueue+0x22>
    3fb8:	854e                	mv	a0,s3
    3fba:	c90ff0ef          	jal	ra,344a <tcp_segs_free>
    3fbe:	b375                	j	3d6a <tcp_enqueue+0x22>
    3fc0:	01a5a223          	sw	s10,4(a1)
    3fc4:	0485                	addi	s1,s1,1
    3fc6:	04c2                	slli	s1,s1,0x10
    3fc8:	01a42423          	sw	s10,8(s0)
    3fcc:	80c1                	srli	s1,s1,0x10
    3fce:	990ff0ef          	jal	ra,315e <pbuf_cat>
    3fd2:	b555                	j	3e76 <tcp_enqueue+0x12e>
    3fd4:	8a3e                	mv	s4,a5
    3fd6:	000a2783          	lw	a5,0(s4)
    3fda:	ffed                	bnez	a5,3fd4 <tcp_enqueue+0x28c>
    3fdc:	010a2783          	lw	a5,16(s4)
    3fe0:	00ca5b83          	lhu	s7,12(s4)
    3fe4:	27c8                	lbu	a0,12(a5)
    3fe6:	37dc                	lbu	a5,13(a5)
    3fe8:	07a2                	slli	a5,a5,0x8
    3fea:	8d5d                	or	a0,a0,a5
    3fec:	c56fe0ef          	jal	ra,2442 <ntohs>
    3ff0:	890d                	andi	a0,a0,3
    3ff2:	00a03533          	snez	a0,a0
    3ff6:	955e                	add	a0,a0,s7
    3ff8:	18050563          	beqz	a0,4182 <tcp_enqueue+0x43a>
    3ffc:	010a2783          	lw	a5,16(s4)
    4000:	27c8                	lbu	a0,12(a5)
    4002:	37dc                	lbu	a5,13(a5)
    4004:	07a2                	slli	a5,a5,0x8
    4006:	8d5d                	or	a0,a0,a5
    4008:	c3afe0ef          	jal	ra,2442 <ntohs>
    400c:	890d                	andi	a0,a0,3
    400e:	16051a63          	bnez	a0,4182 <tcp_enqueue+0x43a>
    4012:	003b7793          	andi	a5,s6,3
    4016:	c781                	beqz	a5,401e <tcp_enqueue+0x2d6>
    4018:	4785                	li	a5,1
    401a:	16fb1463          	bne	s6,a5,4182 <tcp_enqueue+0x43a>
    401e:	00c9d703          	lhu	a4,12(s3)
    4022:	00ca5783          	lhu	a5,12(s4)
    4026:	97ba                	add	a5,a5,a4
    4028:	03c95703          	lhu	a4,60(s2)
    402c:	14f74b63          	blt	a4,a5,4182 <tcp_enqueue+0x43a>
    4030:	00ea4703          	lbu	a4,14(s4)
    4034:	00e9c783          	lbu	a5,14(s3)
    4038:	14f71563          	bne	a4,a5,4182 <tcp_enqueue+0x43a>
    403c:	010a2703          	lw	a4,16(s4)
    4040:	3348                	lbu	a0,5(a4)
    4042:	235c                	lbu	a5,4(a4)
    4044:	0522                	slli	a0,a0,0x8
    4046:	8d5d                	or	a0,a0,a5
    4048:	237c                	lbu	a5,6(a4)
    404a:	07c2                	slli	a5,a5,0x10
    404c:	8fc9                	or	a5,a5,a0
    404e:	3368                	lbu	a0,7(a4)
    4050:	0562                	slli	a0,a0,0x18
    4052:	8d5d                	or	a0,a0,a5
    4054:	c20fe0ef          	jal	ra,2474 <ntohl>
    4058:	0109a703          	lw	a4,16(s3)
    405c:	00ca5b83          	lhu	s7,12(s4)
    4060:	235c                	lbu	a5,4(a4)
    4062:	9baa                	add	s7,s7,a0
    4064:	3348                	lbu	a0,5(a4)
    4066:	0522                	slli	a0,a0,0x8
    4068:	8d5d                	or	a0,a0,a5
    406a:	237c                	lbu	a5,6(a4)
    406c:	07c2                	slli	a5,a5,0x10
    406e:	8fc9                	or	a5,a5,a0
    4070:	3368                	lbu	a0,7(a4)
    4072:	0562                	slli	a0,a0,0x18
    4074:	8d5d                	or	a0,a0,a5
    4076:	bfefe0ef          	jal	ra,2474 <ntohl>
    407a:	10ab9463          	bne	s7,a0,4182 <tcp_enqueue+0x43a>
    407e:	47c2                	lw	a5,16(sp)
    4080:	55b1                	li	a1,-20
    4082:	0049a503          	lw	a0,4(s3)
    4086:	8d9d                	sub	a1,a1,a5
    4088:	05c2                	slli	a1,a1,0x10
    408a:	85c1                	srai	a1,a1,0x10
    408c:	e65fe0ef          	jal	ra,2ef0 <pbuf_header>
    4090:	f0051be3          	bnez	a0,3fa6 <tcp_enqueue+0x25e>
    4094:	0049a503          	lw	a0,4(s3)
    4098:	253e                	lhu	a5,10(a0)
    409a:	eb99                	bnez	a5,40b0 <tcp_enqueue+0x368>
    409c:	411c                	lw	a5,0(a0)
    409e:	14fd                	addi	s1,s1,-1
    40a0:	04c2                	slli	s1,s1,0x10
    40a2:	00f9a223          	sw	a5,4(s3)
    40a6:	00052023          	sw	zero,0(a0)
    40aa:	80c1                	srli	s1,s1,0x10
    40ac:	eb3fe0ef          	jal	ra,2f5e <pbuf_free>
    40b0:	001b7793          	andi	a5,s6,1
    40b4:	c7cd                	beqz	a5,415e <tcp_enqueue+0x416>
    40b6:	010a2783          	lw	a5,16(s4)
    40ba:	00d7cb83          	lbu	s7,13(a5) # 1000d <_data_lma+0x5dcd>
    40be:	27c8                	lbu	a0,12(a5)
    40c0:	0ba2                	slli	s7,s7,0x8
    40c2:	00abebb3          	or	s7,s7,a0
    40c6:	4505                	li	a0,1
    40c8:	b6cfe0ef          	jal	ra,2434 <htons>
    40cc:	010a2783          	lw	a5,16(s4)
    40d0:	00abe533          	or	a0,s7,a0
    40d4:	0542                	slli	a0,a0,0x10
    40d6:	8141                	srli	a0,a0,0x10
    40d8:	a7c8                	sb	a0,12(a5)
    40da:	8121                	srli	a0,a0,0x8
    40dc:	b7c8                	sb	a0,13(a5)
    40de:	00899563          	bne	s3,s0,40e8 <tcp_enqueue+0x3a0>
    40e2:	00ca5c83          	lhu	s9,12(s4)
    40e6:	8452                	mv	s0,s4
    40e8:	85ce                	mv	a1,s3
    40ea:	4511                	li	a0,4
    40ec:	ca5fe0ef          	jal	ra,2d90 <memp_free>
    40f0:	003b7793          	andi	a5,s6,3
    40f4:	c789                	beqz	a5,40fe <tcp_enqueue+0x3b6>
    40f6:	0a85                	addi	s5,s5,1
    40f8:	0ac2                	slli	s5,s5,0x10
    40fa:	010ada93          	srli	s5,s5,0x10
    40fe:	001b7b13          	andi	s6,s6,1
    4102:	000b0863          	beqz	s6,4112 <tcp_enqueue+0x3ca>
    4106:	02694783          	lbu	a5,38(s2)
    410a:	0207e793          	ori	a5,a5,32
    410e:	02f90323          	sb	a5,38(s2)
    4112:	06c92783          	lw	a5,108(s2)
    4116:	06991a23          	sh	s1,116(s2)
    411a:	4a01                	li	s4,0
    411c:	97d6                	add	a5,a5,s5
    411e:	06f92623          	sw	a5,108(s2)
    4122:	07295783          	lhu	a5,114(s2)
    4126:	41578ab3          	sub	s5,a5,s5
    412a:	07591923          	sh	s5,114(s2)
    412e:	c20c8ee3          	beqz	s9,3d6a <tcp_enqueue+0x22>
    4132:	481c                	lw	a5,16(s0)
    4134:	c2078be3          	beqz	a5,3d6a <tcp_enqueue+0x22>
    4138:	4752                	lw	a4,20(sp)
    413a:	8b09                	andi	a4,a4,2
    413c:	c20717e3          	bnez	a4,3d6a <tcp_enqueue+0x22>
    4140:	37c4                	lbu	s1,13(a5)
    4142:	27c8                	lbu	a0,12(a5)
    4144:	04a2                	slli	s1,s1,0x8
    4146:	8cc9                	or	s1,s1,a0
    4148:	4521                	li	a0,8
    414a:	aeafe0ef          	jal	ra,2434 <htons>
    414e:	481c                	lw	a5,16(s0)
    4150:	8d45                	or	a0,a0,s1
    4152:	0542                	slli	a0,a0,0x10
    4154:	8141                	srli	a0,a0,0x10
    4156:	a7c8                	sb	a0,12(a5)
    4158:	8121                	srli	a0,a0,0x8
    415a:	b7c8                	sb	a0,13(a5)
    415c:	b139                	j	3d6a <tcp_enqueue+0x22>
    415e:	0049a583          	lw	a1,4(s3)
    4162:	004a2503          	lw	a0,4(s4)
    4166:	ff9fe0ef          	jal	ra,315e <pbuf_cat>
    416a:	00c9d703          	lhu	a4,12(s3)
    416e:	00ca5783          	lhu	a5,12(s4)
    4172:	97ba                	add	a5,a5,a4
    4174:	00fa1623          	sh	a5,12(s4)
    4178:	0009a783          	lw	a5,0(s3)
    417c:	00fa2023          	sw	a5,0(s4)
    4180:	bfb9                	j	40de <tcp_enqueue+0x396>
    4182:	013a2023          	sw	s3,0(s4)
    4186:	b7ad                	j	40f0 <tcp_enqueue+0x3a8>

00004188 <tcp_send_ctrl>:
tcp_send_ctrl():
    4188:	8a8fc2ef          	jal	t0,230 <__riscv_save_0>
    418c:	86ae                	mv	a3,a1
    418e:	4781                	li	a5,0
    4190:	4705                	li	a4,1
    4192:	4601                	li	a2,0
    4194:	4581                	li	a1,0
    4196:	bb3ff0ef          	jal	ra,3d48 <tcp_enqueue>
    419a:	8bafc06f          	j	254 <__riscv_restore_0>

0000419e <tcp_write>:
tcp_write():
    419e:	87aa                	mv	a5,a0
    41a0:	4908                	lw	a0,16(a0)
    41a2:	471d                	li	a4,7
    41a4:	00e50863          	beq	a0,a4,41b4 <tcp_write+0x16>
    41a8:	ffe50813          	addi	a6,a0,-2
    41ac:	4709                	li	a4,2
    41ae:	5561                	li	a0,-8
    41b0:	01076e63          	bltu	a4,a6,41cc <tcp_write+0x2e>
    41b4:	4501                	li	a0,0
    41b6:	ca19                	beqz	a2,41cc <tcp_write+0x2e>
    41b8:	878fc2ef          	jal	t0,230 <__riscv_save_0>
    41bc:	8736                	mv	a4,a3
    41be:	853e                	mv	a0,a5
    41c0:	4681                	li	a3,0
    41c2:	4781                	li	a5,0
    41c4:	b85ff0ef          	jal	ra,3d48 <tcp_enqueue>
    41c8:	88cfc06f          	j	254 <__riscv_restore_0>
    41cc:	8082                	ret

000041ce <tcp_send_empty_ack>:
tcp_send_empty_ack():
    41ce:	848fc2ef          	jal	t0,216 <__riscv_save_4>
    41d2:	842a                	mv	s0,a0
    41d4:	4601                	li	a2,0
    41d6:	45d1                	li	a1,20
    41d8:	4505                	li	a0,1
    41da:	dd3fe0ef          	jal	ra,2fac <pbuf_alloc>
    41de:	cd21                	beqz	a0,4236 <tcp_send_empty_ack+0x68>
    41e0:	02644783          	lbu	a5,38(s0)
    41e4:	84aa                	mv	s1,a0
    41e6:	4c68                	lw	a0,92(s0)
    41e8:	9bf1                	andi	a5,a5,-4
    41ea:	02f40323          	sb	a5,38(s0)
    41ee:	a62fe0ef          	jal	ra,2450 <htonl>
    41f2:	40cc                	lw	a1,4(s1)
    41f4:	862a                	mv	a2,a0
    41f6:	8522                	mv	a0,s0
    41f8:	a85ff0ef          	jal	ra,3c7c <tcp_output_set_header.isra.0.constprop.1>
    41fc:	249a                	lhu	a4,8(s1)
    41fe:	00440913          	addi	s2,s0,4
    4202:	89aa                	mv	s3,a0
    4204:	4699                	li	a3,6
    4206:	864a                	mv	a2,s2
    4208:	85a2                	mv	a1,s0
    420a:	8526                	mv	a0,s1
    420c:	6b2020ef          	jal	ra,68be <inet_chksum_pseudo>
    4210:	00a98823          	sb	a0,16(s3)
    4214:	8121                	srli	a0,a0,0x8
    4216:	00a988a3          	sb	a0,17(s3)
    421a:	2438                	lbu	a4,10(s0)
    421c:	3434                	lbu	a3,11(s0)
    421e:	4799                	li	a5,6
    4220:	864a                	mv	a2,s2
    4222:	85a2                	mv	a1,s0
    4224:	8526                	mv	a0,s1
    4226:	46f020ef          	jal	ra,6e94 <ip_output>
    422a:	8526                	mv	a0,s1
    422c:	d33fe0ef          	jal	ra,2f5e <pbuf_free>
    4230:	4501                	li	a0,0
    4232:	818fc06f          	j	24a <__riscv_restore_4>
    4236:	5579                	li	a0,-2
    4238:	bfed                	j	4232 <tcp_send_empty_ack+0x64>

0000423a <tcp_output>:
tcp_output():
    423a:	9381a783          	lw	a5,-1736(gp) # 200001a8 <tcp_input_pcb>
    423e:	34a78963          	beq	a5,a0,4590 <tcp_output+0x356>
    4242:	fbffb2ef          	jal	t0,200 <__riscv_save_12>
    4246:	06055783          	lhu	a5,96(a0)
    424a:	05655a03          	lhu	s4,86(a0)
    424e:	0147f363          	bgeu	a5,s4,4254 <tcp_output+0x1a>
    4252:	8a3e                	mv	s4,a5
    4254:	02654783          	lbu	a5,38(a0)
    4258:	0a42                	slli	s4,s4,0x10
    425a:	842a                	mv	s0,a0
    425c:	8b89                	andi	a5,a5,2
    425e:	010a5a13          	srli	s4,s4,0x10
    4262:	5d24                	lw	s1,120(a0)
    4264:	cb95                	beqz	a5,4298 <tcp_output+0x5e>
    4266:	e491                	bnez	s1,4272 <tcp_output+0x38>
    4268:	8522                	mv	a0,s0
    426a:	f65ff0ef          	jal	ra,41ce <tcp_send_empty_ack>
    426e:	fcffb06f          	j	23c <__riscv_restore_12>
    4272:	4898                	lw	a4,16(s1)
    4274:	3348                	lbu	a0,5(a4)
    4276:	235c                	lbu	a5,4(a4)
    4278:	0522                	slli	a0,a0,0x8
    427a:	8d5d                	or	a0,a0,a5
    427c:	237c                	lbu	a5,6(a4)
    427e:	07c2                	slli	a5,a5,0x10
    4280:	8fc9                	or	a5,a5,a0
    4282:	3368                	lbu	a0,7(a4)
    4284:	0562                	slli	a0,a0,0x18
    4286:	8d5d                	or	a0,a0,a5
    4288:	9ecfe0ef          	jal	ra,2474 <ntohl>
    428c:	24de                	lhu	a5,12(s1)
    428e:	4838                	lw	a4,80(s0)
    4290:	8f99                	sub	a5,a5,a4
    4292:	953e                	add	a0,a0,a5
    4294:	fcaa6ae3          	bltu	s4,a0,4268 <tcp_output+0x2e>
    4298:	07c42983          	lw	s3,124(s0)
    429c:	08099663          	bnez	s3,4328 <tcp_output+0xee>
    42a0:	2001eab7          	lui	s5,0x2001e
    42a4:	4b89                	li	s7,2
    42a6:	e90a8a93          	addi	s5,s5,-368 # 2001de90 <WCHCfg>
    42aa:	02040c37          	lui	s8,0x2040
    42ae:	00440b13          	addi	s6,s0,4
    42b2:	5cfd                	li	s9,-1
    42b4:	c0ad                	beqz	s1,4316 <tcp_output+0xdc>
    42b6:	4898                	lw	a4,16(s1)
    42b8:	3348                	lbu	a0,5(a4)
    42ba:	235c                	lbu	a5,4(a4)
    42bc:	0522                	slli	a0,a0,0x8
    42be:	8d5d                	or	a0,a0,a5
    42c0:	237c                	lbu	a5,6(a4)
    42c2:	07c2                	slli	a5,a5,0x10
    42c4:	8fc9                	or	a5,a5,a0
    42c6:	3368                	lbu	a0,7(a4)
    42c8:	0562                	slli	a0,a0,0x18
    42ca:	8d5d                	or	a0,a0,a5
    42cc:	9a8fe0ef          	jal	ra,2474 <ntohl>
    42d0:	24de                	lhu	a5,12(s1)
    42d2:	4838                	lw	a4,80(s0)
    42d4:	8f99                	sub	a5,a5,a4
    42d6:	953e                	add	a0,a0,a5
    42d8:	04aa7c63          	bgeu	s4,a0,4330 <tcp_output+0xf6>
    42dc:	0ac44783          	lbu	a5,172(s0)
    42e0:	eb9d                	bnez	a5,4316 <tcp_output+0xdc>
    42e2:	4898                	lw	a4,16(s1)
    42e4:	3348                	lbu	a0,5(a4)
    42e6:	235c                	lbu	a5,4(a4)
    42e8:	0522                	slli	a0,a0,0x8
    42ea:	8d5d                	or	a0,a0,a5
    42ec:	237c                	lbu	a5,6(a4)
    42ee:	07c2                	slli	a5,a5,0x10
    42f0:	8fc9                	or	a5,a5,a0
    42f2:	3368                	lbu	a0,7(a4)
    42f4:	0562                	slli	a0,a0,0x18
    42f6:	8d5d                	or	a0,a0,a5
    42f8:	97cfe0ef          	jal	ra,2474 <ntohl>
    42fc:	24de                	lhu	a5,12(s1)
    42fe:	4838                	lw	a4,80(s0)
    4300:	8f99                	sub	a5,a5,a4
    4302:	953e                	add	a0,a0,a5
    4304:	06045783          	lhu	a5,96(s0)
    4308:	00a7f763          	bgeu	a5,a0,4316 <tcp_output+0xdc>
    430c:	4785                	li	a5,1
    430e:	0a042423          	sw	zero,168(s0)
    4312:	0af40623          	sb	a5,172(s0)
    4316:	02644783          	lbu	a5,38(s0)
    431a:	4501                	li	a0,0
    431c:	07f7f793          	andi	a5,a5,127
    4320:	02f40323          	sb	a5,38(s0)
    4324:	b7a9                	j	426e <tcp_output+0x34>
    4326:	89be                	mv	s3,a5
    4328:	0009a783          	lw	a5,0(s3)
    432c:	ffed                	bnez	a5,4326 <tcp_output+0xec>
    432e:	bf8d                	j	42a0 <tcp_output+0x66>
    4330:	5c7c                	lw	a5,124(s0)
    4332:	c38d                	beqz	a5,4354 <tcp_output+0x11a>
    4334:	02644783          	lbu	a5,38(s0)
    4338:	0447f713          	andi	a4,a5,68
    433c:	ef01                	bnez	a4,4354 <tcp_output+0x11a>
    433e:	5c38                	lw	a4,120(s0)
    4340:	c719                	beqz	a4,434e <tcp_output+0x114>
    4342:	4314                	lw	a3,0(a4)
    4344:	ea81                	bnez	a3,4354 <tcp_output+0x11a>
    4346:	2756                	lhu	a3,12(a4)
    4348:	3c5a                	lhu	a4,60(s0)
    434a:	00e6f563          	bgeu	a3,a4,4354 <tcp_output+0x11a>
    434e:	0a07f793          	andi	a5,a5,160
    4352:	d7c9                	beqz	a5,42dc <tcp_output+0xa2>
    4354:	409c                	lw	a5,0(s1)
    4356:	dc3c                	sw	a5,120(s0)
    4358:	481c                	lw	a5,16(s0)
    435a:	03778963          	beq	a5,s7,438c <tcp_output+0x152>
    435e:	489c                	lw	a5,16(s1)
    4360:	00d7c903          	lbu	s2,13(a5)
    4364:	27c8                	lbu	a0,12(a5)
    4366:	0922                	slli	s2,s2,0x8
    4368:	00a96933          	or	s2,s2,a0
    436c:	4541                	li	a0,16
    436e:	8c6fe0ef          	jal	ra,2434 <htons>
    4372:	489c                	lw	a5,16(s1)
    4374:	00a96533          	or	a0,s2,a0
    4378:	0542                	slli	a0,a0,0x10
    437a:	8141                	srli	a0,a0,0x10
    437c:	a7c8                	sb	a0,12(a5)
    437e:	8121                	srli	a0,a0,0x8
    4380:	b7c8                	sb	a0,13(a5)
    4382:	02644783          	lbu	a5,38(s0)
    4386:	9bf1                	andi	a5,a5,-4
    4388:	02f40323          	sb	a5,38(s0)
    438c:	5408                	lw	a0,40(s0)
    438e:	0104a903          	lw	s2,16(s1)
    4392:	8befe0ef          	jal	ra,2450 <htonl>
    4396:	00855793          	srli	a5,a0,0x8
    439a:	00a90423          	sb	a0,8(s2)
    439e:	00f904a3          	sb	a5,9(s2)
    43a2:	01055793          	srli	a5,a0,0x10
    43a6:	8161                	srli	a0,a0,0x18
    43a8:	00a905a3          	sb	a0,11(s2)
    43ac:	346a                	lhu	a0,46(s0)
    43ae:	00f90523          	sb	a5,10(s2)
    43b2:	0104a903          	lw	s2,16(s1)
    43b6:	87efe0ef          	jal	ra,2434 <htons>
    43ba:	347a                	lhu	a4,46(s0)
    43bc:	541c                	lw	a5,40(s0)
    43be:	00a90723          	sb	a0,14(s2)
    43c2:	8121                	srli	a0,a0,0x8
    43c4:	00a907a3          	sb	a0,15(s2)
    43c8:	97ba                	add	a5,a5,a4
    43ca:	d81c                	sw	a5,48(s0)
    43cc:	24fc                	lbu	a5,14(s1)
    43ce:	8b85                	andi	a5,a5,1
    43d0:	cb99                	beqz	a5,43e6 <tcp_output+0x1ac>
    43d2:	004aa503          	lw	a0,4(s5)
    43d6:	0104a903          	lw	s2,16(s1)
    43da:	00ac6533          	or	a0,s8,a0
    43de:	872fe0ef          	jal	ra,2450 <htonl>
    43e2:	00a92a23          	sw	a0,20(s2)
    43e6:	401c                	lw	a5,0(s0)
    43e8:	e799                	bnez	a5,43f6 <tcp_output+0x1bc>
    43ea:	855a                	mv	a0,s6
    43ec:	648020ef          	jal	ra,6a34 <ip_route>
    43f0:	c549                	beqz	a0,447a <tcp_output+0x240>
    43f2:	415c                	lw	a5,4(a0)
    43f4:	c01c                	sw	a5,0(s0)
    43f6:	03a41783          	lh	a5,58(s0)
    43fa:	01979463          	bne	a5,s9,4402 <tcp_output+0x1c8>
    43fe:	02041d23          	sh	zero,58(s0)
    4402:	403c                	lw	a5,64(s0)
    4404:	e395                	bnez	a5,4428 <tcp_output+0x1ee>
    4406:	8ec1a783          	lw	a5,-1812(gp) # 2000015c <tcp_ticks>
    440a:	4898                	lw	a4,16(s1)
    440c:	c03c                	sw	a5,64(s0)
    440e:	3348                	lbu	a0,5(a4)
    4410:	235c                	lbu	a5,4(a4)
    4412:	0522                	slli	a0,a0,0x8
    4414:	8d5d                	or	a0,a0,a5
    4416:	237c                	lbu	a5,6(a4)
    4418:	07c2                	slli	a5,a5,0x10
    441a:	8fc9                	or	a5,a5,a0
    441c:	3368                	lbu	a0,7(a4)
    441e:	0562                	slli	a0,a0,0x18
    4420:	8d5d                	or	a0,a0,a5
    4422:	852fe0ef          	jal	ra,2474 <ntohl>
    4426:	c068                	sw	a0,68(s0)
    4428:	40c8                	lw	a0,4(s1)
    442a:	0104a903          	lw	s2,16(s1)
    442e:	4699                	li	a3,6
    4430:	4158                	lw	a4,4(a0)
    4432:	01252223          	sw	s2,4(a0)
    4436:	865a                	mv	a2,s6
    4438:	40e90733          	sub	a4,s2,a4
    443c:	01071793          	slli	a5,a4,0x10
    4440:	253a                	lhu	a4,10(a0)
    4442:	83c1                	srli	a5,a5,0x10
    4444:	85a2                	mv	a1,s0
    4446:	8f1d                	sub	a4,a4,a5
    4448:	a53a                	sh	a4,10(a0)
    444a:	251a                	lhu	a4,8(a0)
    444c:	8f1d                	sub	a4,a4,a5
    444e:	0742                	slli	a4,a4,0x10
    4450:	8341                	srli	a4,a4,0x10
    4452:	a51a                	sh	a4,8(a0)
    4454:	00090823          	sb	zero,16(s2)
    4458:	000908a3          	sb	zero,17(s2)
    445c:	462020ef          	jal	ra,68be <inet_chksum_pseudo>
    4460:	00a90823          	sb	a0,16(s2)
    4464:	8121                	srli	a0,a0,0x8
    4466:	00a908a3          	sb	a0,17(s2)
    446a:	2438                	lbu	a4,10(s0)
    446c:	3434                	lbu	a3,11(s0)
    446e:	40c8                	lw	a0,4(s1)
    4470:	4799                	li	a5,6
    4472:	865a                	mv	a2,s6
    4474:	85a2                	mv	a1,s0
    4476:	21f020ef          	jal	ra,6e94 <ip_output>
    447a:	4898                	lw	a4,16(s1)
    447c:	3348                	lbu	a0,5(a4)
    447e:	235c                	lbu	a5,4(a4)
    4480:	0522                	slli	a0,a0,0x8
    4482:	8d5d                	or	a0,a0,a5
    4484:	237c                	lbu	a5,6(a4)
    4486:	07c2                	slli	a5,a5,0x10
    4488:	8fc9                	or	a5,a5,a0
    448a:	3368                	lbu	a0,7(a4)
    448c:	0562                	slli	a0,a0,0x18
    448e:	8d5d                	or	a0,a0,a5
    4490:	fe5fd0ef          	jal	ra,2474 <ntohl>
    4494:	489c                	lw	a5,16(s1)
    4496:	892a                	mv	s2,a0
    4498:	00c4dd83          	lhu	s11,12(s1)
    449c:	27c8                	lbu	a0,12(a5)
    449e:	37dc                	lbu	a5,13(a5)
    44a0:	07a2                	slli	a5,a5,0x8
    44a2:	8d5d                	or	a0,a0,a5
    44a4:	f9ffd0ef          	jal	ra,2442 <ntohs>
    44a8:	890d                	andi	a0,a0,3
    44aa:	00a03533          	snez	a0,a0
    44ae:	4c7c                	lw	a5,92(s0)
    44b0:	956e                	add	a0,a0,s11
    44b2:	954a                	add	a0,a0,s2
    44b4:	8f89                	sub	a5,a5,a0
    44b6:	0007d363          	bgez	a5,44bc <tcp_output+0x282>
    44ba:	cc68                	sw	a0,92(s0)
    44bc:	489c                	lw	a5,16(s1)
    44be:	00c4d903          	lhu	s2,12(s1)
    44c2:	27c8                	lbu	a0,12(a5)
    44c4:	37dc                	lbu	a5,13(a5)
    44c6:	07a2                	slli	a5,a5,0x8
    44c8:	8d5d                	or	a0,a0,a5
    44ca:	f79fd0ef          	jal	ra,2442 <ntohs>
    44ce:	890d                	andi	a0,a0,3
    44d0:	00a03533          	snez	a0,a0
    44d4:	954a                	add	a0,a0,s2
    44d6:	c94d                	beqz	a0,4588 <tcp_output+0x34e>
    44d8:	5c7c                	lw	a5,124(s0)
    44da:	0004a023          	sw	zero,0(s1)
    44de:	e781                	bnez	a5,44e6 <tcp_output+0x2ac>
    44e0:	dc64                	sw	s1,124(s0)
    44e2:	89a6                	mv	s3,s1
    44e4:	a899                	j	453a <tcp_output+0x300>
    44e6:	4898                	lw	a4,16(s1)
    44e8:	3348                	lbu	a0,5(a4)
    44ea:	235c                	lbu	a5,4(a4)
    44ec:	0522                	slli	a0,a0,0x8
    44ee:	8d5d                	or	a0,a0,a5
    44f0:	237c                	lbu	a5,6(a4)
    44f2:	07c2                	slli	a5,a5,0x10
    44f4:	8fc9                	or	a5,a5,a0
    44f6:	3368                	lbu	a0,7(a4)
    44f8:	0562                	slli	a0,a0,0x18
    44fa:	8d5d                	or	a0,a0,a5
    44fc:	f79fd0ef          	jal	ra,2474 <ntohl>
    4500:	0109a703          	lw	a4,16(s3)
    4504:	892a                	mv	s2,a0
    4506:	3348                	lbu	a0,5(a4)
    4508:	235c                	lbu	a5,4(a4)
    450a:	0522                	slli	a0,a0,0x8
    450c:	8d5d                	or	a0,a0,a5
    450e:	237c                	lbu	a5,6(a4)
    4510:	07c2                	slli	a5,a5,0x10
    4512:	8fc9                	or	a5,a5,a0
    4514:	3368                	lbu	a0,7(a4)
    4516:	0562                	slli	a0,a0,0x18
    4518:	8d5d                	or	a0,a0,a5
    451a:	f5bfd0ef          	jal	ra,2474 <ntohl>
    451e:	40a90533          	sub	a0,s2,a0
    4522:	06055063          	bgez	a0,4582 <tcp_output+0x348>
    4526:	07c40913          	addi	s2,s0,124
    452a:	00092783          	lw	a5,0(s2)
    452e:	eb81                	bnez	a5,453e <tcp_output+0x304>
    4530:	00092783          	lw	a5,0(s2)
    4534:	c09c                	sw	a5,0(s1)
    4536:	00992023          	sw	s1,0(s2)
    453a:	5c24                	lw	s1,120(s0)
    453c:	bba5                	j	42b4 <tcp_output+0x7a>
    453e:	4b98                	lw	a4,16(a5)
    4540:	3348                	lbu	a0,5(a4)
    4542:	235c                	lbu	a5,4(a4)
    4544:	0522                	slli	a0,a0,0x8
    4546:	8d5d                	or	a0,a0,a5
    4548:	237c                	lbu	a5,6(a4)
    454a:	07c2                	slli	a5,a5,0x10
    454c:	8fc9                	or	a5,a5,a0
    454e:	3368                	lbu	a0,7(a4)
    4550:	0562                	slli	a0,a0,0x18
    4552:	8d5d                	or	a0,a0,a5
    4554:	f21fd0ef          	jal	ra,2474 <ntohl>
    4558:	4898                	lw	a4,16(s1)
    455a:	8daa                	mv	s11,a0
    455c:	3348                	lbu	a0,5(a4)
    455e:	235c                	lbu	a5,4(a4)
    4560:	0522                	slli	a0,a0,0x8
    4562:	8d5d                	or	a0,a0,a5
    4564:	237c                	lbu	a5,6(a4)
    4566:	07c2                	slli	a5,a5,0x10
    4568:	8fc9                	or	a5,a5,a0
    456a:	3368                	lbu	a0,7(a4)
    456c:	0562                	slli	a0,a0,0x18
    456e:	8d5d                	or	a0,a0,a5
    4570:	f05fd0ef          	jal	ra,2474 <ntohl>
    4574:	40ad8533          	sub	a0,s11,a0
    4578:	fa055ce3          	bgez	a0,4530 <tcp_output+0x2f6>
    457c:	00092903          	lw	s2,0(s2)
    4580:	b76d                	j	452a <tcp_output+0x2f0>
    4582:	0099a023          	sw	s1,0(s3)
    4586:	bfb1                	j	44e2 <tcp_output+0x2a8>
    4588:	8526                	mv	a0,s1
    458a:	e97fe0ef          	jal	ra,3420 <tcp_seg_free>
    458e:	b775                	j	453a <tcp_output+0x300>
    4590:	4501                	li	a0,0
    4592:	8082                	ret

00004594 <tcp_rst>:
tcp_rst():
    4594:	c83fb2ef          	jal	t0,216 <__riscv_save_4>
    4598:	1141                	addi	sp,sp,-16
    459a:	8aaa                	mv	s5,a0
    459c:	84ae                	mv	s1,a1
    459e:	89b2                	mv	s3,a2
    45a0:	45d1                	li	a1,20
    45a2:	4601                	li	a2,0
    45a4:	4505                	li	a0,1
    45a6:	8a36                	mv	s4,a3
    45a8:	c63a                	sw	a4,12(sp)
    45aa:	8b3e                	mv	s6,a5
    45ac:	a01fe0ef          	jal	ra,2fac <pbuf_alloc>
    45b0:	0e050363          	beqz	a0,4696 <tcp_rst+0x102>
    45b4:	4732                	lw	a4,12(sp)
    45b6:	4140                	lw	s0,4(a0)
    45b8:	892a                	mv	s2,a0
    45ba:	853a                	mv	a0,a4
    45bc:	e79fd0ef          	jal	ra,2434 <htons>
    45c0:	a008                	sb	a0,0(s0)
    45c2:	8121                	srli	a0,a0,0x8
    45c4:	b008                	sb	a0,1(s0)
    45c6:	855a                	mv	a0,s6
    45c8:	e6dfd0ef          	jal	ra,2434 <htons>
    45cc:	a028                	sb	a0,2(s0)
    45ce:	8121                	srli	a0,a0,0x8
    45d0:	b028                	sb	a0,3(s0)
    45d2:	8556                	mv	a0,s5
    45d4:	e7dfd0ef          	jal	ra,2450 <htonl>
    45d8:	00855793          	srli	a5,a0,0x8
    45dc:	a048                	sb	a0,4(s0)
    45de:	b05c                	sb	a5,5(s0)
    45e0:	01055793          	srli	a5,a0,0x10
    45e4:	8161                	srli	a0,a0,0x18
    45e6:	a07c                	sb	a5,6(s0)
    45e8:	b068                	sb	a0,7(s0)
    45ea:	8526                	mv	a0,s1
    45ec:	e65fd0ef          	jal	ra,2450 <htonl>
    45f0:	00855793          	srli	a5,a0,0x8
    45f4:	a408                	sb	a0,8(s0)
    45f6:	b41c                	sb	a5,9(s0)
    45f8:	3444                	lbu	s1,13(s0)
    45fa:	01055793          	srli	a5,a0,0x10
    45fe:	8161                	srli	a0,a0,0x18
    4600:	b428                	sb	a0,11(s0)
    4602:	2448                	lbu	a0,12(s0)
    4604:	04a2                	slli	s1,s1,0x8
    4606:	a43c                	sb	a5,10(s0)
    4608:	8cc9                	or	s1,s1,a0
    460a:	6541                	lui	a0,0x10
    460c:	fc050513          	addi	a0,a0,-64 # ffc0 <_data_lma+0x5d80>
    4610:	e25fd0ef          	jal	ra,2434 <htons>
    4614:	8ce9                	and	s1,s1,a0
    4616:	4551                	li	a0,20
    4618:	e1dfd0ef          	jal	ra,2434 <htons>
    461c:	8d45                	or	a0,a0,s1
    461e:	0542                	slli	a0,a0,0x10
    4620:	8141                	srli	a0,a0,0x10
    4622:	2001e7b7          	lui	a5,0x2001e
    4626:	a448                	sb	a0,12(s0)
    4628:	8121                	srli	a0,a0,0x8
    462a:	b448                	sb	a0,13(s0)
    462c:	e947d503          	lhu	a0,-364(a5) # 2001de94 <WCHCfg+0x4>
    4630:	e05fd0ef          	jal	ra,2434 <htons>
    4634:	a468                	sb	a0,14(s0)
    4636:	345c                	lbu	a5,13(s0)
    4638:	8121                	srli	a0,a0,0x8
    463a:	b468                	sb	a0,15(s0)
    463c:	2448                	lbu	a0,12(s0)
    463e:	07a2                	slli	a5,a5,0x8
    4640:	00040923          	sb	zero,18(s0)
    4644:	8d5d                	or	a0,a0,a5
    4646:	000409a3          	sb	zero,19(s0)
    464a:	df9fd0ef          	jal	ra,2442 <ntohs>
    464e:	6795                	lui	a5,0x5
    4650:	03f57513          	andi	a0,a0,63
    4654:	8d5d                	or	a0,a0,a5
    4656:	ddffd0ef          	jal	ra,2434 <htons>
    465a:	00895703          	lhu	a4,8(s2)
    465e:	a448                	sb	a0,12(s0)
    4660:	8121                	srli	a0,a0,0x8
    4662:	b448                	sb	a0,13(s0)
    4664:	4699                	li	a3,6
    4666:	8652                	mv	a2,s4
    4668:	85ce                	mv	a1,s3
    466a:	00040823          	sb	zero,16(s0)
    466e:	000408a3          	sb	zero,17(s0)
    4672:	854a                	mv	a0,s2
    4674:	24a020ef          	jal	ra,68be <inet_chksum_pseudo>
    4678:	a808                	sb	a0,16(s0)
    467a:	8121                	srli	a0,a0,0x8
    467c:	b808                	sb	a0,17(s0)
    467e:	4799                	li	a5,6
    4680:	4701                	li	a4,0
    4682:	08000693          	li	a3,128
    4686:	8652                	mv	a2,s4
    4688:	85ce                	mv	a1,s3
    468a:	854a                	mv	a0,s2
    468c:	009020ef          	jal	ra,6e94 <ip_output>
    4690:	854a                	mv	a0,s2
    4692:	8cdfe0ef          	jal	ra,2f5e <pbuf_free>
    4696:	0141                	addi	sp,sp,16
    4698:	bb3fb06f          	j	24a <__riscv_restore_4>

0000469c <tcp_rexmit_rto>:
tcp_rexmit_rto():
    469c:	5d7c                	lw	a5,124(a0)
    469e:	cb85                	beqz	a5,46ce <tcp_rexmit_rto+0x32>
    46a0:	b91fb2ef          	jal	t0,230 <__riscv_save_0>
    46a4:	873e                	mv	a4,a5
    46a6:	4314                	lw	a3,0(a4)
    46a8:	e28d                	bnez	a3,46ca <tcp_rexmit_rto+0x2e>
    46aa:	5d34                	lw	a3,120(a0)
    46ac:	c314                	sw	a3,0(a4)
    46ae:	dd3c                	sw	a5,120(a0)
    46b0:	04e54783          	lbu	a5,78(a0)
    46b4:	06052e23          	sw	zero,124(a0)
    46b8:	04052023          	sw	zero,64(a0)
    46bc:	0785                	addi	a5,a5,1
    46be:	04f50723          	sb	a5,78(a0)
    46c2:	b79ff0ef          	jal	ra,423a <tcp_output>
    46c6:	b8ffb06f          	j	254 <__riscv_restore_0>
    46ca:	8736                	mv	a4,a3
    46cc:	bfe9                	j	46a6 <tcp_rexmit_rto+0xa>
    46ce:	8082                	ret

000046d0 <tcp_rexmit>:
tcp_rexmit():
    46d0:	b47fb2ef          	jal	t0,216 <__riscv_save_4>
    46d4:	5d64                	lw	s1,124(a0)
    46d6:	c48d                	beqz	s1,4700 <tcp_rexmit+0x30>
    46d8:	409c                	lw	a5,0(s1)
    46da:	842a                	mv	s0,a0
    46dc:	07850913          	addi	s2,a0,120
    46e0:	dd7c                	sw	a5,124(a0)
    46e2:	00092783          	lw	a5,0(s2)
    46e6:	ef99                	bnez	a5,4704 <tcp_rexmit+0x34>
    46e8:	00092783          	lw	a5,0(s2)
    46ec:	c09c                	sw	a5,0(s1)
    46ee:	00992023          	sw	s1,0(s2)
    46f2:	04e44783          	lbu	a5,78(s0)
    46f6:	04042023          	sw	zero,64(s0)
    46fa:	0785                	addi	a5,a5,1
    46fc:	04f40723          	sb	a5,78(s0)
    4700:	b4bfb06f          	j	24a <__riscv_restore_4>
    4704:	4b98                	lw	a4,16(a5)
    4706:	3348                	lbu	a0,5(a4)
    4708:	235c                	lbu	a5,4(a4)
    470a:	0522                	slli	a0,a0,0x8
    470c:	8d5d                	or	a0,a0,a5
    470e:	237c                	lbu	a5,6(a4)
    4710:	07c2                	slli	a5,a5,0x10
    4712:	8fc9                	or	a5,a5,a0
    4714:	3368                	lbu	a0,7(a4)
    4716:	0562                	slli	a0,a0,0x18
    4718:	8d5d                	or	a0,a0,a5
    471a:	d5bfd0ef          	jal	ra,2474 <ntohl>
    471e:	4898                	lw	a4,16(s1)
    4720:	89aa                	mv	s3,a0
    4722:	3348                	lbu	a0,5(a4)
    4724:	235c                	lbu	a5,4(a4)
    4726:	0522                	slli	a0,a0,0x8
    4728:	8d5d                	or	a0,a0,a5
    472a:	237c                	lbu	a5,6(a4)
    472c:	07c2                	slli	a5,a5,0x10
    472e:	8fc9                	or	a5,a5,a0
    4730:	3368                	lbu	a0,7(a4)
    4732:	0562                	slli	a0,a0,0x18
    4734:	8d5d                	or	a0,a0,a5
    4736:	d3ffd0ef          	jal	ra,2474 <ntohl>
    473a:	40a98533          	sub	a0,s3,a0
    473e:	fa0555e3          	bgez	a0,46e8 <tcp_rexmit+0x18>
    4742:	00092903          	lw	s2,0(s2)
    4746:	bf71                	j	46e2 <tcp_rexmit+0x12>

00004748 <tcp_rexmit_fast>:
tcp_rexmit_fast():
    4748:	5d7c                	lw	a5,124(a0)
    474a:	cfa9                	beqz	a5,47a4 <tcp_rexmit_fast+0x5c>
    474c:	ae5fb2ef          	jal	t0,230 <__riscv_save_0>
    4750:	02654783          	lbu	a5,38(a0)
    4754:	842a                	mv	s0,a0
    4756:	8b91                	andi	a5,a5,4
    4758:	e7a1                	bnez	a5,47a0 <tcp_rexmit_fast+0x58>
    475a:	f77ff0ef          	jal	ra,46d0 <tcp_rexmit>
    475e:	05645683          	lhu	a3,86(s0)
    4762:	06045783          	lhu	a5,96(s0)
    4766:	0016d713          	srli	a4,a3,0x1
    476a:	00d7f463          	bgeu	a5,a3,4772 <tcp_rexmit_fast+0x2a>
    476e:	0017d713          	srli	a4,a5,0x1
    4772:	3c5e                	lhu	a5,60(s0)
    4774:	04e41c23          	sh	a4,88(s0)
    4778:	00179693          	slli	a3,a5,0x1
    477c:	00d75463          	bge	a4,a3,4784 <tcp_rexmit_fast+0x3c>
    4780:	04d41c23          	sh	a3,88(s0)
    4784:	470d                	li	a4,3
    4786:	02e787b3          	mul	a5,a5,a4
    478a:	05845703          	lhu	a4,88(s0)
    478e:	97ba                	add	a5,a5,a4
    4790:	04f41b23          	sh	a5,86(s0)
    4794:	02644783          	lbu	a5,38(s0)
    4798:	0047e793          	ori	a5,a5,4
    479c:	02f40323          	sb	a5,38(s0)
    47a0:	ab5fb06f          	j	254 <__riscv_restore_0>
    47a4:	8082                	ret

000047a6 <tcp_keepalive>:
tcp_keepalive():
    47a6:	a71fb2ef          	jal	t0,216 <__riscv_save_4>
    47aa:	84aa                	mv	s1,a0
    47ac:	4601                	li	a2,0
    47ae:	45d1                	li	a1,20
    47b0:	4505                	li	a0,1
    47b2:	ffafe0ef          	jal	ra,2fac <pbuf_alloc>
    47b6:	c529                	beqz	a0,4800 <tcp_keepalive+0x5a>
    47b8:	842a                	mv	s0,a0
    47ba:	4ce8                	lw	a0,92(s1)
    47bc:	00448913          	addi	s2,s1,4
    47c0:	157d                	addi	a0,a0,-1
    47c2:	c8ffd0ef          	jal	ra,2450 <htonl>
    47c6:	404c                	lw	a1,4(s0)
    47c8:	862a                	mv	a2,a0
    47ca:	8526                	mv	a0,s1
    47cc:	cb0ff0ef          	jal	ra,3c7c <tcp_output_set_header.isra.0.constprop.1>
    47d0:	241a                	lhu	a4,8(s0)
    47d2:	89aa                	mv	s3,a0
    47d4:	4699                	li	a3,6
    47d6:	864a                	mv	a2,s2
    47d8:	85a6                	mv	a1,s1
    47da:	8522                	mv	a0,s0
    47dc:	0e2020ef          	jal	ra,68be <inet_chksum_pseudo>
    47e0:	00a98823          	sb	a0,16(s3)
    47e4:	8121                	srli	a0,a0,0x8
    47e6:	00a988a3          	sb	a0,17(s3)
    47ea:	34b4                	lbu	a3,11(s1)
    47ec:	4799                	li	a5,6
    47ee:	4701                	li	a4,0
    47f0:	864a                	mv	a2,s2
    47f2:	85a6                	mv	a1,s1
    47f4:	8522                	mv	a0,s0
    47f6:	69e020ef          	jal	ra,6e94 <ip_output>
    47fa:	8522                	mv	a0,s0
    47fc:	f62fe0ef          	jal	ra,2f5e <pbuf_free>
    4800:	a4bfb06f          	j	24a <__riscv_restore_4>

00004804 <tcp_zero_window_probe>:
tcp_zero_window_probe():
    4804:	a13fb2ef          	jal	t0,216 <__riscv_save_4>
    4808:	5d60                	lw	s0,124(a0)
    480a:	e019                	bnez	s0,4810 <tcp_zero_window_probe+0xc>
    480c:	5d20                	lw	s0,120(a0)
    480e:	c45d                	beqz	s0,48bc <tcp_zero_window_probe+0xb8>
    4810:	481c                	lw	a5,16(s0)
    4812:	84aa                	mv	s1,a0
    4814:	27c8                	lbu	a0,12(a5)
    4816:	37dc                	lbu	a5,13(a5)
    4818:	07a2                	slli	a5,a5,0x8
    481a:	8d5d                	or	a0,a0,a5
    481c:	c27fd0ef          	jal	ra,2442 <ntohs>
    4820:	8905                	andi	a0,a0,1
    4822:	cd59                	beqz	a0,48c0 <tcp_zero_window_probe+0xbc>
    4824:	245e                	lhu	a5,12(s0)
    4826:	efc9                	bnez	a5,48c0 <tcp_zero_window_probe+0xbc>
    4828:	4a05                	li	s4,1
    482a:	45d1                	li	a1,20
    482c:	4601                	li	a2,0
    482e:	4505                	li	a0,1
    4830:	f7cfe0ef          	jal	ra,2fac <pbuf_alloc>
    4834:	892a                	mv	s2,a0
    4836:	c159                	beqz	a0,48bc <tcp_zero_window_probe+0xb8>
    4838:	4818                	lw	a4,16(s0)
    483a:	414c                	lw	a1,4(a0)
    483c:	8526                	mv	a0,s1
    483e:	3350                	lbu	a2,5(a4)
    4840:	235c                	lbu	a5,4(a4)
    4842:	0622                	slli	a2,a2,0x8
    4844:	8e5d                	or	a2,a2,a5
    4846:	237c                	lbu	a5,6(a4)
    4848:	07c2                	slli	a5,a5,0x10
    484a:	8fd1                	or	a5,a5,a2
    484c:	3370                	lbu	a2,7(a4)
    484e:	0662                	slli	a2,a2,0x18
    4850:	8e5d                	or	a2,a2,a5
    4852:	c2aff0ef          	jal	ra,3c7c <tcp_output_set_header.isra.0.constprop.1>
    4856:	89aa                	mv	s3,a0
    4858:	060a0763          	beqz	s4,48c6 <tcp_zero_window_probe+0xc2>
    485c:	3540                	lbu	s0,13(a0)
    485e:	255c                	lbu	a5,12(a0)
    4860:	6541                	lui	a0,0x10
    4862:	0422                	slli	s0,s0,0x8
    4864:	fc050513          	addi	a0,a0,-64 # ffc0 <_data_lma+0x5d80>
    4868:	8c5d                	or	s0,s0,a5
    486a:	bcbfd0ef          	jal	ra,2434 <htons>
    486e:	8c69                	and	s0,s0,a0
    4870:	4545                	li	a0,17
    4872:	bc3fd0ef          	jal	ra,2434 <htons>
    4876:	8c49                	or	s0,s0,a0
    4878:	01041793          	slli	a5,s0,0x10
    487c:	83c1                	srli	a5,a5,0x10
    487e:	00f98623          	sb	a5,12(s3)
    4882:	83a1                	srli	a5,a5,0x8
    4884:	00f986a3          	sb	a5,13(s3)
    4888:	00895703          	lhu	a4,8(s2)
    488c:	00448413          	addi	s0,s1,4
    4890:	4699                	li	a3,6
    4892:	8622                	mv	a2,s0
    4894:	85a6                	mv	a1,s1
    4896:	854a                	mv	a0,s2
    4898:	026020ef          	jal	ra,68be <inet_chksum_pseudo>
    489c:	00a98823          	sb	a0,16(s3)
    48a0:	8121                	srli	a0,a0,0x8
    48a2:	00a988a3          	sb	a0,17(s3)
    48a6:	34b4                	lbu	a3,11(s1)
    48a8:	4799                	li	a5,6
    48aa:	4701                	li	a4,0
    48ac:	8622                	mv	a2,s0
    48ae:	85a6                	mv	a1,s1
    48b0:	854a                	mv	a0,s2
    48b2:	5e2020ef          	jal	ra,6e94 <ip_output>
    48b6:	854a                	mv	a0,s2
    48b8:	ea6fe0ef          	jal	ra,2f5e <pbuf_free>
    48bc:	98ffb06f          	j	24a <__riscv_restore_4>
    48c0:	4a01                	li	s4,0
    48c2:	45d5                	li	a1,21
    48c4:	b7a5                	j	482c <tcp_zero_window_probe+0x28>
    48c6:	4418                	lw	a4,8(s0)
    48c8:	00492783          	lw	a5,4(s2)
    48cc:	00070703          	lb	a4,0(a4)
    48d0:	abd8                	sb	a4,20(a5)
    48d2:	bf5d                	j	4888 <tcp_zero_window_probe+0x84>

000048d4 <WCH_GetMac>:
WCH_GetMac():
    48d4:	1ffff737          	lui	a4,0x1ffff
    48d8:	4781                	li	a5,0
    48da:	7ed70713          	addi	a4,a4,2029 # 1ffff7ed <_data_lma+0x1fff55ad>
    48de:	4699                	li	a3,6
    48e0:	40f70633          	sub	a2,a4,a5
    48e4:	220c                	lbu	a1,0(a2)
    48e6:	00f50633          	add	a2,a0,a5
    48ea:	0785                	addi	a5,a5,1
    48ec:	a20c                	sb	a1,0(a2)
    48ee:	fed799e3          	bne	a5,a3,48e0 <WCH_GetMac+0xc>
    48f2:	8082                	ret

000048f4 <ETH_RxPkt_Handle>:
ETH_RxPkt_Handle():
    48f4:	882a                	mv	a6,a0
    48f6:	8741a883          	lw	a7,-1932(gp) # 200000e4 <DMARxDescToGet>
    48fa:	0008a603          	lw	a2,0(a7)
    48fe:	00065d63          	bgez	a2,4918 <ETH_RxPkt_Handle+0x24>
    4902:	400297b7          	lui	a5,0x40029
    4906:	4bd8                	lw	a4,20(a5)
    4908:	08077713          	andi	a4,a4,128
    490c:	c711                	beqz	a4,4918 <ETH_RxPkt_Handle+0x24>
    490e:	08000713          	li	a4,128
    4912:	cbd8                	sw	a4,20(a5)
    4914:	0007a423          	sw	zero,8(a5) # 40029008 <_eusrstack+0x20009008>
    4918:	67a1                	lui	a5,0x8
    491a:	30078793          	addi	a5,a5,768 # 8300 <tcp_input+0x82c>
    491e:	8ff1                	and	a5,a5,a2
    4920:	30000713          	li	a4,768
    4924:	08e79f63          	bne	a5,a4,49c2 <ETH_RxPkt_Handle+0xce>
    4928:	2001e737          	lui	a4,0x2001e
    492c:	cc470793          	addi	a5,a4,-828 # 2001dcc4 <RxCtrl>
    4930:	0c47a683          	lw	a3,196(a5)
    4934:	4589                	li	a1,2
    4936:	5f000313          	li	t1,1520
    493a:	068a                	slli	a3,a3,0x2
    493c:	96be                	add	a3,a3,a5
    493e:	c28c                	sw	a1,0(a3)
    4940:	0c47a683          	lw	a3,196(a5)
    4944:	00261593          	slli	a1,a2,0x2
    4948:	81c9                	srli	a1,a1,0x12
    494a:	06c1                	addi	a3,a3,16
    494c:	068a                	slli	a3,a3,0x2
    494e:	15f1                	addi	a1,a1,-4
    4950:	96be                	add	a3,a3,a5
    4952:	c28c                	sw	a1,0(a3)
    4954:	0c47a583          	lw	a1,196(a5)
    4958:	0c47a683          	lw	a3,196(a5)
    495c:	026585b3          	mul	a1,a1,t1
    4960:	02068693          	addi	a3,a3,32
    4964:	2000c337          	lui	t1,0x2000c
    4968:	16430313          	addi	t1,t1,356 # 2000c164 <MACRxBuf>
    496c:	068a                	slli	a3,a3,0x2
    496e:	96be                	add	a3,a3,a5
    4970:	959a                	add	a1,a1,t1
    4972:	c28c                	sw	a1,0(a3)
    4974:	0c47a683          	lw	a3,196(a5)
    4978:	02068693          	addi	a3,a3,32
    497c:	068a                	slli	a3,a3,0x2
    497e:	96be                	add	a3,a3,a5
    4980:	4294                	lw	a3,0(a3)
    4982:	0c87a683          	lw	a3,200(a5)
    4986:	0685                	addi	a3,a3,1
    4988:	0cd7a423          	sw	a3,200(a5)
    498c:	0c47a683          	lw	a3,196(a5)
    4990:	0685                	addi	a3,a3,1
    4992:	0cd7a223          	sw	a3,196(a5)
    4996:	0c47a583          	lw	a1,196(a5)
    499a:	46a5                	li	a3,9
    499c:	00b6f463          	bgeu	a3,a1,49a4 <ETH_RxPkt_Handle+0xb0>
    49a0:	0c07a223          	sw	zero,196(a5)
    49a4:	0c47a703          	lw	a4,196(a5)
    49a8:	4685                	li	a3,1
    49aa:	070a                	slli	a4,a4,0x2
    49ac:	973e                	add	a4,a4,a5
    49ae:	c314                	sw	a3,0(a4)
    49b0:	0cd7a623          	sw	a3,204(a5)
    49b4:	0c87a683          	lw	a3,200(a5)
    49b8:	4729                	li	a4,10
    49ba:	00d77463          	bgeu	a4,a3,49c2 <ETH_RxPkt_Handle+0xce>
    49be:	0ce7a423          	sw	a4,200(a5)
    49c2:	800007b7          	lui	a5,0x80000
    49c6:	8e5d                	or	a2,a2,a5
    49c8:	00c8a783          	lw	a5,12(a7)
    49cc:	00c8a023          	sw	a2,0(a7)
    49d0:	86f1aa23          	sw	a5,-1932(gp) # 200000e4 <DMARxDescToGet>
    49d4:	8542                	mv	a0,a6
    49d6:	8082                	ret

000049d8 <ETH_TxPkt_ChainMode>:
ETH_TxPkt_ChainMode():
    49d8:	8781a703          	lw	a4,-1928(gp) # 200000e8 <DMATxDescToSet>
    49dc:	4314                	lw	a3,0(a4)
    49de:	0206c763          	bltz	a3,4a0c <ETH_TxPkt_ChainMode+0x34>
    49e2:	b0000637          	lui	a2,0xb0000
    49e6:	054e                	slli	a0,a0,0x13
    49e8:	8ed1                	or	a3,a3,a2
    49ea:	814d                	srli	a0,a0,0x13
    49ec:	c314                	sw	a3,0(a4)
    49ee:	c348                	sw	a0,4(a4)
    49f0:	400296b7          	lui	a3,0x40029
    49f4:	4ad0                	lw	a2,20(a3)
    49f6:	8a11                	andi	a2,a2,4
    49f8:	c609                	beqz	a2,4a02 <ETH_TxPkt_ChainMode+0x2a>
    49fa:	4611                	li	a2,4
    49fc:	cad0                	sw	a2,20(a3)
    49fe:	0006a223          	sw	zero,4(a3) # 40029004 <_eusrstack+0x20009004>
    4a02:	4758                	lw	a4,12(a4)
    4a04:	4505                	li	a0,1
    4a06:	86e1ac23          	sw	a4,-1928(gp) # 200000e8 <DMATxDescToSet>
    4a0a:	8082                	ret
    4a0c:	4501                	li	a0,0
    4a0e:	8082                	ret

00004a10 <mac_send>:
mac_send():
    4a10:	821fb2ef          	jal	t0,230 <__riscv_save_0>
    4a14:	892e                	mv	s2,a1
    4a16:	842a                	mv	s0,a0
    4a18:	f85fc0ef          	jal	ra,199c <ETH_GetCurrentTxBufferAddress>
    4a1c:	85a2                	mv	a1,s0
    4a1e:	864a                	mv	a2,s2
    4a20:	2e0040ef          	jal	ra,8d00 <memcpy>
    4a24:	e000e437          	lui	s0,0xe000e
    4a28:	6489                	lui	s1,0x2
    4a2a:	18942423          	sw	s1,392(s0) # e000e188 <_eusrstack+0xbffee188>
    4a2e:	854a                	mv	a0,s2
    4a30:	fa9ff0ef          	jal	ra,49d8 <ETH_TxPkt_ChainMode>
    4a34:	10942423          	sw	s1,264(s0)
    4a38:	4705                	li	a4,1
    4a3a:	8ae1a423          	sw	a4,-1880(gp) # 20000118 <SuccessPackets>
    4a3e:	817fb06f          	j	254 <__riscv_restore_0>

00004a42 <ETH_Init>:
ETH_Init():
    4a42:	feefb2ef          	jal	t0,230 <__riscv_save_0>
    4a46:	1141                	addi	sp,sp,-16
    4a48:	40028737          	lui	a4,0x40028
    4a4c:	c602                	sw	zero,12(sp)
    4a4e:	4b1c                	lw	a5,16(a4)
    4a50:	84ae                	mv	s1,a1
    4a52:	6621                	lui	a2,0x8
    4a54:	9b8d                	andi	a5,a5,-29
    4a56:	cb1c                	sw	a5,16(a4)
    4a58:	4581                	li	a1,0
    4a5a:	842a                	mv	s0,a0
    4a5c:	8526                	mv	a0,s1
    4a5e:	de9fc0ef          	jal	ra,1846 <ETH_WritePHYRegister>
    4a62:	06400513          	li	a0,100
    4a66:	ca0fd0ef          	jal	ra,1f06 <Delay_Ms>
    4a6a:	4581                	li	a1,0
    4a6c:	8526                	mv	a0,s1
    4a6e:	d81fc0ef          	jal	ra,17ee <ETH_ReadPHYRegister>
    4a72:	10057793          	andi	a5,a0,256
    4a76:	4681                	li	a3,0
    4a78:	c781                	beqz	a5,4a80 <ETH_Init+0x3e>
    4a7a:	6785                	lui	a5,0x1
    4a7c:	80078693          	addi	a3,a5,-2048 # 800 <__stack_size>
    4a80:	8135                	srli	a0,a0,0xd
    4a82:	8905                	andi	a0,a0,1
    4a84:	440c                	lw	a1,8(s0)
    4a86:	405c                	lw	a5,4(s0)
    4a88:	053a                	slli	a0,a0,0xe
    4a8a:	d014                	sw	a3,32(s0)
    4a8c:	c848                	sw	a0,20(s0)
    4a8e:	40028737          	lui	a4,0x40028
    4a92:	4310                	lw	a2,0(a4)
    4a94:	8fcd                	or	a5,a5,a1
    4a96:	ff2085b7          	lui	a1,0xff208
    4a9a:	10f58593          	addi	a1,a1,271 # ff20810f <_eusrstack+0xdf1e810f>
    4a9e:	8e6d                	and	a2,a2,a1
    4aa0:	8fd1                	or	a5,a5,a2
    4aa2:	4450                	lw	a2,12(s0)
    4aa4:	8fd1                	or	a5,a5,a2
    4aa6:	4810                	lw	a2,16(s0)
    4aa8:	8fd1                	or	a5,a5,a2
    4aaa:	4c10                	lw	a2,24(s0)
    4aac:	8fd1                	or	a5,a5,a2
    4aae:	4c50                	lw	a2,28(s0)
    4ab0:	8fd1                	or	a5,a5,a2
    4ab2:	5050                	lw	a2,36(s0)
    4ab4:	8fd1                	or	a5,a5,a2
    4ab6:	5410                	lw	a2,40(s0)
    4ab8:	8fd1                	or	a5,a5,a2
    4aba:	5450                	lw	a2,44(s0)
    4abc:	8fd1                	or	a5,a5,a2
    4abe:	5810                	lw	a2,48(s0)
    4ac0:	8fd1                	or	a5,a5,a2
    4ac2:	5850                	lw	a2,52(s0)
    4ac4:	8fd1                	or	a5,a5,a2
    4ac6:	8fd5                	or	a5,a5,a3
    4ac8:	8fc9                	or	a5,a5,a0
    4aca:	c31c                	sw	a5,0(a4)
    4acc:	431c                	lw	a5,0(a4)
    4ace:	001006b7          	lui	a3,0x100
    4ad2:	4505                	li	a0,1
    4ad4:	8fd5                	or	a5,a5,a3
    4ad6:	c31c                	sw	a5,0(a4)
    4ad8:	5c54                	lw	a3,60(s0)
    4ada:	5c1c                	lw	a5,56(s0)
    4adc:	8fd5                	or	a5,a5,a3
    4ade:	4034                	lw	a3,64(s0)
    4ae0:	8fd5                	or	a5,a5,a3
    4ae2:	4074                	lw	a3,68(s0)
    4ae4:	8fd5                	or	a5,a5,a3
    4ae6:	4434                	lw	a3,72(s0)
    4ae8:	8fd5                	or	a5,a5,a3
    4aea:	4474                	lw	a3,76(s0)
    4aec:	8fd5                	or	a5,a5,a3
    4aee:	4834                	lw	a3,80(s0)
    4af0:	8fd5                	or	a5,a5,a3
    4af2:	4874                	lw	a3,84(s0)
    4af4:	8fd5                	or	a5,a5,a3
    4af6:	c35c                	sw	a5,4(a4)
    4af8:	4c3c                	lw	a5,88(s0)
    4afa:	c71c                	sw	a5,8(a4)
    4afc:	4c7c                	lw	a5,92(s0)
    4afe:	c75c                	sw	a5,12(a4)
    4b00:	4f14                	lw	a3,24(a4)
    4b02:	507c                	lw	a5,100(s0)
    4b04:	5430                	lw	a2,104(s0)
    4b06:	8fd1                	or	a5,a5,a2
    4b08:	6641                	lui	a2,0x10
    4b0a:	f4160613          	addi	a2,a2,-191 # ff41 <_data_lma+0x5d01>
    4b0e:	8ef1                	and	a3,a3,a2
    4b10:	8fd5                	or	a5,a5,a3
    4b12:	5474                	lw	a3,108(s0)
    4b14:	8fd5                	or	a5,a5,a3
    4b16:	5834                	lw	a3,112(s0)
    4b18:	8fd5                	or	a5,a5,a3
    4b1a:	5874                	lw	a3,116(s0)
    4b1c:	8fd5                	or	a5,a5,a3
    4b1e:	5034                	lw	a3,96(s0)
    4b20:	06c2                	slli	a3,a3,0x10
    4b22:	8fd5                	or	a5,a5,a3
    4b24:	cf1c                	sw	a5,24(a4)
    4b26:	5c74                	lw	a3,124(s0)
    4b28:	5c3c                	lw	a5,120(s0)
    4b2a:	8fd5                	or	a5,a5,a3
    4b2c:	cf5c                	sw	a5,28(a4)
    4b2e:	08442603          	lw	a2,132(s0)
    4b32:	08042783          	lw	a5,128(s0)
    4b36:	40029737          	lui	a4,0x40029
    4b3a:	4f14                	lw	a3,24(a4)
    4b3c:	8fd1                	or	a5,a5,a2
    4b3e:	f8de4637          	lui	a2,0xf8de4
    4b42:	f2360613          	addi	a2,a2,-221 # f8de3f23 <_eusrstack+0xd8dc3f23>
    4b46:	8ef1                	and	a3,a3,a2
    4b48:	8fd5                	or	a5,a5,a3
    4b4a:	08842683          	lw	a3,136(s0)
    4b4e:	8fd5                	or	a5,a5,a3
    4b50:	08c42683          	lw	a3,140(s0)
    4b54:	8fd5                	or	a5,a5,a3
    4b56:	09042683          	lw	a3,144(s0)
    4b5a:	8fd5                	or	a5,a5,a3
    4b5c:	09442683          	lw	a3,148(s0)
    4b60:	8fd5                	or	a5,a5,a3
    4b62:	09842683          	lw	a3,152(s0)
    4b66:	8fd5                	or	a5,a5,a3
    4b68:	09c42683          	lw	a3,156(s0)
    4b6c:	8fd5                	or	a5,a5,a3
    4b6e:	0a042683          	lw	a3,160(s0)
    4b72:	8fd5                	or	a5,a5,a3
    4b74:	cf1c                	sw	a5,24(a4)
    4b76:	0a842683          	lw	a3,168(s0)
    4b7a:	0a442783          	lw	a5,164(s0)
    4b7e:	8fd5                	or	a5,a5,a3
    4b80:	0b442683          	lw	a3,180(s0)
    4b84:	068a                	slli	a3,a3,0x2
    4b86:	8fd5                	or	a5,a5,a3
    4b88:	0ac42683          	lw	a3,172(s0)
    4b8c:	8fd5                	or	a5,a5,a3
    4b8e:	0b042683          	lw	a3,176(s0)
    4b92:	8fd5                	or	a5,a5,a3
    4b94:	0b842683          	lw	a3,184(s0)
    4b98:	8fd5                	or	a5,a5,a3
    4b9a:	008006b7          	lui	a3,0x800
    4b9e:	8fd5                	or	a5,a5,a3
    4ba0:	c31c                	sw	a5,0(a4)
    4ba2:	0141                	addi	sp,sp,16
    4ba4:	eb0fb06f          	j	254 <__riscv_restore_0>

00004ba8 <Ethernet_LED_Configuration>:
Ethernet_LED_Configuration():
    4ba8:	e88fb2ef          	jal	t0,230 <__riscv_save_0>
    4bac:	1141                	addi	sp,sp,-16
    4bae:	4585                	li	a1,1
    4bb0:	4521                	li	a0,8
    4bb2:	c202                	sw	zero,4(sp)
    4bb4:	c402                	sw	zero,8(sp)
    4bb6:	c602                	sw	zero,12(sp)
    4bb8:	87efd0ef          	jal	ra,1c36 <RCC_APB2PeriphClockCmd>
    4bbc:	30000793          	li	a5,768
    4bc0:	40011437          	lui	s0,0x40011
    4bc4:	827c                	sh	a5,4(sp)
    4bc6:	47c1                	li	a5,16
    4bc8:	c63e                	sw	a5,12(sp)
    4bca:	004c                	addi	a1,sp,4
    4bcc:	478d                	li	a5,3
    4bce:	c0040513          	addi	a0,s0,-1024 # 40010c00 <_eusrstack+0x1fff0c00>
    4bd2:	c43e                	sw	a5,8(sp)
    4bd4:	dd1fc0ef          	jal	ra,19a4 <GPIO_Init>
    4bd8:	c0040513          	addi	a0,s0,-1024
    4bdc:	10000593          	li	a1,256
    4be0:	e85fc0ef          	jal	ra,1a64 <GPIO_SetBits>
    4be4:	20000593          	li	a1,512
    4be8:	c0040513          	addi	a0,s0,-1024
    4bec:	e79fc0ef          	jal	ra,1a64 <GPIO_SetBits>
    4bf0:	0141                	addi	sp,sp,16
    4bf2:	e62fb06f          	j	254 <__riscv_restore_0>

00004bf6 <Ethernet_LED_LINKSET>:
Ethernet_LED_LINKSET():
    4bf6:	e3afb2ef          	jal	t0,230 <__riscv_save_0>
    4bfa:	10000593          	li	a1,256
    4bfe:	c909                	beqz	a0,4c10 <Ethernet_LED_LINKSET+0x1a>
    4c00:	40011537          	lui	a0,0x40011
    4c04:	c0050513          	addi	a0,a0,-1024 # 40010c00 <_eusrstack+0x1fff0c00>
    4c08:	e5dfc0ef          	jal	ra,1a64 <GPIO_SetBits>
    4c0c:	e48fb06f          	j	254 <__riscv_restore_0>
    4c10:	40011537          	lui	a0,0x40011
    4c14:	c0050513          	addi	a0,a0,-1024 # 40010c00 <_eusrstack+0x1fff0c00>
    4c18:	e51fc0ef          	jal	ra,1a68 <GPIO_ResetBits>
    4c1c:	bfc5                	j	4c0c <Ethernet_LED_LINKSET+0x16>

00004c1e <Ethernet_LED_DATASET>:
Ethernet_LED_DATASET():
    4c1e:	e12fb2ef          	jal	t0,230 <__riscv_save_0>
    4c22:	20000593          	li	a1,512
    4c26:	c909                	beqz	a0,4c38 <Ethernet_LED_DATASET+0x1a>
    4c28:	40011537          	lui	a0,0x40011
    4c2c:	c0050513          	addi	a0,a0,-1024 # 40010c00 <_eusrstack+0x1fff0c00>
    4c30:	e35fc0ef          	jal	ra,1a64 <GPIO_SetBits>
    4c34:	e20fb06f          	j	254 <__riscv_restore_0>
    4c38:	40011537          	lui	a0,0x40011
    4c3c:	c0050513          	addi	a0,a0,-1024 # 40010c00 <_eusrstack+0x1fff0c00>
    4c40:	e29fc0ef          	jal	ra,1a68 <GPIO_ResetBits>
    4c44:	bfc5                	j	4c34 <Ethernet_LED_DATASET+0x16>

00004c46 <Ethernet_Configuration>:
Ethernet_Configuration():
    4c46:	deafb2ef          	jal	t0,230 <__riscv_save_0>
    4c4a:	7131                	addi	sp,sp,-192
    4c4c:	4585                	li	a1,1
    4c4e:	6571                	lui	a0,0x1c
    4c50:	fc9fc0ef          	jal	ra,1c18 <RCC_AHBPeriphClockCmd>
    4c54:	40024737          	lui	a4,0x40024
    4c58:	80072783          	lw	a5,-2048(a4) # 40023800 <_eusrstack+0x20003800>
    4c5c:	6409                	lui	s0,0x2
    4c5e:	0047e793          	ori	a5,a5,4
    4c62:	80f72023          	sw	a5,-2048(a4)
    4c66:	a9dfc0ef          	jal	ra,1702 <ETH_DeInit>
    4c6a:	cbdfc0ef          	jal	ra,1926 <ETH_SoftwareReset>
    4c6e:	0048                	addi	a0,sp,4
    4c70:	aa7fc0ef          	jal	ra,1716 <ETH_StructInit>
    4c74:	6785                	lui	a5,0x1
    4c76:	80078793          	addi	a5,a5,-2048 # 800 <__stack_size>
    4c7a:	d23e                	sw	a5,36(sp)
    4c7c:	67a1                	lui	a5,0x8
    4c7e:	cc3e                	sw	a5,24(sp)
    4c80:	20000713          	li	a4,512
    4c84:	4785                	li	a5,1
    4c86:	c23e                	sw	a5,4(sp)
    4c88:	d63a                	sw	a4,44(sp)
    4c8a:	c8be                	sw	a5,80(sp)
    4c8c:	80000737          	lui	a4,0x80000
    4c90:	020007b7          	lui	a5,0x2000
    4c94:	de3a                	sw	a4,60(sp)
    4c96:	c53e                	sw	a5,136(sp)
    4c98:	d53e                	sw	a5,168(sp)
    4c9a:	00200737          	lui	a4,0x200
    4c9e:	67c1                	lui	a5,0x10
    4ca0:	c93a                	sw	a4,144(sp)
    4ca2:	d73e                	sw	a5,172(sp)
    4ca4:	08000713          	li	a4,128
    4ca8:	004007b7          	lui	a5,0x400
    4cac:	cd3a                	sw	a4,152(sp)
    4cae:	d93e                	sw	a5,176(sp)
    4cb0:	04000713          	li	a4,64
    4cb4:	6791                	lui	a5,0x4
    4cb6:	4585                	li	a1,1
    4cb8:	0048                	addi	a0,sp,4
    4cba:	cf3a                	sw	a4,156(sp)
    4cbc:	df3e                	sw	a5,188(sp)
    4cbe:	db22                	sw	s0,180(sp)
    4cc0:	d002                	sw	zero,32(sp)
    4cc2:	d802                	sw	zero,48(sp)
    4cc4:	c482                	sw	zero,72(sp)
    4cc6:	ca82                	sw	zero,84(sp)
    4cc8:	cc82                	sw	zero,88(sp)
    4cca:	c302                	sw	zero,132(sp)
    4ccc:	d302                	sw	zero,164(sp)
    4cce:	d75ff0ef          	jal	ra,4a42 <ETH_Init>
    4cd2:	80010537          	lui	a0,0x80010
    4cd6:	4585                	li	a1,1
    4cd8:	04150513          	addi	a0,a0,65 # 80010041 <_eusrstack+0x5fff0041>
    4cdc:	ca3fc0ef          	jal	ra,197e <ETH_DMAITConfig>
    4ce0:	e000e7b7          	lui	a5,0xe000e
    4ce4:	440786a3          	sb	zero,1101(a5) # e000e44d <_eusrstack+0xbffee44d>
    4ce8:	1087a423          	sw	s0,264(a5)
    4cec:	ebdff0ef          	jal	ra,4ba8 <Ethernet_LED_Configuration>
    4cf0:	6129                	addi	sp,sp,192
    4cf2:	d62fb06f          	j	254 <__riscv_restore_0>

00004cf6 <IPCheckParaInit>:
IPCheckParaInit():
    4cf6:	8a01a703          	lw	a4,-1888(gp) # 20000110 <LocalTime>
    4cfa:	2001e7b7          	lui	a5,0x2001e
    4cfe:	e3478793          	addi	a5,a5,-460 # 2001de34 <SelARP>
    4d02:	a388                	sb	a0,0(a5)
    4d04:	00079123          	sh	zero,2(a5)
    4d08:	00079223          	sh	zero,4(a5)
    4d0c:	c798                	sw	a4,8(a5)
    4d0e:	000780a3          	sb	zero,1(a5)
    4d12:	8082                	ret

00004d14 <SelIPARPSend>:
SelIPARPSend():
    4d14:	d1cfb2ef          	jal	t0,230 <__riscv_save_0>
    4d18:	2001e4b7          	lui	s1,0x2001e
    4d1c:	da848413          	addi	s0,s1,-600 # 2001dda8 <WCHNetIf>
    4d20:	405c                	lw	a5,4(s0)
    4d22:	1141                	addi	sp,sp,-16
    4d24:	006c                	addi	a1,sp,12
    4d26:	da848513          	addi	a0,s1,-600
    4d2a:	c63e                	sw	a5,12(sp)
    4d2c:	00042223          	sw	zero,4(s0) # 2004 <low_level_output+0x86>
    4d30:	4c6010ef          	jal	ra,61f6 <etharp_request>
    4d34:	47b2                	lw	a5,12(sp)
    4d36:	006c                	addi	a1,sp,12
    4d38:	da848513          	addi	a0,s1,-600
    4d3c:	c05c                	sw	a5,4(s0)
    4d3e:	445c                	lw	a5,12(s0)
    4d40:	c63e                	sw	a5,12(sp)
    4d42:	4b4010ef          	jal	ra,61f6 <etharp_request>
    4d46:	0141                	addi	sp,sp,16
    4d48:	d0cfb06f          	j	254 <__riscv_restore_0>

00004d4c <IPCheckTmr>:
IPCheckTmr():
    4d4c:	2001e7b7          	lui	a5,0x2001e
    4d50:	e3478793          	addi	a5,a5,-460 # 2001de34 <SelARP>
    4d54:	2398                	lbu	a4,0(a5)
    4d56:	e319                	bnez	a4,4d5c <IPCheckTmr+0x10>
    4d58:	c788                	sw	a0,8(a5)
    4d5a:	8082                	ret
    4d5c:	4798                	lw	a4,8(a5)
    4d5e:	3e700693          	li	a3,999
    4d62:	40e50733          	sub	a4,a0,a4
    4d66:	02e6f363          	bgeu	a3,a4,4d8c <IPCheckTmr+0x40>
    4d6a:	cc6fb2ef          	jal	t0,230 <__riscv_save_0>
    4d6e:	23ba                	lhu	a4,2(a5)
    4d70:	c788                	sw	a0,8(a5)
    4d72:	4691                	li	a3,4
    4d74:	00e6f763          	bgeu	a3,a4,4d82 <IPCheckTmr+0x36>
    4d78:	4501                	li	a0,0
    4d7a:	f7dff0ef          	jal	ra,4cf6 <IPCheckParaInit>
    4d7e:	cd6fb06f          	j	254 <__riscv_restore_0>
    4d82:	0705                	addi	a4,a4,1
    4d84:	a3ba                	sh	a4,2(a5)
    4d86:	f8fff0ef          	jal	ra,4d14 <SelIPARPSend>
    4d8a:	bfd5                	j	4d7e <IPCheckTmr+0x32>
    4d8c:	8082                	ret

00004d8e <ArpCheck>:
ArpCheck():
    4d8e:	ca2fb2ef          	jal	t0,230 <__riscv_save_0>
    4d92:	8fc18413          	addi	s0,gp,-1796 # 2000016c <ArpCheckTime>
    4d96:	4018                	lw	a4,0(s0)
    4d98:	67bd                	lui	a5,0xf
    4d9a:	a5f78793          	addi	a5,a5,-1441 # ea5f <_data_lma+0x481f>
    4d9e:	40e50733          	sub	a4,a0,a4
    4da2:	00e7f663          	bgeu	a5,a4,4dae <ArpCheck+0x20>
    4da6:	84aa                	mv	s1,a0
    4da8:	f6dff0ef          	jal	ra,4d14 <SelIPARPSend>
    4dac:	c004                	sw	s1,0(s0)
    4dae:	ca6fb06f          	j	254 <__riscv_restore_0>

00004db2 <IPConflictHandle>:
IPConflictHandle():
    4db2:	c7efb2ef          	jal	t0,230 <__riscv_save_0>
    4db6:	842a                	mv	s0,a0
    4db8:	4501                	li	a0,0
    4dba:	f3dff0ef          	jal	ra,4cf6 <IPCheckParaInit>
    4dbe:	2001e7b7          	lui	a5,0x2001e
    4dc2:	e3478793          	addi	a5,a5,-460 # 2001de34 <SelARP>
    4dc6:	c811                	beqz	s0,4dda <IPConflictHandle+0x28>
    4dc8:	4705                	li	a4,1
    4dca:	b398                	sb	a4,1(a5)
    4dcc:	2001e7b7          	lui	a5,0x2001e
    4dd0:	4709                	li	a4,2
    4dd2:	e6e7ac23          	sw	a4,-392(a5) # 2001de78 <NetInf+0x2c>
    4dd6:	c7efb06f          	j	254 <__riscv_restore_0>
    4dda:	000780a3          	sb	zero,1(a5)
    4dde:	bfe5                	j	4dd6 <IPConflictHandle+0x24>

00004de0 <CH563TCPError>:
CH563TCPError():
    4de0:	8082                	ret

00004de2 <LwipTCPSendCallBack>:
LwipTCPSendCallBack():
    4de2:	03852803          	lw	a6,56(a0)
    4de6:	02080a63          	beqz	a6,4e1a <LwipTCPSendCallBack+0x38>
    4dea:	c46fb2ef          	jal	t0,230 <__riscv_save_0>
    4dee:	5dbc                	lw	a5,120(a1)
    4df0:	4701                	li	a4,0
    4df2:	c791                	beqz	a5,4dfe <LwipTCPSendCallBack+0x1c>
    4df4:	0705                	addi	a4,a4,1
    4df6:	0742                	slli	a4,a4,0x10
    4df8:	8341                	srli	a4,a4,0x10
    4dfa:	439c                	lw	a5,0(a5)
    4dfc:	bfdd                	j	4df2 <LwipTCPSendCallBack+0x10>
    4dfe:	5dfc                	lw	a5,124(a1)
    4e00:	c791                	beqz	a5,4e0c <LwipTCPSendCallBack+0x2a>
    4e02:	0705                	addi	a4,a4,1
    4e04:	0742                	slli	a4,a4,0x10
    4e06:	8341                	srli	a4,a4,0x10
    4e08:	439c                	lw	a5,0(a5)
    4e0a:	bfdd                	j	4e00 <LwipTCPSendCallBack+0x1e>
    4e0c:	4681                	li	a3,0
    4e0e:	4601                	li	a2,0
    4e10:	4581                	li	a1,0
    4e12:	9802                	jalr	a6
    4e14:	4501                	li	a0,0
    4e16:	c3efb06f          	j	254 <__riscv_restore_0>
    4e1a:	4501                	li	a0,0
    4e1c:	8082                	ret

00004e1e <LwipTCPPollCallBack>:
LwipTCPPollCallBack():
    4e1e:	4501                	li	a0,0
    4e20:	8082                	ret

00004e22 <SocketIPRAWReceive>:
SocketIPRAWReceive():
    4e22:	bf4fb2ef          	jal	t0,216 <__riscv_save_4>
    4e26:	425c                	lw	a5,4(a2)
    4e28:	4900                	lw	s0,16(a0)
    4e2a:	00c52903          	lw	s2,12(a0)
    4e2e:	84aa                	mv	s1,a0
    4e30:	2388                	lbu	a0,0(a5)
    4e32:	339c                	lbu	a5,1(a5)
    4e34:	8a32                	mv	s4,a2
    4e36:	07a2                	slli	a5,a5,0x8
    4e38:	8d5d                	or	a0,a0,a5
    4e3a:	e08fd0ef          	jal	ra,2442 <ntohs>
    4e3e:	00655593          	srli	a1,a0,0x6
    4e42:	03c5f593          	andi	a1,a1,60
    4e46:	40b005b3          	neg	a1,a1
    4e4a:	8552                	mv	a0,s4
    4e4c:	8a4fe0ef          	jal	ra,2ef0 <pbuf_header>
    4e50:	e941                	bnez	a0,4ee0 <SocketIPRAWReceive+0xbe>
    4e52:	c019                	beqz	s0,4e58 <SocketIPRAWReceive+0x36>
    4e54:	44dc                	lw	a5,12(s1)
    4e56:	e799                	bnez	a5,4e64 <SocketIPRAWReceive+0x42>
    4e58:	8552                	mv	a0,s4
    4e5a:	904fe0ef          	jal	ra,2f5e <pbuf_free>
    4e5e:	4505                	li	a0,1
    4e60:	beafb06f          	j	24a <__riscv_restore_4>
    4e64:	01240733          	add	a4,s0,s2
    4e68:	87d2                	mv	a5,s4
    4e6a:	4981                	li	s3,0
    4e6c:	177d                	addi	a4,a4,-1
    4e6e:	27b6                	lhu	a3,10(a5)
    4e70:	43cc                	lw	a1,4(a5)
    4e72:	99b6                	add	s3,s3,a3
    4e74:	09c2                	slli	s3,s3,0x10
    4e76:	96a2                	add	a3,a3,s0
    4e78:	0109d993          	srli	s3,s3,0x10
    4e7c:	04d76a63          	bltu	a4,a3,4ed0 <SocketIPRAWReceive+0xae>
    4e80:	4681                	li	a3,0
    4e82:	00a7d803          	lhu	a6,10(a5)
    4e86:	01069513          	slli	a0,a3,0x10
    4e8a:	8141                	srli	a0,a0,0x10
    4e8c:	00d40633          	add	a2,s0,a3
    4e90:	05056263          	bltu	a0,a6,4ed4 <SocketIPRAWReceive+0xb2>
    4e94:	8432                	mv	s0,a2
    4e96:	a015                	j	4eba <SocketIPRAWReceive+0x98>
    4e98:	00d58533          	add	a0,a1,a3
    4e9c:	2108                	lbu	a0,0(a0)
    4e9e:	00140613          	addi	a2,s0,1
    4ea2:	a008                	sb	a0,0(s0)
    4ea4:	00c77363          	bgeu	a4,a2,4eaa <SocketIPRAWReceive+0x88>
    4ea8:	4490                	lw	a2,8(s1)
    4eaa:	0685                	addi	a3,a3,1
    4eac:	8432                	mv	s0,a2
    4eae:	27aa                	lhu	a0,10(a5)
    4eb0:	01069613          	slli	a2,a3,0x10
    4eb4:	8241                	srli	a2,a2,0x10
    4eb6:	fea661e3          	bltu	a2,a0,4e98 <SocketIPRAWReceive+0x76>
    4eba:	439c                	lw	a5,0(a5)
    4ebc:	fbcd                	bnez	a5,4e6e <SocketIPRAWReceive+0x4c>
    4ebe:	8552                	mv	a0,s4
    4ec0:	89efe0ef          	jal	ra,2f5e <pbuf_free>
    4ec4:	4c9c                	lw	a5,24(s1)
    4ec6:	c880                	sw	s0,16(s1)
    4ec8:	99be                	add	s3,s3,a5
    4eca:	0134ac23          	sw	s3,24(s1)
    4ece:	bf41                	j	4e5e <SocketIPRAWReceive+0x3c>
    4ed0:	4681                	li	a3,0
    4ed2:	bff1                	j	4eae <SocketIPRAWReceive+0x8c>
    4ed4:	00d58533          	add	a0,a1,a3
    4ed8:	2108                	lbu	a0,0(a0)
    4eda:	0685                	addi	a3,a3,1
    4edc:	a208                	sb	a0,0(a2)
    4ede:	b755                	j	4e82 <SocketIPRAWReceive+0x60>
    4ee0:	4501                	li	a0,0
    4ee2:	bfbd                	j	4e60 <SocketIPRAWReceive+0x3e>

00004ee4 <SocketUdpReceive>:
SocketUdpReceive():
    4ee4:	b32fb2ef          	jal	t0,216 <__riscv_save_4>
    4ee8:	842a                	mv	s0,a0
    4eea:	8532                	mv	a0,a2
    4eec:	5c10                	lw	a2,56(s0)
    4eee:	1141                	addi	sp,sp,-16
    4ef0:	4804                	lw	s1,16(s0)
    4ef2:	00c42803          	lw	a6,12(s0)
    4ef6:	ee19                	bnez	a2,4f14 <SocketUdpReceive+0x30>
    4ef8:	009805b3          	add	a1,a6,s1
    4efc:	15fd                	addi	a1,a1,-1
    4efe:	c901                	beqz	a0,4f0e <SocketUdpReceive+0x2a>
    4f00:	863a                	mv	a2,a4
    4f02:	8936                	mv	s2,a3
    4f04:	c099                	beqz	s1,4f0a <SocketUdpReceive+0x26>
    4f06:	00081963          	bnez	a6,4f18 <SocketUdpReceive+0x34>
    4f0a:	854fe0ef          	jal	ra,2f5e <pbuf_free>
    4f0e:	0141                	addi	sp,sp,16
    4f10:	b3afb06f          	j	24a <__riscv_restore_4>
    4f14:	4404                	lw	s1,8(s0)
    4f16:	b7cd                	j	4ef8 <SocketUdpReceive+0x14>
    4f18:	87aa                	mv	a5,a0
    4f1a:	4981                	li	s3,0
    4f1c:	27b6                	lhu	a3,10(a5)
    4f1e:	0047a803          	lw	a6,4(a5)
    4f22:	99b6                	add	s3,s3,a3
    4f24:	09c2                	slli	s3,s3,0x10
    4f26:	96a6                	add	a3,a3,s1
    4f28:	0109d993          	srli	s3,s3,0x10
    4f2c:	08d5eb63          	bltu	a1,a3,4fc2 <SocketUdpReceive+0xde>
    4f30:	4681                	li	a3,0
    4f32:	00a7d303          	lhu	t1,10(a5)
    4f36:	01069893          	slli	a7,a3,0x10
    4f3a:	0108d893          	srli	a7,a7,0x10
    4f3e:	00d48733          	add	a4,s1,a3
    4f42:	0868e263          	bltu	a7,t1,4fc6 <SocketUdpReceive+0xe2>
    4f46:	84ba                	mv	s1,a4
    4f48:	a02d                	j	4f72 <SocketUdpReceive+0x8e>
    4f4a:	00d808b3          	add	a7,a6,a3
    4f4e:	0008c883          	lbu	a7,0(a7)
    4f52:	00148713          	addi	a4,s1,1
    4f56:	01148023          	sb	a7,0(s1)
    4f5a:	00e5f363          	bgeu	a1,a4,4f60 <SocketUdpReceive+0x7c>
    4f5e:	4418                	lw	a4,8(s0)
    4f60:	0685                	addi	a3,a3,1
    4f62:	84ba                	mv	s1,a4
    4f64:	00a7d883          	lhu	a7,10(a5)
    4f68:	01069713          	slli	a4,a3,0x10
    4f6c:	8341                	srli	a4,a4,0x10
    4f6e:	fd176ee3          	bltu	a4,a7,4f4a <SocketUdpReceive+0x66>
    4f72:	439c                	lw	a5,0(a5)
    4f74:	f7c5                	bnez	a5,4f1c <SocketUdpReceive+0x38>
    4f76:	c632                	sw	a2,12(sp)
    4f78:	fe7fd0ef          	jal	ra,2f5e <pbuf_free>
    4f7c:	6705                	lui	a4,0x1
    4f7e:	03842803          	lw	a6,56(s0)
    4f82:	87ce                	mv	a5,s3
    4f84:	4632                	lw	a2,12(sp)
    4f86:	01377363          	bgeu	a4,s3,4f8c <SocketUdpReceive+0xa8>
    4f8a:	6785                	lui	a5,0x1
    4f8c:	01079713          	slli	a4,a5,0x10
    4f90:	8341                	srli	a4,a4,0x10
    4f92:	04080263          	beqz	a6,4fd6 <SocketUdpReceive+0xf2>
    4f96:	00194583          	lbu	a1,1(s2)
    4f9a:	00094783          	lbu	a5,0(s2)
    4f9e:	4414                	lw	a3,8(s0)
    4fa0:	05a2                	slli	a1,a1,0x8
    4fa2:	8ddd                	or	a1,a1,a5
    4fa4:	00294783          	lbu	a5,2(s2)
    4fa8:	8522                	mv	a0,s0
    4faa:	07c2                	slli	a5,a5,0x10
    4fac:	8fcd                	or	a5,a5,a1
    4fae:	00394583          	lbu	a1,3(s2)
    4fb2:	05e2                	slli	a1,a1,0x18
    4fb4:	8ddd                	or	a1,a1,a5
    4fb6:	9802                	jalr	a6
    4fb8:	441c                	lw	a5,8(s0)
    4fba:	00042c23          	sw	zero,24(s0)
    4fbe:	c81c                	sw	a5,16(s0)
    4fc0:	b7b9                	j	4f0e <SocketUdpReceive+0x2a>
    4fc2:	4681                	li	a3,0
    4fc4:	b745                	j	4f64 <SocketUdpReceive+0x80>
    4fc6:	00d808b3          	add	a7,a6,a3
    4fca:	0008c883          	lbu	a7,0(a7)
    4fce:	0685                	addi	a3,a3,1
    4fd0:	01170023          	sb	a7,0(a4) # 1000 <uart_tx+0x3e>
    4fd4:	bfb9                	j	4f32 <SocketUdpReceive+0x4e>
    4fd6:	4c1c                	lw	a5,24(s0)
    4fd8:	c804                	sw	s1,16(s0)
    4fda:	973e                	add	a4,a4,a5
    4fdc:	cc18                	sw	a4,24(s0)
    4fde:	bf05                	j	4f0e <SocketUdpReceive+0x2a>

00004fe0 <WCHSocketTCPReceive>:
WCHSocketTCPReceive():
    4fe0:	a20fb2ef          	jal	t0,200 <__riscv_save_12>
    4fe4:	90818713          	addi	a4,gp,-1784 # 20000178 <tcppackt>
    4fe8:	00072803          	lw	a6,0(a4)
    4fec:	491c                	lw	a5,16(a0)
    4fee:	00c52983          	lw	s3,12(a0)
    4ff2:	0805                	addi	a6,a6,1
    4ff4:	01072023          	sw	a6,0(a4)
    4ff8:	12078163          	beqz	a5,511a <WCHSocketTCPReceive+0x13a>
    4ffc:	8ab2                	mv	s5,a2
    4ffe:	892e                	mv	s2,a1
    5000:	842a                	mv	s0,a0
    5002:	10060663          	beqz	a2,510e <WCHSocketTCPReceive+0x12e>
    5006:	0265c703          	lbu	a4,38(a1)
    500a:	99be                	add	s3,s3,a5
    500c:	fff98b93          	addi	s7,s3,-1
    5010:	9b71                	andi	a4,a4,-4
    5012:	2001eb37          	lui	s6,0x2001e
    5016:	09c2                	slli	s3,s3,0x10
    5018:	00865c03          	lhu	s8,8(a2)
    501c:	84b2                	mv	s1,a2
    501e:	02e58323          	sb	a4,38(a1)
    5022:	4c91                	li	s9,4
    5024:	e90b0b13          	addi	s6,s6,-368 # 2001de90 <WCHCfg>
    5028:	0109d993          	srli	s3,s3,0x10
    502c:	24b2                	lhu	a2,10(s1)
    502e:	0044ad03          	lw	s10,4(s1)
    5032:	00c78733          	add	a4,a5,a2
    5036:	0aebf163          	bgeu	s7,a4,50d8 <WCHSocketTCPReceive+0xf8>
    503a:	010b2703          	lw	a4,16(s6)
    503e:	8b09                	andi	a4,a4,2
    5040:	cb51                	beqz	a4,50d4 <WCHSocketTCPReceive+0xf4>
    5042:	01079a13          	slli	s4,a5,0x10
    5046:	010a5a13          	srli	s4,s4,0x10
    504a:	41498db3          	sub	s11,s3,s4
    504e:	0dc2                	slli	s11,s11,0x10
    5050:	010ddd93          	srli	s11,s11,0x10
    5054:	853e                	mv	a0,a5
    5056:	866e                	mv	a2,s11
    5058:	85ea                	mv	a1,s10
    505a:	4a7030ef          	jal	ra,8d00 <memcpy>
    505e:	24ba                	lhu	a4,10(s1)
    5060:	441c                	lw	a5,8(s0)
    5062:	41b706b3          	sub	a3,a4,s11
    5066:	02d05063          	blez	a3,5086 <WCHSocketTCPReceive+0xa6>
    506a:	41370733          	sub	a4,a4,s3
    506e:	9a3a                	add	s4,s4,a4
    5070:	0a42                	slli	s4,s4,0x10
    5072:	010a5a13          	srli	s4,s4,0x10
    5076:	853e                	mv	a0,a5
    5078:	8652                	mv	a2,s4
    507a:	01bd05b3          	add	a1,s10,s11
    507e:	483030ef          	jal	ra,8d00 <memcpy>
    5082:	014507b3          	add	a5,a0,s4
    5086:	4084                	lw	s1,0(s1)
    5088:	f0d5                	bnez	s1,502c <WCHSocketTCPReceive+0x4c>
    508a:	4c18                	lw	a4,24(s0)
    508c:	c81c                	sw	a5,16(s0)
    508e:	8556                	mv	a0,s5
    5090:	9c3a                	add	s8,s8,a4
    5092:	01842c23          	sw	s8,24(s0)
    5096:	ec9fd0ef          	jal	ra,2f5e <pbuf_free>
    509a:	445c                	lw	a5,12(s0)
    509c:	4c18                	lw	a4,24(s0)
    509e:	854a                	mv	a0,s2
    50a0:	8f99                	sub	a5,a5,a4
    50a2:	02f91623          	sh	a5,44(s2)
    50a6:	af0fe0ef          	jal	ra,3396 <tcp_update_rcv_ann_wnd>
    50aa:	4501                	li	a0,0
    50ac:	990fb06f          	j	23c <__riscv_restore_12>
    50b0:	00ed0633          	add	a2,s10,a4
    50b4:	2210                	lbu	a2,0(a2)
    50b6:	00178693          	addi	a3,a5,1 # 1001 <uart_tx+0x3f>
    50ba:	a390                	sb	a2,0(a5)
    50bc:	00dbf363          	bgeu	s7,a3,50c2 <WCHSocketTCPReceive+0xe2>
    50c0:	4414                	lw	a3,8(s0)
    50c2:	0705                	addi	a4,a4,1
    50c4:	87b6                	mv	a5,a3
    50c6:	24b2                	lhu	a2,10(s1)
    50c8:	01071693          	slli	a3,a4,0x10
    50cc:	82c1                	srli	a3,a3,0x10
    50ce:	fec6e1e3          	bltu	a3,a2,50b0 <WCHSocketTCPReceive+0xd0>
    50d2:	bf55                	j	5086 <WCHSocketTCPReceive+0xa6>
    50d4:	4701                	li	a4,0
    50d6:	bfc5                	j	50c6 <WCHSocketTCPReceive+0xe6>
    50d8:	02ccf963          	bgeu	s9,a2,510a <WCHSocketTCPReceive+0x12a>
    50dc:	853e                	mv	a0,a5
    50de:	85ea                	mv	a1,s10
    50e0:	421030ef          	jal	ra,8d00 <memcpy>
    50e4:	24ba                	lhu	a4,10(s1)
    50e6:	00e507b3          	add	a5,a0,a4
    50ea:	bf71                	j	5086 <WCHSocketTCPReceive+0xa6>
    50ec:	00ed0633          	add	a2,s10,a4
    50f0:	2210                	lbu	a2,0(a2)
    50f2:	0705                	addi	a4,a4,1
    50f4:	a290                	sb	a2,0(a3)
    50f6:	24ae                	lhu	a1,10(s1)
    50f8:	01071613          	slli	a2,a4,0x10
    50fc:	8241                	srli	a2,a2,0x10
    50fe:	00e786b3          	add	a3,a5,a4
    5102:	feb665e3          	bltu	a2,a1,50ec <WCHSocketTCPReceive+0x10c>
    5106:	87b6                	mv	a5,a3
    5108:	bfbd                	j	5086 <WCHSocketTCPReceive+0xa6>
    510a:	4701                	li	a4,0
    510c:	b7ed                	j	50f6 <WCHSocketTCPReceive+0x116>
    510e:	4501                	li	a0,0
    5110:	fed1                	bnez	a3,50ac <WCHSocketTCPReceive+0xcc>
    5112:	852e                	mv	a0,a1
    5114:	efefe0ef          	jal	ra,3812 <tcp_close>
    5118:	bf51                	j	50ac <WCHSocketTCPReceive+0xcc>
    511a:	557d                	li	a0,-1
    511c:	bf41                	j	50ac <WCHSocketTCPReceive+0xcc>

0000511e <LwipTcpConnectedCallBack>:
LwipTcpConnectedCallBack():
    511e:	912fb2ef          	jal	t0,230 <__riscv_save_0>
    5122:	842e                	mv	s0,a1
    5124:	000055b7          	lui	a1,0x5
    5128:	84aa                	mv	s1,a0
    512a:	fe058593          	addi	a1,a1,-32 # 4fe0 <WCHSocketTCPReceive>
    512e:	8522                	mv	a0,s0
    5130:	b62fe0ef          	jal	ra,3492 <tcp_recv>
    5134:	000055b7          	lui	a1,0x5
    5138:	8522                	mv	a0,s0
    513a:	de258593          	addi	a1,a1,-542 # 4de2 <LwipTCPSendCallBack>
    513e:	b5afe0ef          	jal	ra,3498 <tcp_sent>
    5142:	000055b7          	lui	a1,0x5
    5146:	8522                	mv	a0,s0
    5148:	4605                	li	a2,1
    514a:	e1e58593          	addi	a1,a1,-482 # 4e1e <LwipTCPPollCallBack>
    514e:	b56fe0ef          	jal	ra,34a4 <tcp_poll>
    5152:	209c                	lbu	a5,0(s1)
    5154:	4501                	li	a0,0
    5156:	0087e793          	ori	a5,a5,8
    515a:	c09c                	sw	a5,0(s1)
    515c:	8f8fb06f          	j	254 <__riscv_restore_0>

00005160 <ErrorEncode>:
ErrorEncode():
    5160:	c919                	beqz	a0,5176 <ErrorEncode+0x16>
    5162:	40a00533          	neg	a0,a0
    5166:	67a9                	lui	a5,0xa
    5168:	14878793          	addi	a5,a5,328 # a148 <ErrTable>
    516c:	0ff57513          	andi	a0,a0,255
    5170:	953e                	add	a0,a0,a5
    5172:	2108                	lbu	a0,0(a0)
    5174:	8082                	ret
    5176:	4501                	li	a0,0
    5178:	8082                	ret

0000517a <MemShortCopy>:
MemShortCopy():
    517a:	4781                	li	a5,0
    517c:	01079713          	slli	a4,a5,0x10
    5180:	8341                	srli	a4,a4,0x10
    5182:	00e61363          	bne	a2,a4,5188 <MemShortCopy+0xe>
    5186:	8082                	ret
    5188:	00f58733          	add	a4,a1,a5
    518c:	2314                	lbu	a3,0(a4)
    518e:	00f50733          	add	a4,a0,a5
    5192:	0785                	addi	a5,a5,1
    5194:	a314                	sb	a3,0(a4)
    5196:	b7dd                	j	517c <MemShortCopy+0x2>

00005198 <WCHSocketInit>:
WCHSocketInit():
    5198:	898fb2ef          	jal	t0,230 <__riscv_save_0>
    519c:	03c00793          	li	a5,60
    51a0:	02f587b3          	mul	a5,a1,a5
    51a4:	20017437          	lui	s0,0x20017
    51a8:	6cc40713          	addi	a4,s0,1740 # 200176cc <SocketInf>
    51ac:	892a                	mv	s2,a0
    51ae:	84ae                	mv	s1,a1
    51b0:	03c00613          	li	a2,60
    51b4:	4581                	li	a1,0
    51b6:	6cc40413          	addi	s0,s0,1740
    51ba:	97ba                	add	a5,a5,a4
    51bc:	853e                	mv	a0,a5
    51be:	8a2fb0ef          	jal	ra,260 <memset>
    51c2:	00090763          	beqz	s2,51d0 <WCHSocketInit+0x38>
    51c6:	03c00613          	li	a2,60
    51ca:	85ca                	mv	a1,s2
    51cc:	335030ef          	jal	ra,8d00 <memcpy>
    51d0:	03c00593          	li	a1,60
    51d4:	02b485b3          	mul	a1,s1,a1
    51d8:	95a2                	add	a1,a1,s0
    51da:	459c                	lw	a5,8(a1)
    51dc:	c99c                	sw	a5,16(a1)
    51de:	c9dc                	sw	a5,20(a1)
    51e0:	874fb06f          	j	254 <__riscv_restore_0>

000051e4 <WCHNET_Init>:
WCHNET_Init():
    51e4:	832fb2ef          	jal	t0,216 <__riscv_save_4>
    51e8:	2001e437          	lui	s0,0x2001e
    51ec:	1141                	addi	sp,sp,-16
    51ee:	8a2a                	mv	s4,a0
    51f0:	89ae                	mv	s3,a1
    51f2:	e4c40513          	addi	a0,s0,-436 # 2001de4c <NetInf>
    51f6:	4581                	li	a1,0
    51f8:	84b2                	mv	s1,a2
    51fa:	04400613          	li	a2,68
    51fe:	c636                	sw	a3,12(sp)
    5200:	860fb0ef          	jal	ra,260 <memset>
    5204:	2001e537          	lui	a0,0x2001e
    5208:	4661                	li	a2,24
    520a:	4581                	li	a1,0
    520c:	cac50513          	addi	a0,a0,-852 # 2001dcac <DHCPCtrl>
    5210:	850fb0ef          	jal	ra,260 <memset>
    5214:	4611                	li	a2,4
    5216:	85d2                	mv	a1,s4
    5218:	e4c40513          	addi	a0,s0,-436
    521c:	2e5030ef          	jal	ra,8d00 <memcpy>
    5220:	e4c40913          	addi	s2,s0,-436
    5224:	4611                	li	a2,4
    5226:	85ce                	mv	a1,s3
    5228:	00490513          	addi	a0,s2,4
    522c:	2d5030ef          	jal	ra,8d00 <memcpy>
    5230:	46b2                	lw	a3,12(sp)
    5232:	4619                	li	a2,6
    5234:	00c90513          	addi	a0,s2,12
    5238:	85b6                	mv	a1,a3
    523a:	2c7030ef          	jal	ra,8d00 <memcpy>
    523e:	e4c40413          	addi	s0,s0,-436
    5242:	e8c1                	bnez	s1,52d2 <WCHNET_Init+0xee>
    5244:	57fd                	li	a5,-1
    5246:	b41c                	sb	a5,9(s0)
    5248:	a43c                	sb	a5,10(s0)
    524a:	47d1                	li	a5,20
    524c:	cc1c                	sw	a5,24(s0)
    524e:	47a9                	li	a5,10
    5250:	cc5c                	sw	a5,28(s0)
    5252:	4789                	li	a5,2
    5254:	c03c                	sw	a5,64(s0)
    5256:	4481                	li	s1,0
    5258:	02000913          	li	s2,32
    525c:	85a6                	mv	a1,s1
    525e:	0485                	addi	s1,s1,1
    5260:	4501                	li	a0,0
    5262:	0ff4f493          	andi	s1,s1,255
    5266:	f33ff0ef          	jal	ra,5198 <WCHSocketInit>
    526a:	ff2499e3          	bne	s1,s2,525c <WCHNET_Init+0x78>
    526e:	9d9ff0ef          	jal	ra,4c46 <Ethernet_Configuration>
    5272:	200105b7          	lui	a1,0x20010
    5276:	2000c537          	lui	a0,0x2000c
    527a:	4609                	li	a2,2
    527c:	cc458593          	addi	a1,a1,-828 # 2000fcc4 <MACTxBuf>
    5280:	0c450513          	addi	a0,a0,196 # 2000c0c4 <DMATxDscrTab>
    5284:	e14fc0ef          	jal	ra,1898 <ETH_DMATxDescChainInit>
    5288:	2000c5b7          	lui	a1,0x2000c
    528c:	2000c537          	lui	a0,0x2000c
    5290:	4629                	li	a2,10
    5292:	16458593          	addi	a1,a1,356 # 2000c164 <MACRxBuf>
    5296:	02450513          	addi	a0,a0,36 # 2000c024 <DMARxDscrTab>
    529a:	e40fc0ef          	jal	ra,18da <ETH_DMARxDescChainInit>
    529e:	eaefc0ef          	jal	ra,194c <ETH_Start>
    52a2:	907ff0ef          	jal	ra,4ba8 <Ethernet_LED_Configuration>
    52a6:	fd7fc0ef          	jal	ra,227c <SetupNetif>
    52aa:	4785                	li	a5,1
    52ac:	d05c                	sw	a5,36(s0)
    52ae:	6715                	lui	a4,0x5
    52b0:	2001e7b7          	lui	a5,0x2001e
    52b4:	e4078793          	addi	a5,a5,-448 # 2001de40 <KeepLiveCfg>
    52b8:	e2070713          	addi	a4,a4,-480 # 4e20 <LwipTCPPollCallBack+0x2>
    52bc:	c398                	sw	a4,0(a5)
    52be:	6711                	lui	a4,0x4
    52c0:	a9870713          	addi	a4,a4,-1384 # 3a98 <tcp_alloc+0x78>
    52c4:	c3d8                	sw	a4,4(a5)
    52c6:	4725                	li	a4,9
    52c8:	c798                	sw	a4,8(a5)
    52ca:	4501                	li	a0,0
    52cc:	0141                	addi	sp,sp,16
    52ce:	f7dfa06f          	j	24a <__riscv_restore_4>
    52d2:	4611                	li	a2,4
    52d4:	85a6                	mv	a1,s1
    52d6:	00840513          	addi	a0,s0,8
    52da:	227030ef          	jal	ra,8d00 <memcpy>
    52de:	b7b5                	j	524a <WCHNET_Init+0x66>

000052e0 <WCHNET_ConfigLIB>:
WCHNET_ConfigLIB():
    52e0:	4118                	lw	a4,0(a0)
    52e2:	2001e7b7          	lui	a5,0x2001e
    52e6:	e9078793          	addi	a5,a5,-368 # 2001de90 <WCHCfg>
    52ea:	c398                	sw	a4,0(a5)
    52ec:	4158                	lw	a4,4(a0)
    52ee:	c3d8                	sw	a4,4(a5)
    52f0:	4518                	lw	a4,8(a0)
    52f2:	c798                	sw	a4,8(a5)
    52f4:	4558                	lw	a4,12(a0)
    52f6:	c7d8                	sw	a4,12(a5)
    52f8:	4918                	lw	a4,16(a0)
    52fa:	4501                	li	a0,0
    52fc:	cb98                	sw	a4,16(a5)
    52fe:	8082                	ret

00005300 <PhyDataLed_fun>:
PhyDataLed_fun():
    5300:	f31fa2ef          	jal	t0,230 <__riscv_save_0>
    5304:	90018493          	addi	s1,gp,-1792 # 20000170 <phydata>
    5308:	4098                	lw	a4,0(s1)
    530a:	47a5                	li	a5,9
    530c:	90418413          	addi	s0,gp,-1788 # 20000174 <phydatatime>
    5310:	02e7f463          	bgeu	a5,a4,5338 <PhyDataLed_fun+0x38>
    5314:	4505                	li	a0,1
    5316:	909ff0ef          	jal	ra,4c1e <Ethernet_LED_DATASET>
    531a:	4018                	lw	a4,0(s0)
    531c:	8a01a783          	lw	a5,-1888(gp) # 20000110 <LocalTime>
    5320:	8f99                	sub	a5,a5,a4
    5322:	06400713          	li	a4,100
    5326:	00f77763          	bgeu	a4,a5,5334 <PhyDataLed_fun+0x34>
    532a:	4501                	li	a0,0
    532c:	0004a023          	sw	zero,0(s1)
    5330:	8efff0ef          	jal	ra,4c1e <Ethernet_LED_DATASET>
    5334:	f21fa06f          	j	254 <__riscv_restore_0>
    5338:	8a01a783          	lw	a5,-1888(gp) # 20000110 <LocalTime>
    533c:	c01c                	sw	a5,0(s0)
    533e:	bfdd                	j	5334 <PhyDataLed_fun+0x34>

00005340 <WCHNET_ETHIsr>:
WCHNET_ETHIsr():
    5340:	ef1fa2ef          	jal	t0,230 <__riscv_save_0>
    5344:	400297b7          	lui	a5,0x40029
    5348:	4bdc                	lw	a5,20(a5)
    534a:	1141                	addi	sp,sp,-16
    534c:	0207de63          	bgez	a5,5388 <WCHNET_ETHIsr+0x48>
    5350:	4585                	li	a1,1
    5352:	4505                	li	a0,1
    5354:	c9afc0ef          	jal	ra,17ee <ETH_ReadPHYRegister>
    5358:	2001e7b7          	lui	a5,0x2001e
    535c:	e4c78793          	addi	a5,a5,-436 # 2001de4c <NetInf>
    5360:	57d8                	lw	a4,44(a5)
    5362:	d388                	sw	a0,32(a5)
    5364:	8911                	andi	a0,a0,4
    5366:	00476713          	ori	a4,a4,4
    536a:	d7d8                	sw	a4,44(a5)
    536c:	c93d                	beqz	a0,53e2 <WCHNET_ETHIsr+0xa2>
    536e:	4501                	li	a0,0
    5370:	887ff0ef          	jal	ra,4bf6 <Ethernet_LED_LINKSET>
    5374:	4501                	li	a0,0
    5376:	8a9ff0ef          	jal	ra,4c1e <Ethernet_LED_DATASET>
    537a:	4505                	li	a0,1
    537c:	97bff0ef          	jal	ra,4cf6 <IPCheckParaInit>
    5380:	80000537          	lui	a0,0x80000
    5384:	db0fc0ef          	jal	ra,1934 <ETH_DMAClearITPendingBit>
    5388:	400297b7          	lui	a5,0x40029
    538c:	4bdc                	lw	a5,20(a5)
    538e:	0407f793          	andi	a5,a5,64
    5392:	cf89                	beqz	a5,53ac <WCHNET_ETHIsr+0x6c>
    5394:	90018793          	addi	a5,gp,-1792 # 20000170 <phydata>
    5398:	4398                	lw	a4,0(a5)
    539a:	850a                	mv	a0,sp
    539c:	0705                	addi	a4,a4,1
    539e:	c398                	sw	a4,0(a5)
    53a0:	d54ff0ef          	jal	ra,48f4 <ETH_RxPkt_Handle>
    53a4:	04000513          	li	a0,64
    53a8:	d8cfc0ef          	jal	ra,1934 <ETH_DMAClearITPendingBit>
    53ac:	400297b7          	lui	a5,0x40029
    53b0:	4bdc                	lw	a5,20(a5)
    53b2:	8b85                	andi	a5,a5,1
    53b4:	c791                	beqz	a5,53c0 <WCHNET_ETHIsr+0x80>
    53b6:	4505                	li	a0,1
    53b8:	8a01a423          	sw	zero,-1880(gp) # 20000118 <SuccessPackets>
    53bc:	d78fc0ef          	jal	ra,1934 <ETH_DMAClearITPendingBit>
    53c0:	400297b7          	lui	a5,0x40029
    53c4:	4bdc                	lw	a5,20(a5)
    53c6:	8bc1                	andi	a5,a5,16
    53c8:	c799                	beqz	a5,53d6 <WCHNET_ETHIsr+0x96>
    53ca:	0000a537          	lui	a0,0xa
    53ce:	15850513          	addi	a0,a0,344 # a158 <ErrTable+0x10>
    53d2:	2ff030ef          	jal	ra,8ed0 <puts>
    53d6:	6541                	lui	a0,0x10
    53d8:	d5cfc0ef          	jal	ra,1934 <ETH_DMAClearITPendingBit>
    53dc:	0141                	addi	sp,sp,16
    53de:	e77fa06f          	j	254 <__riscv_restore_0>
    53e2:	4505                	li	a0,1
    53e4:	813ff0ef          	jal	ra,4bf6 <Ethernet_LED_LINKSET>
    53e8:	4505                	li	a0,1
    53ea:	835ff0ef          	jal	ra,4c1e <Ethernet_LED_DATASET>
    53ee:	bf49                	j	5380 <WCHNET_ETHIsr+0x40>

000053f0 <WCHNET_TimeIsr>:
WCHNET_TimeIsr():
    53f0:	8a01a783          	lw	a5,-1888(gp) # 20000110 <LocalTime>
    53f4:	953e                	add	a0,a0,a5
    53f6:	8aa1a023          	sw	a0,-1888(gp) # 20000110 <LocalTime>
    53fa:	8082                	ret

000053fc <WCHFindCorrectTCBPcb>:
WCHFindCorrectTCBPcb():
    53fc:	20017737          	lui	a4,0x20017
    5400:	6cc70693          	addi	a3,a4,1740 # 200176cc <SocketInf>
    5404:	4781                	li	a5,0
    5406:	6cc70713          	addi	a4,a4,1740
    540a:	02000613          	li	a2,32
    540e:	03072803          	lw	a6,48(a4)
    5412:	00a81763          	bne	a6,a0,5420 <WCHFindCorrectTCBPcb+0x24>
    5416:	c509                	beqz	a0,5420 <WCHFindCorrectTCBPcb+0x24>
    5418:	4505                	li	a0,1
    541a:	cd95                	beqz	a1,5456 <WCHFindCorrectTCBPcb+0x5a>
    541c:	a19c                	sb	a5,0(a1)
    541e:	8082                	ret
    5420:	0785                	addi	a5,a5,1
    5422:	0ff7f793          	andi	a5,a5,255
    5426:	03c70713          	addi	a4,a4,60
    542a:	fec792e3          	bne	a5,a2,540e <WCHFindCorrectTCBPcb+0x12>
    542e:	4781                	li	a5,0
    5430:	02000713          	li	a4,32
    5434:	5ad0                	lw	a2,52(a3)
    5436:	00c51863          	bne	a0,a2,5446 <WCHFindCorrectTCBPcb+0x4a>
    543a:	c511                	beqz	a0,5446 <WCHFindCorrectTCBPcb+0x4a>
    543c:	4505                	li	a0,1
    543e:	cd81                	beqz	a1,5456 <WCHFindCorrectTCBPcb+0x5a>
    5440:	f807e793          	ori	a5,a5,-128
    5444:	bfe1                	j	541c <WCHFindCorrectTCBPcb+0x20>
    5446:	0785                	addi	a5,a5,1
    5448:	0ff7f793          	andi	a5,a5,255
    544c:	03c68693          	addi	a3,a3,60 # 80003c <_data_lma+0x7f5dfc>
    5450:	fee792e3          	bne	a5,a4,5434 <WCHFindCorrectTCBPcb+0x38>
    5454:	4501                	li	a0,0
    5456:	8082                	ret

00005458 <WCHNET_SocketCreat>:
WCHNET_SocketCreat():
    5458:	dbffa2ef          	jal	t0,216 <__riscv_save_4>
    545c:	20017937          	lui	s2,0x20017
    5460:	6cc90793          	addi	a5,s2,1740 # 200176cc <SocketInf>
    5464:	1141                	addi	sp,sp,-16
    5466:	00050023          	sb	zero,0(a0) # 10000 <_data_lma+0x5dc0>
    546a:	4401                	li	s0,0
    546c:	6cc90913          	addi	s2,s2,1740
    5470:	02000713          	li	a4,32
    5474:	5394                	lw	a3,32(a5)
    5476:	18068963          	beqz	a3,5608 <WCHNET_SocketCreat+0x1b0>
    547a:	0405                	addi	s0,s0,1
    547c:	0ff47413          	andi	s0,s0,255
    5480:	03c78793          	addi	a5,a5,60 # 4002903c <_eusrstack+0x2000903c>
    5484:	fee418e3          	bne	s0,a4,5474 <WCHNET_SocketCreat+0x1c>
    5488:	8522                	mv	a0,s0
    548a:	0141                	addi	sp,sp,16
    548c:	dbffa06f          	j	24a <__riscv_restore_4>
    5490:	2001e7b7          	lui	a5,0x2001e
    5494:	e4c7a783          	lw	a5,-436(a5) # 2001de4c <NetInf>
    5498:	006c                	addi	a1,sp,12
    549a:	c63e                	sw	a5,12(sp)
    549c:	2e1010ef          	jal	ra,6f7c <raw_bind>
    54a0:	4611                	li	a2,4
    54a2:	02c48593          	addi	a1,s1,44
    54a6:	0068                	addi	a0,sp,12
    54a8:	059030ef          	jal	ra,8d00 <memcpy>
    54ac:	006c                	addi	a1,sp,12
    54ae:	854e                	mv	a0,s3
    54b0:	2eb010ef          	jal	ra,6f9a <raw_connect>
    54b4:	03c00613          	li	a2,60
    54b8:	02c40633          	mul	a2,s0,a2
    54bc:	000055b7          	lui	a1,0x5
    54c0:	e2258593          	addi	a1,a1,-478 # 4e22 <SocketIPRAWReceive>
    54c4:	854e                	mv	a0,s3
    54c6:	964a                	add	a2,a2,s2
    54c8:	2f1010ef          	jal	ra,6fb8 <raw_recv>
    54cc:	4795                	li	a5,5
    54ce:	2001e537          	lui	a0,0x2001e
    54d2:	006c                	addi	a1,sp,12
    54d4:	0334a823          	sw	s3,48(s1)
    54d8:	d09c                	sw	a5,32(s1)
    54da:	da850513          	addi	a0,a0,-600 # 2001dda8 <WCHNetIf>
    54de:	519000ef          	jal	ra,61f6 <etharp_request>
    54e2:	85a2                	mv	a1,s0
    54e4:	8526                	mv	a0,s1
    54e6:	cb3ff0ef          	jal	ra,5198 <WCHSocketInit>
    54ea:	4401                	li	s0,0
    54ec:	bf71                	j	5488 <WCHNET_SocketCreat+0x30>
    54ee:	4709                	li	a4,2
    54f0:	0ae79163          	bne	a5,a4,5592 <WCHNET_SocketCreat+0x13a>
    54f4:	40a030ef          	jal	ra,88fe <udp_new>
    54f8:	89aa                	mv	s3,a0
    54fa:	12050463          	beqz	a0,5622 <WCHNET_SocketCreat+0x1ca>
    54fe:	02c48a93          	addi	s5,s1,44
    5502:	4611                	li	a2,4
    5504:	85d6                	mv	a1,s5
    5506:	0068                	addi	a0,sp,12
    5508:	7f8030ef          	jal	ra,8d00 <memcpy>
    550c:	4a32                	lw	s4,12(sp)
    550e:	f0000537          	lui	a0,0xf0000
    5512:	f63fc0ef          	jal	ra,2474 <ntohl>
    5516:	00aa7a33          	and	s4,s4,a0
    551a:	e0000537          	lui	a0,0xe0000
    551e:	f57fc0ef          	jal	ra,2474 <ntohl>
    5522:	04aa0063          	beq	s4,a0,5562 <WCHNET_SocketCreat+0x10a>
    5526:	2001e5b7          	lui	a1,0x2001e
    552a:	da858593          	addi	a1,a1,-600 # 2001dda8 <WCHNetIf>
    552e:	0068                	addi	a0,sp,12
    5530:	19b010ef          	jal	ra,6eca <ip_addr_isbroadcast>
    5534:	e51d                	bnez	a0,5562 <WCHNET_SocketCreat+0x10a>
    5536:	2001e7b7          	lui	a5,0x2001e
    553a:	e4c7a783          	lw	a5,-436(a5) # 2001de4c <NetInf>
    553e:	3492                	lhu	a2,40(s1)
    5540:	006c                	addi	a1,sp,12
    5542:	854e                	mv	a0,s3
    5544:	c63e                	sw	a5,12(sp)
    5546:	182030ef          	jal	ra,86c8 <udp_bind>
    554a:	e11d                	bnez	a0,5570 <WCHNET_SocketCreat+0x118>
    554c:	85d6                	mv	a1,s5
    554e:	4611                	li	a2,4
    5550:	0068                	addi	a0,sp,12
    5552:	7ae030ef          	jal	ra,8d00 <memcpy>
    5556:	30d2                	lhu	a2,36(s1)
    5558:	006c                	addi	a1,sp,12
    555a:	854e                	mv	a0,s3
    555c:	31e030ef          	jal	ra,887a <udp_connect>
    5560:	a039                	j	556e <WCHNET_SocketCreat+0x116>
    5562:	3492                	lhu	a2,40(s1)
    5564:	85818593          	addi	a1,gp,-1960 # 200000c8 <ip_addr_any>
    5568:	854e                	mv	a0,s3
    556a:	15e030ef          	jal	ra,86c8 <udp_bind>
    556e:	c509                	beqz	a0,5578 <WCHNET_SocketCreat+0x120>
    5570:	bf1ff0ef          	jal	ra,5160 <ErrorEncode>
    5574:	842a                	mv	s0,a0
    5576:	bf09                	j	5488 <WCHNET_SocketCreat+0x30>
    5578:	03c00613          	li	a2,60
    557c:	02c40633          	mul	a2,s0,a2
    5580:	000055b7          	lui	a1,0x5
    5584:	ee458593          	addi	a1,a1,-284 # 4ee4 <SocketUdpReceive>
    5588:	854e                	mv	a0,s3
    558a:	964a                	add	a2,a2,s2
    558c:	36c030ef          	jal	ra,88f8 <udp_recv>
    5590:	bf35                	j	54cc <WCHNET_SocketCreat+0x74>
    5592:	470d                	li	a4,3
    5594:	06e79763          	bne	a5,a4,5602 <WCHNET_SocketCreat+0x1aa>
    5598:	dc0fe0ef          	jal	ra,3b58 <tcp_new>
    559c:	89aa                	mv	s3,a0
    559e:	c151                	beqz	a0,5622 <WCHNET_SocketCreat+0x1ca>
    55a0:	2001e7b7          	lui	a5,0x2001e
    55a4:	e4c7a783          	lw	a5,-436(a5) # 2001de4c <NetInf>
    55a8:	3492                	lhu	a2,40(s1)
    55aa:	006c                	addi	a1,sp,12
    55ac:	c63e                	sw	a5,12(sp)
    55ae:	cd5fd0ef          	jal	ra,3282 <tcp_bind>
    55b2:	8a2a                	mv	s4,a0
    55b4:	c511                	beqz	a0,55c0 <WCHNET_SocketCreat+0x168>
    55b6:	854e                	mv	a0,s3
    55b8:	a5afe0ef          	jal	ra,3812 <tcp_close>
    55bc:	8552                	mv	a0,s4
    55be:	bf4d                	j	5570 <WCHNET_SocketCreat+0x118>
    55c0:	03c00593          	li	a1,60
    55c4:	02b405b3          	mul	a1,s0,a1
    55c8:	854e                	mv	a0,s3
    55ca:	95ca                	add	a1,a1,s2
    55cc:	ec3fd0ef          	jal	ra,348e <tcp_arg>
    55d0:	000055b7          	lui	a1,0x5
    55d4:	854e                	mv	a0,s3
    55d6:	de058593          	addi	a1,a1,-544 # 4de0 <CH563TCPError>
    55da:	ec5fd0ef          	jal	ra,349e <tcp_err>
    55de:	4795                	li	a5,5
    55e0:	85a2                	mv	a1,s0
    55e2:	8526                	mv	a0,s1
    55e4:	0334a823          	sw	s3,48(s1)
    55e8:	0334aa23          	sw	s3,52(s1)
    55ec:	d09c                	sw	a5,32(s1)
    55ee:	babff0ef          	jal	ra,5198 <WCHSocketInit>
    55f2:	2001e537          	lui	a0,0x2001e
    55f6:	006c                	addi	a1,sp,12
    55f8:	da850513          	addi	a0,a0,-600 # 2001dda8 <WCHNetIf>
    55fc:	3fb000ef          	jal	ra,61f6 <etharp_request>
    5600:	b5ed                	j	54ea <WCHNET_SocketCreat+0x92>
    5602:	02100413          	li	s0,33
    5606:	b549                	j	5488 <WCHNET_SocketCreat+0x30>
    5608:	a100                	sb	s0,0(a0)
    560a:	4ddc                	lw	a5,28(a1)
    560c:	c1c0                	sw	s0,4(a1)
    560e:	84ae                	mv	s1,a1
    5610:	ec079fe3          	bnez	a5,54ee <WCHNET_SocketCreat+0x96>
    5614:	0284c503          	lbu	a0,40(s1)
    5618:	235010ef          	jal	ra,704c <raw_new>
    561c:	89aa                	mv	s3,a0
    561e:	e60519e3          	bnez	a0,5490 <WCHNET_SocketCreat+0x38>
    5622:	4445                	li	s0,17
    5624:	b595                	j	5488 <WCHNET_SocketCreat+0x30>

00005626 <tcp_recved_socket>:
tcp_recved_socket():
    5626:	c0bfa2ef          	jal	t0,230 <__riscv_save_0>
    562a:	b54e                	sh	a1,44(a0)
    562c:	b56e                	sh	a1,46(a0)
    562e:	842a                	mv	s0,a0
    5630:	c199                	beqz	a1,5636 <tcp_recved_socket+0x10>
    5632:	d65fd0ef          	jal	ra,3396 <tcp_update_rcv_ann_wnd>
    5636:	02644783          	lbu	a5,38(s0)
    563a:	8522                	mv	a0,s0
    563c:	0027e793          	ori	a5,a5,2
    5640:	02f40323          	sb	a5,38(s0)
    5644:	bf7fe0ef          	jal	ra,423a <tcp_output>
    5648:	4505                	li	a0,1
    564a:	c0bfa06f          	j	254 <__riscv_restore_0>

0000564e <WCHNET_SocketRecv>:
WCHNET_SocketRecv():
    564e:	bc9fa2ef          	jal	t0,216 <__riscv_save_4>
    5652:	03c00693          	li	a3,60
    5656:	02d506b3          	mul	a3,a0,a3
    565a:	200174b7          	lui	s1,0x20017
    565e:	89b2                	mv	s3,a2
    5660:	6cc48793          	addi	a5,s1,1740 # 200176cc <SocketInf>
    5664:	4210                	lw	a2,0(a2)
    5666:	0009a023          	sw	zero,0(s3)
    566a:	96be                	add	a3,a3,a5
    566c:	5298                	lw	a4,32(a3)
    566e:	4795                	li	a5,5
    5670:	1af71763          	bne	a4,a5,581e <WCHNET_SocketRecv+0x1d0>
    5674:	892a                	mv	s2,a0
    5676:	4569                	li	a0,26
    5678:	ce4d                	beqz	a2,5732 <WCHNET_SocketRecv+0xe4>
    567a:	0086ab03          	lw	s6,8(a3)
    567e:	46d8                	lw	a4,12(a3)
    5680:	8aae                	mv	s5,a1
    5682:	0186aa03          	lw	s4,24(a3)
    5686:	4acc                	lw	a1,20(a3)
    5688:	975a                	add	a4,a4,s6
    568a:	6cc48493          	addi	s1,s1,1740
    568e:	87ae                	mv	a5,a1
    5690:	177d                	addi	a4,a4,-1
    5692:	01467363          	bgeu	a2,s4,5698 <WCHNET_SocketRecv+0x4a>
    5696:	8a32                	mv	s4,a2
    5698:	01458433          	add	s0,a1,s4
    569c:	140a8463          	beqz	s5,57e4 <WCHNET_SocketRecv+0x196>
    56a0:	00e47b63          	bgeu	s0,a4,56b6 <WCHNET_SocketRecv+0x68>
    56a4:	4691                	li	a3,4
    56a6:	0146f863          	bgeu	a3,s4,56b6 <WCHNET_SocketRecv+0x68>
    56aa:	8652                	mv	a2,s4
    56ac:	8556                	mv	a0,s5
    56ae:	652030ef          	jal	ra,8d00 <memcpy>
    56b2:	87a2                	mv	a5,s0
    56b4:	a0a9                	j	56fe <WCHNET_SocketRecv+0xb0>
    56b6:	2001e6b7          	lui	a3,0x2001e
    56ba:	ea06a683          	lw	a3,-352(a3) # 2001dea0 <WCHCfg+0x10>
    56be:	8a89                	andi	a3,a3,2
    56c0:	12068063          	beqz	a3,57e0 <WCHNET_SocketRecv+0x192>
    56c4:	8f0d                	sub	a4,a4,a1
    56c6:	00170413          	addi	s0,a4,1
    56ca:	008a7363          	bgeu	s4,s0,56d0 <WCHNET_SocketRecv+0x82>
    56ce:	8452                	mv	s0,s4
    56d0:	4791                	li	a5,4
    56d2:	0687f263          	bgeu	a5,s0,5736 <WCHNET_SocketRecv+0xe8>
    56d6:	8622                	mv	a2,s0
    56d8:	8556                	mv	a0,s5
    56da:	626030ef          	jal	ra,8d00 <memcpy>
    56de:	87da                	mv	a5,s6
    56e0:	01447f63          	bgeu	s0,s4,56fe <WCHNET_SocketRecv+0xb0>
    56e4:	008a8533          	add	a0,s5,s0
    56e8:	4791                	li	a5,4
    56ea:	408a0433          	sub	s0,s4,s0
    56ee:	0487fb63          	bgeu	a5,s0,5744 <WCHNET_SocketRecv+0xf6>
    56f2:	8622                	mv	a2,s0
    56f4:	85da                	mv	a1,s6
    56f6:	60a030ef          	jal	ra,8d00 <memcpy>
    56fa:	008b07b3          	add	a5,s6,s0
    56fe:	03c00713          	li	a4,60
    5702:	02e90733          	mul	a4,s2,a4
    5706:	0149a023          	sw	s4,0(s3)
    570a:	9726                	add	a4,a4,s1
    570c:	4f10                	lw	a2,24(a4)
    570e:	cb5c                	sw	a5,20(a4)
    5710:	41460633          	sub	a2,a2,s4
    5714:	cf10                	sw	a2,24(a4)
    5716:	e601                	bnez	a2,571e <WCHNET_SocketRecv+0xd0>
    5718:	471c                	lw	a5,8(a4)
    571a:	cb5c                	sw	a5,20(a4)
    571c:	cb1c                	sw	a5,16(a4)
    571e:	03c00793          	li	a5,60
    5722:	02f90933          	mul	s2,s2,a5
    5726:	478d                	li	a5,3
    5728:	94ca                	add	s1,s1,s2
    572a:	4cd8                	lw	a4,28(s1)
    572c:	0cf70d63          	beq	a4,a5,5806 <WCHNET_SocketRecv+0x1b8>
    5730:	4501                	li	a0,0
    5732:	b19fa06f          	j	24a <__riscv_restore_4>
    5736:	01041613          	slli	a2,s0,0x10
    573a:	8241                	srli	a2,a2,0x10
    573c:	8556                	mv	a0,s5
    573e:	a3dff0ef          	jal	ra,517a <MemShortCopy>
    5742:	bf71                	j	56de <WCHNET_SocketRecv+0x90>
    5744:	01041613          	slli	a2,s0,0x10
    5748:	8241                	srli	a2,a2,0x10
    574a:	85da                	mv	a1,s6
    574c:	a2fff0ef          	jal	ra,517a <MemShortCopy>
    5750:	b76d                	j	56fa <WCHNET_SocketRecv+0xac>
    5752:	2390                	lbu	a2,0(a5)
    5754:	0785                	addi	a5,a5,1
    5756:	00ca8023          	sb	a2,0(s5)
    575a:	00f77363          	bgeu	a4,a5,5760 <WCHNET_SocketRecv+0x112>
    575e:	87da                	mv	a5,s6
    5760:	00168613          	addi	a2,a3,1
    5764:	f9467de3          	bgeu	a2,s4,56fe <WCHNET_SocketRecv+0xb0>
    5768:	2390                	lbu	a2,0(a5)
    576a:	0785                	addi	a5,a5,1
    576c:	00ca80a3          	sb	a2,1(s5)
    5770:	00f77363          	bgeu	a4,a5,5776 <WCHNET_SocketRecv+0x128>
    5774:	87da                	mv	a5,s6
    5776:	00268613          	addi	a2,a3,2
    577a:	f94672e3          	bgeu	a2,s4,56fe <WCHNET_SocketRecv+0xb0>
    577e:	2390                	lbu	a2,0(a5)
    5780:	0785                	addi	a5,a5,1
    5782:	00ca8123          	sb	a2,2(s5)
    5786:	00f77363          	bgeu	a4,a5,578c <WCHNET_SocketRecv+0x13e>
    578a:	87da                	mv	a5,s6
    578c:	00368613          	addi	a2,a3,3
    5790:	f74677e3          	bgeu	a2,s4,56fe <WCHNET_SocketRecv+0xb0>
    5794:	2390                	lbu	a2,0(a5)
    5796:	0785                	addi	a5,a5,1
    5798:	00ca81a3          	sb	a2,3(s5)
    579c:	00f77363          	bgeu	a4,a5,57a2 <WCHNET_SocketRecv+0x154>
    57a0:	87da                	mv	a5,s6
    57a2:	00468613          	addi	a2,a3,4
    57a6:	f5467ce3          	bgeu	a2,s4,56fe <WCHNET_SocketRecv+0xb0>
    57aa:	00178613          	addi	a2,a5,1
    57ae:	239c                	lbu	a5,0(a5)
    57b0:	00fa8223          	sb	a5,4(s5)
    57b4:	00c77363          	bgeu	a4,a2,57ba <WCHNET_SocketRecv+0x16c>
    57b8:	865a                	mv	a2,s6
    57ba:	00568793          	addi	a5,a3,5
    57be:	0547f263          	bgeu	a5,s4,5802 <WCHNET_SocketRecv+0x1b4>
    57c2:	00160793          	addi	a5,a2,1
    57c6:	2210                	lbu	a2,0(a2)
    57c8:	0a99                	addi	s5,s5,6
    57ca:	feca8fa3          	sb	a2,-1(s5)
    57ce:	00f77363          	bgeu	a4,a5,57d4 <WCHNET_SocketRecv+0x186>
    57d2:	87da                	mv	a5,s6
    57d4:	0699                	addi	a3,a3,6
    57d6:	f346f4e3          	bgeu	a3,s4,56fe <WCHNET_SocketRecv+0xb0>
    57da:	f746ece3          	bltu	a3,s4,5752 <WCHNET_SocketRecv+0x104>
    57de:	b705                	j	56fe <WCHNET_SocketRecv+0xb0>
    57e0:	4681                	li	a3,0
    57e2:	bfe5                	j	57da <WCHNET_SocketRecv+0x18c>
    57e4:	00e47563          	bgeu	s0,a4,57ee <WCHNET_SocketRecv+0x1a0>
    57e8:	4691                	li	a3,4
    57ea:	ed46e4e3          	bltu	a3,s4,56b2 <WCHNET_SocketRecv+0x64>
    57ee:	4681                	li	a3,0
    57f0:	a031                	j	57fc <WCHNET_SocketRecv+0x1ae>
    57f2:	0785                	addi	a5,a5,1
    57f4:	00f77363          	bgeu	a4,a5,57fa <WCHNET_SocketRecv+0x1ac>
    57f8:	87da                	mv	a5,s6
    57fa:	0685                	addi	a3,a3,1
    57fc:	ff469be3          	bne	a3,s4,57f2 <WCHNET_SocketRecv+0x1a4>
    5800:	bdfd                	j	56fe <WCHNET_SocketRecv+0xb0>
    5802:	87b2                	mv	a5,a2
    5804:	bded                	j	56fe <WCHNET_SocketRecv+0xb0>
    5806:	44cc                	lw	a1,12(s1)
    5808:	5888                	lw	a0,48(s1)
    580a:	40c58633          	sub	a2,a1,a2
    580e:	0642                	slli	a2,a2,0x10
    5810:	8241                	srli	a2,a2,0x10
    5812:	b572                	sh	a2,46(a0)
    5814:	f0c59ee3          	bne	a1,a2,5730 <WCHNET_SocketRecv+0xe2>
    5818:	e0fff0ef          	jal	ra,5626 <tcp_recved_socket>
    581c:	bf11                	j	5730 <WCHNET_SocketRecv+0xe2>
    581e:	455d                	li	a0,23
    5820:	bf09                	j	5732 <WCHNET_SocketRecv+0xe4>

00005822 <WCHNET_SocketRecvLen>:
WCHNET_SocketRecvLen():
    5822:	200177b7          	lui	a5,0x20017
    5826:	6cc78793          	addi	a5,a5,1740 # 200176cc <SocketInf>
    582a:	c981                	beqz	a1,583a <WCHNET_SocketRecvLen+0x18>
    582c:	03c00713          	li	a4,60
    5830:	02e50733          	mul	a4,a0,a4
    5834:	973e                	add	a4,a4,a5
    5836:	4b58                	lw	a4,20(a4)
    5838:	c198                	sw	a4,0(a1)
    583a:	03c00713          	li	a4,60
    583e:	02e50533          	mul	a0,a0,a4
    5842:	97aa                	add	a5,a5,a0
    5844:	4f88                	lw	a0,24(a5)
    5846:	8082                	ret

00005848 <SocketIPRawSend>:
SocketIPRawSend():
    5848:	9b9fa2ef          	jal	t0,200 <__riscv_save_12>
    584c:	4200                	lw	s0,0(a2)
    584e:	00062023          	sw	zero,0(a2)
    5852:	1141                	addi	sp,sp,-16
    5854:	cc61                	beqz	s0,592c <SocketIPRawSend+0xe4>
    5856:	8aaa                	mv	s5,a0
    5858:	8b2e                	mv	s6,a1
    585a:	4569                	li	a0,26
    585c:	c5b1                	beqz	a1,58a8 <SocketIPRawSend+0x60>
    585e:	03c00793          	li	a5,60
    5862:	02fa87b3          	mul	a5,s5,a5
    5866:	20017537          	lui	a0,0x20017
    586a:	6cc50713          	addi	a4,a0,1740 # 200176cc <SocketInf>
    586e:	2001ea37          	lui	s4,0x2001e
    5872:	89b2                	mv	s3,a2
    5874:	6cc50b93          	addi	s7,a0,1740
    5878:	4901                	li	s2,0
    587a:	97ba                	add	a5,a5,a4
    587c:	0307ac03          	lw	s8,48(a5)
    5880:	e4ca0793          	addi	a5,s4,-436 # 2001de4c <NetInf>
    5884:	43bc                	lw	a5,64(a5)
    5886:	e4ca0a13          	addi	s4,s4,-436
    588a:	8b89                	andi	a5,a5,2
    588c:	e399                	bnez	a5,5892 <SocketIPRawSend+0x4a>
    588e:	0c700913          	li	s2,199
    5892:	0c900c93          	li	s9,201
    5896:	5c800d13          	li	s10,1480
    589a:	0905                	addi	s2,s2,1
    589c:	0942                	slli	s2,s2,0x10
    589e:	01095913          	srli	s2,s2,0x10
    58a2:	01991663          	bne	s2,s9,58ae <SocketIPRawSend+0x66>
    58a6:	4501                	li	a0,0
    58a8:	0141                	addi	sp,sp,16
    58aa:	993fa06f          	j	23c <__riscv_restore_12>
    58ae:	84a2                	mv	s1,s0
    58b0:	008d7463          	bgeu	s10,s0,58b8 <SocketIPRawSend+0x70>
    58b4:	5c800493          	li	s1,1480
    58b8:	01049593          	slli	a1,s1,0x10
    58bc:	4601                	li	a2,0
    58be:	81c1                	srli	a1,a1,0x10
    58c0:	4501                	li	a0,0
    58c2:	eeafd0ef          	jal	ra,2fac <pbuf_alloc>
    58c6:	8daa                	mv	s11,a0
    58c8:	c525                	beqz	a0,5930 <SocketIPRawSend+0xe8>
    58ca:	4148                	lw	a0,4(a0)
    58cc:	8626                	mv	a2,s1
    58ce:	85da                	mv	a1,s6
    58d0:	430030ef          	jal	ra,8d00 <memcpy>
    58d4:	85ee                	mv	a1,s11
    58d6:	8562                	mv	a0,s8
    58d8:	020a2e23          	sw	zero,60(s4)
    58dc:	760010ef          	jal	ra,703c <raw_send>
    58e0:	c62a                	sw	a0,12(sp)
    58e2:	856e                	mv	a0,s11
    58e4:	e7afd0ef          	jal	ra,2f5e <pbuf_free>
    58e8:	03ca2703          	lw	a4,60(s4)
    58ec:	47b2                	lw	a5,12(sp)
    58ee:	c705                	beqz	a4,5916 <SocketIPRawSend+0xce>
    58f0:	03c00513          	li	a0,60
    58f4:	02aa8533          	mul	a0,s5,a0
    58f8:	0009a023          	sw	zero,0(s3)
    58fc:	955e                	add	a0,a0,s7
    58fe:	2118                	lbu	a4,0(a0)
    5900:	04076713          	ori	a4,a4,64
    5904:	c118                	sw	a4,0(a0)
    5906:	0fa00513          	li	a0,250
    590a:	f807dfe3          	bgez	a5,58a8 <SocketIPRawSend+0x60>
    590e:	853e                	mv	a0,a5
    5910:	851ff0ef          	jal	ra,5160 <ErrorEncode>
    5914:	bf51                	j	58a8 <SocketIPRawSend+0x60>
    5916:	fc07cde3          	bltz	a5,58f0 <SocketIPRawSend+0xa8>
    591a:	0009a783          	lw	a5,0(s3)
    591e:	8c05                	sub	s0,s0,s1
    5920:	9b26                	add	s6,s6,s1
    5922:	97a6                	add	a5,a5,s1
    5924:	00f9a023          	sw	a5,0(s3)
    5928:	f82d                	bnez	s0,589a <SocketIPRawSend+0x52>
    592a:	bfb5                	j	58a6 <SocketIPRawSend+0x5e>
    592c:	4569                	li	a0,26
    592e:	bfad                	j	58a8 <SocketIPRawSend+0x60>
    5930:	4545                	li	a0,17
    5932:	bf9d                	j	58a8 <SocketIPRawSend+0x60>

00005934 <SocketUdpSend>:
SocketUdpSend():
    5934:	8d5fa2ef          	jal	t0,208 <__riscv_save_10>
    5938:	4200                	lw	s0,0(a2)
    593a:	00062023          	sw	zero,0(a2)
    593e:	cc5d                	beqz	s0,59fc <SocketUdpSend+0xc8>
    5940:	87aa                	mv	a5,a0
    5942:	8aae                	mv	s5,a1
    5944:	4569                	li	a0,26
    5946:	c5a1                	beqz	a1,598e <SocketUdpSend+0x5a>
    5948:	03c00513          	li	a0,60
    594c:	02a787b3          	mul	a5,a5,a0
    5950:	20017537          	lui	a0,0x20017
    5954:	6cc50513          	addi	a0,a0,1740 # 200176cc <SocketInf>
    5958:	2001ea37          	lui	s4,0x2001e
    595c:	89b2                	mv	s3,a2
    595e:	4901                	li	s2,0
    5960:	97aa                	add	a5,a5,a0
    5962:	0307ab83          	lw	s7,48(a5)
    5966:	e4ca0793          	addi	a5,s4,-436 # 2001de4c <NetInf>
    596a:	43bc                	lw	a5,64(a5)
    596c:	e4ca0a13          	addi	s4,s4,-436
    5970:	8b89                	andi	a5,a5,2
    5972:	e399                	bnez	a5,5978 <SocketUdpSend+0x44>
    5974:	0c700913          	li	s2,199
    5978:	0c900c13          	li	s8,201
    597c:	5c000c93          	li	s9,1472
    5980:	0905                	addi	s2,s2,1
    5982:	0942                	slli	s2,s2,0x10
    5984:	01095913          	srli	s2,s2,0x10
    5988:	01891563          	bne	s2,s8,5992 <SocketUdpSend+0x5e>
    598c:	4501                	li	a0,0
    598e:	8b3fa06f          	j	240 <__riscv_restore_10>
    5992:	84a2                	mv	s1,s0
    5994:	008cf463          	bgeu	s9,s0,599c <SocketUdpSend+0x68>
    5998:	5c000493          	li	s1,1472
    599c:	01049593          	slli	a1,s1,0x10
    59a0:	4601                	li	a2,0
    59a2:	81c1                	srli	a1,a1,0x10
    59a4:	4501                	li	a0,0
    59a6:	e06fd0ef          	jal	ra,2fac <pbuf_alloc>
    59aa:	8b2a                	mv	s6,a0
    59ac:	c931                	beqz	a0,5a00 <SocketUdpSend+0xcc>
    59ae:	4148                	lw	a0,4(a0)
    59b0:	8626                	mv	a2,s1
    59b2:	85d6                	mv	a1,s5
    59b4:	34c030ef          	jal	ra,8d00 <memcpy>
    59b8:	85da                	mv	a1,s6
    59ba:	855e                	mv	a0,s7
    59bc:	020a2e23          	sw	zero,60(s4)
    59c0:	6a9020ef          	jal	ra,8868 <udp_send>
    59c4:	8d2a                	mv	s10,a0
    59c6:	855a                	mv	a0,s6
    59c8:	d96fd0ef          	jal	ra,2f5e <pbuf_free>
    59cc:	03ca2783          	lw	a5,60(s4)
    59d0:	cb99                	beqz	a5,59e6 <SocketUdpSend+0xb2>
    59d2:	0009a023          	sw	zero,0(s3)
    59d6:	0fa00513          	li	a0,250
    59da:	fa0d5ae3          	bgez	s10,598e <SocketUdpSend+0x5a>
    59de:	856a                	mv	a0,s10
    59e0:	f80ff0ef          	jal	ra,5160 <ErrorEncode>
    59e4:	b76d                	j	598e <SocketUdpSend+0x5a>
    59e6:	fe0d46e3          	bltz	s10,59d2 <SocketUdpSend+0x9e>
    59ea:	0009a783          	lw	a5,0(s3)
    59ee:	8c05                	sub	s0,s0,s1
    59f0:	9aa6                	add	s5,s5,s1
    59f2:	97a6                	add	a5,a5,s1
    59f4:	00f9a023          	sw	a5,0(s3)
    59f8:	f441                	bnez	s0,5980 <SocketUdpSend+0x4c>
    59fa:	bf49                	j	598c <SocketUdpSend+0x58>
    59fc:	4569                	li	a0,26
    59fe:	bf41                	j	598e <SocketUdpSend+0x5a>
    5a00:	4545                	li	a0,17
    5a02:	b771                	j	598e <SocketUdpSend+0x5a>

00005a04 <WCHScokedIntHandle>:
WCHScokedIntHandle():
    5a04:	82dfa2ef          	jal	t0,230 <__riscv_save_0>
    5a08:	4791                	li	a5,4
    5a0a:	84aa                	mv	s1,a0
    5a0c:	2100                	lbu	s0,0(a0)
    5a0e:	02f58f63          	beq	a1,a5,5a4c <WCHScokedIntHandle+0x48>
    5a12:	00b7ec63          	bltu	a5,a1,5a2a <WCHScokedIntHandle+0x26>
    5a16:	4785                	li	a5,1
    5a18:	02f58663          	beq	a1,a5,5a44 <WCHScokedIntHandle+0x40>
    5a1c:	4789                	li	a5,2
    5a1e:	00246413          	ori	s0,s0,2
    5a22:	02f58363          	beq	a1,a5,5a48 <WCHScokedIntHandle+0x44>
    5a26:	82ffa06f          	j	254 <__riscv_restore_0>
    5a2a:	47c1                	li	a5,16
    5a2c:	02f58363          	beq	a1,a5,5a52 <WCHScokedIntHandle+0x4e>
    5a30:	04000793          	li	a5,64
    5a34:	02f58663          	beq	a1,a5,5a60 <WCHScokedIntHandle+0x5c>
    5a38:	47a1                	li	a5,8
    5a3a:	fef596e3          	bne	a1,a5,5a26 <WCHScokedIntHandle+0x22>
    5a3e:	00846413          	ori	s0,s0,8
    5a42:	a019                	j	5a48 <WCHScokedIntHandle+0x44>
    5a44:	00146413          	ori	s0,s0,1
    5a48:	c080                	sw	s0,0(s1)
    5a4a:	bff1                	j	5a26 <WCHScokedIntHandle+0x22>
    5a4c:	00446413          	ori	s0,s0,4
    5a50:	bfe5                	j	5a48 <WCHScokedIntHandle+0x44>
    5a52:	5948                	lw	a0,52(a0)
    5a54:	01046413          	ori	s0,s0,16
    5a58:	d965                	beqz	a0,5a48 <WCHScokedIntHandle+0x44>
    5a5a:	db9fd0ef          	jal	ra,3812 <tcp_close>
    5a5e:	b7ed                	j	5a48 <WCHScokedIntHandle+0x44>
    5a60:	04046413          	ori	s0,s0,64
    5a64:	b7d5                	j	5a48 <WCHScokedIntHandle+0x44>

00005a66 <LwipRemoveTcpPcb>:
LwipRemoveTcpPcb():
    5a66:	fcafa2ef          	jal	t0,230 <__riscv_save_0>
    5a6a:	1141                	addi	sp,sp,-16
    5a6c:	00f10593          	addi	a1,sp,15
    5a70:	84aa                	mv	s1,a0
    5a72:	000107a3          	sb	zero,15(sp)
    5a76:	987ff0ef          	jal	ra,53fc <WCHFindCorrectTCBPcb>
    5a7a:	c515                	beqz	a0,5aa6 <LwipRemoveTcpPcb+0x40>
    5a7c:	8780                	lbu	s0,15(sp)
    5a7e:	01841793          	slli	a5,s0,0x18
    5a82:	87e1                	srai	a5,a5,0x18
    5a84:	0207d463          	bgez	a5,5aac <LwipRemoveTcpPcb+0x46>
    5a88:	07f47413          	andi	s0,s0,127
    5a8c:	03c00713          	li	a4,60
    5a90:	02e40433          	mul	s0,s0,a4
    5a94:	200177b7          	lui	a5,0x20017
    5a98:	6cc78793          	addi	a5,a5,1740 # 200176cc <SocketInf>
    5a9c:	943e                	add	s0,s0,a5
    5a9e:	02042a23          	sw	zero,52(s0)
    5aa2:	02042023          	sw	zero,32(s0)
    5aa6:	0141                	addi	sp,sp,16
    5aa8:	facfa06f          	j	254 <__riscv_restore_0>
    5aac:	47fd                	li	a5,31
    5aae:	fe87ece3          	bltu	a5,s0,5aa6 <LwipRemoveTcpPcb+0x40>
    5ab2:	03c00713          	li	a4,60
    5ab6:	02e40733          	mul	a4,s0,a4
    5aba:	200176b7          	lui	a3,0x20017
    5abe:	6cc68793          	addi	a5,a3,1740 # 200176cc <SocketInf>
    5ac2:	6cc68913          	addi	s2,a3,1740
    5ac6:	97ba                	add	a5,a5,a4
    5ac8:	4fd0                	lw	a2,28(a5)
    5aca:	470d                	li	a4,3
    5acc:	fce61de3          	bne	a2,a4,5aa6 <LwipRemoveTcpPcb+0x40>
    5ad0:	2884                	lbu	s1,16(s1)
    5ad2:	03c00613          	li	a2,60
    5ad6:	4581                	li	a1,0
    5ad8:	853e                	mv	a0,a5
    5ada:	f86fa0ef          	jal	ra,260 <memset>
    5ade:	14dd                	addi	s1,s1,-9
    5ae0:	0ff4f493          	andi	s1,s1,255
    5ae4:	4705                	li	a4,1
    5ae6:	00976d63          	bltu	a4,s1,5b00 <LwipRemoveTcpPcb+0x9a>
    5aea:	45c1                	li	a1,16
    5aec:	f19ff0ef          	jal	ra,5a04 <WCHScokedIntHandle>
    5af0:	03c00793          	li	a5,60
    5af4:	02f40433          	mul	s0,s0,a5
    5af8:	944a                	add	s0,s0,s2
    5afa:	02042823          	sw	zero,48(s0)
    5afe:	b755                	j	5aa2 <LwipRemoveTcpPcb+0x3c>
    5b00:	2118                	lbu	a4,0(a0)
    5b02:	04076713          	ori	a4,a4,64
    5b06:	c118                	sw	a4,0(a0)
    5b08:	b7e5                	j	5af0 <LwipRemoveTcpPcb+0x8a>

00005b0a <WCHNET_QueryGlobalInt>:
WCHNET_QueryGlobalInt():
    5b0a:	200177b7          	lui	a5,0x20017
    5b0e:	6cc78793          	addi	a5,a5,1740 # 200176cc <SocketInf>
    5b12:	78078713          	addi	a4,a5,1920
    5b16:	4394                	lw	a3,0(a5)
    5b18:	ce91                	beqz	a3,5b34 <WCHNET_QueryGlobalInt+0x2a>
    5b1a:	2001e7b7          	lui	a5,0x2001e
    5b1e:	e4c78793          	addi	a5,a5,-436 # 2001de4c <NetInf>
    5b22:	57d8                	lw	a4,44(a5)
    5b24:	01076713          	ori	a4,a4,16
    5b28:	d7d8                	sw	a4,44(a5)
    5b2a:	2001e7b7          	lui	a5,0x2001e
    5b2e:	e787c503          	lbu	a0,-392(a5) # 2001de78 <NetInf+0x2c>
    5b32:	8082                	ret
    5b34:	03c78793          	addi	a5,a5,60
    5b38:	fce79fe3          	bne	a5,a4,5b16 <WCHNET_QueryGlobalInt+0xc>
    5b3c:	b7fd                	j	5b2a <WCHNET_QueryGlobalInt+0x20>

00005b3e <WCHNET_GetGlobalInt>:
WCHNET_GetGlobalInt():
    5b3e:	ef2fa2ef          	jal	t0,230 <__riscv_save_0>
    5b42:	fc9ff0ef          	jal	ra,5b0a <WCHNET_QueryGlobalInt>
    5b46:	2001e7b7          	lui	a5,0x2001e
    5b4a:	e607ac23          	sw	zero,-392(a5) # 2001de78 <NetInf+0x2c>
    5b4e:	f06fa06f          	j	254 <__riscv_restore_0>

00005b52 <WCHNET_GetSocketInt>:
WCHNET_GetSocketInt():
    5b52:	47fd                	li	a5,31
    5b54:	00a7ef63          	bltu	a5,a0,5b72 <WCHNET_GetSocketInt+0x20>
    5b58:	03c00793          	li	a5,60
    5b5c:	02f50533          	mul	a0,a0,a5
    5b60:	200177b7          	lui	a5,0x20017
    5b64:	6cc78793          	addi	a5,a5,1740 # 200176cc <SocketInf>
    5b68:	97aa                	add	a5,a5,a0
    5b6a:	2388                	lbu	a0,0(a5)
    5b6c:	0007a023          	sw	zero,0(a5)
    5b70:	8082                	ret
    5b72:	4501                	li	a0,0
    5b74:	8082                	ret

00005b76 <CH563IPSetSocketRecvInit>:
CH563IPSetSocketRecvInit():
    5b76:	200177b7          	lui	a5,0x20017
    5b7a:	6cc78793          	addi	a5,a5,1740 # 200176cc <SocketInf>
    5b7e:	78078693          	addi	a3,a5,1920
    5b82:	4615                	li	a2,5
    5b84:	5398                	lw	a4,32(a5)
    5b86:	00c71863          	bne	a4,a2,5b96 <CH563IPSetSocketRecvInit+0x20>
    5b8a:	4f98                	lw	a4,24(a5)
    5b8c:	c709                	beqz	a4,5b96 <CH563IPSetSocketRecvInit+0x20>
    5b8e:	2398                	lbu	a4,0(a5)
    5b90:	00476713          	ori	a4,a4,4
    5b94:	c398                	sw	a4,0(a5)
    5b96:	03c78793          	addi	a5,a5,60
    5b9a:	fed795e3          	bne	a5,a3,5b84 <CH563IPSetSocketRecvInit+0xe>
    5b9e:	8082                	ret

00005ba0 <WCHNET_MainTask>:
WCHNET_MainTask():
    5ba0:	2001e7b7          	lui	a5,0x2001e
    5ba4:	e707a783          	lw	a5,-400(a5) # 2001de70 <NetInf+0x24>
    5ba8:	8b85                	andi	a5,a5,1
    5baa:	c39d                	beqz	a5,5bd0 <WCHNET_MainTask+0x30>
    5bac:	e84fa2ef          	jal	t0,230 <__riscv_save_0>
    5bb0:	f50ff0ef          	jal	ra,5300 <PhyDataLed_fun>
    5bb4:	bbbfd0ef          	jal	ra,376e <RemoveTimeWaiTCP>
    5bb8:	2001e537          	lui	a0,0x2001e
    5bbc:	da850513          	addi	a0,a0,-600 # 2001dda8 <WCHNetIf>
    5bc0:	d30fc0ef          	jal	ra,20f0 <ethernetif_input>
    5bc4:	f70fc0ef          	jal	ra,2334 <LwIPPeriodicHandle>
    5bc8:	fafff0ef          	jal	ra,5b76 <CH563IPSetSocketRecvInit>
    5bcc:	e88fa06f          	j	254 <__riscv_restore_0>
    5bd0:	8082                	ret

00005bd2 <SocketTcpSend>:
SocketTcpSend():
    5bd2:	e2efa2ef          	jal	t0,200 <__riscv_save_12>
    5bd6:	00062983          	lw	s3,0(a2)
    5bda:	00062023          	sw	zero,0(a2)
    5bde:	10098363          	beqz	s3,5ce4 <SocketTcpSend+0x112>
    5be2:	87aa                	mv	a5,a0
    5be4:	8aae                	mv	s5,a1
    5be6:	4569                	li	a0,26
    5be8:	c9b9                	beqz	a1,5c3e <SocketTcpSend+0x6c>
    5bea:	03c00513          	li	a0,60
    5bee:	02a787b3          	mul	a5,a5,a0
    5bf2:	20017537          	lui	a0,0x20017
    5bf6:	6cc50513          	addi	a0,a0,1740 # 200176cc <SocketInf>
    5bfa:	2001ec37          	lui	s8,0x2001e
    5bfe:	8b32                	mv	s6,a2
    5c00:	4a01                	li	s4,0
    5c02:	97aa                	add	a5,a5,a0
    5c04:	5b80                	lw	s0,48(a5)
    5c06:	e4cc0793          	addi	a5,s8,-436 # 2001de4c <NetInf>
    5c0a:	43bc                	lw	a5,64(a5)
    5c0c:	e4cc0c13          	addi	s8,s8,-436
    5c10:	8b89                	andi	a5,a5,2
    5c12:	e399                	bnez	a5,5c18 <SocketTcpSend+0x46>
    5c14:	0c700a13          	li	s4,199
    5c18:	2001e937          	lui	s2,0x2001e
    5c1c:	4481                	li	s1,0
    5c1e:	0c900c93          	li	s9,201
    5c22:	4d11                	li	s10,4
    5c24:	e9090913          	addi	s2,s2,-368 # 2001de90 <WCHCfg>
    5c28:	5dfd                	li	s11,-1
    5c2a:	0a05                	addi	s4,s4,1
    5c2c:	0a42                	slli	s4,s4,0x10
    5c2e:	010a5a13          	srli	s4,s4,0x10
    5c32:	019a1863          	bne	s4,s9,5c42 <SocketTcpSend+0x70>
    5c36:	000b2783          	lw	a5,0(s6)
    5c3a:	c3dd                	beqz	a5,5ce0 <SocketTcpSend+0x10e>
    5c3c:	4501                	li	a0,0
    5c3e:	dfefa06f          	j	23c <__riscv_restore_12>
    5c42:	481c                	lw	a5,16(s0)
    5c44:	0ba79263          	bne	a5,s10,5ce8 <SocketTcpSend+0x116>
    5c48:	040c2783          	lw	a5,64(s8)
    5c4c:	8b89                	andi	a5,a5,2
    5c4e:	c399                	beqz	a5,5c54 <SocketTcpSend+0x82>
    5c50:	f51ff0ef          	jal	ra,5ba0 <WCHNET_MainTask>
    5c54:	07245703          	lhu	a4,114(s0)
    5c58:	e319                	bnez	a4,5c5e <SocketTcpSend+0x8c>
    5c5a:	4545                	li	a0,17
    5c5c:	b7cd                	j	5c3e <SocketTcpSend+0x6c>
    5c5e:	01092783          	lw	a5,16(s2)
    5c62:	8b85                	andi	a5,a5,1
    5c64:	e399                	bnez	a5,5c6a <SocketTcpSend+0x98>
    5c66:	ff376ae3          	bltu	a4,s3,5c5a <SocketTcpSend+0x88>
    5c6a:	00492783          	lw	a5,4(s2)
    5c6e:	00f77363          	bgeu	a4,a5,5c74 <SocketTcpSend+0xa2>
    5c72:	87ba                	mv	a5,a4
    5c74:	8bce                	mv	s7,s3
    5c76:	0137f363          	bgeu	a5,s3,5c7c <SocketTcpSend+0xaa>
    5c7a:	8bbe                	mv	s7,a5
    5c7c:	8522                	mv	a0,s0
    5c7e:	dbcfe0ef          	jal	ra,423a <tcp_output>
    5c82:	01092783          	lw	a5,16(s2)
    5c86:	010b9613          	slli	a2,s7,0x10
    5c8a:	8241                	srli	a2,a2,0x10
    5c8c:	8b85                	andi	a5,a5,1
    5c8e:	4685                	li	a3,1
    5c90:	e391                	bnez	a5,5c94 <SocketTcpSend+0xc2>
    5c92:	4681                	li	a3,0
    5c94:	85d6                	mv	a1,s5
    5c96:	8522                	mv	a0,s0
    5c98:	d06fe0ef          	jal	ra,419e <tcp_write>
    5c9c:	84aa                	mv	s1,a0
    5c9e:	8522                	mv	a0,s0
    5ca0:	e48d                	bnez	s1,5cca <SocketTcpSend+0xf8>
    5ca2:	d98fe0ef          	jal	ra,423a <tcp_output>
    5ca6:	000b2783          	lw	a5,0(s6)
    5caa:	417989b3          	sub	s3,s3,s7
    5cae:	84aa                	mv	s1,a0
    5cb0:	97de                	add	a5,a5,s7
    5cb2:	00fb2023          	sw	a5,0(s6)
    5cb6:	9ade                	add	s5,s5,s7
    5cb8:	f80982e3          	beqz	s3,5c3c <SocketTcpSend+0x6a>
    5cbc:	01092783          	lw	a5,16(s2)
    5cc0:	8b85                	andi	a5,a5,1
    5cc2:	f7a5                	bnez	a5,5c2a <SocketTcpSend+0x58>
    5cc4:	c9cff0ef          	jal	ra,5160 <ErrorEncode>
    5cc8:	bf9d                	j	5c3e <SocketTcpSend+0x6c>
    5cca:	01b49963          	bne	s1,s11,5cdc <SocketTcpSend+0x10a>
    5cce:	d6cfe0ef          	jal	ra,423a <tcp_output>
    5cd2:	01092783          	lw	a5,16(s2)
    5cd6:	8b85                	andi	a5,a5,1
    5cd8:	fba9                	bnez	a5,5c2a <SocketTcpSend+0x58>
    5cda:	b741                	j	5c5a <SocketTcpSend+0x88>
    5cdc:	d5efe0ef          	jal	ra,423a <tcp_output>
    5ce0:	8526                	mv	a0,s1
    5ce2:	b7cd                	j	5cc4 <SocketTcpSend+0xf2>
    5ce4:	4569                	li	a0,26
    5ce6:	bfa1                	j	5c3e <SocketTcpSend+0x6c>
    5ce8:	455d                	li	a0,23
    5cea:	bf91                	j	5c3e <SocketTcpSend+0x6c>

00005cec <WCHNET_SocketSend>:
WCHNET_SocketSend():
    5cec:	03c00793          	li	a5,60
    5cf0:	02f507b3          	mul	a5,a0,a5
    5cf4:	20017737          	lui	a4,0x20017
    5cf8:	6cc70713          	addi	a4,a4,1740 # 200176cc <SocketInf>
    5cfc:	97ba                	add	a5,a5,a4
    5cfe:	0207a803          	lw	a6,32(a5)
    5d02:	4715                	li	a4,5
    5d04:	00e80763          	beq	a6,a4,5d12 <WCHNET_SocketSend+0x26>
    5d08:	47dd                	li	a5,23
    5d0a:	00062023          	sw	zero,0(a2)
    5d0e:	853e                	mv	a0,a5
    5d10:	8082                	ret
    5d12:	d1efa2ef          	jal	t0,230 <__riscv_save_0>
    5d16:	4fd8                	lw	a4,28(a5)
    5d18:	e719                	bnez	a4,5d26 <WCHNET_SocketSend+0x3a>
    5d1a:	b2fff0ef          	jal	ra,5848 <SocketIPRawSend>
    5d1e:	87aa                	mv	a5,a0
    5d20:	853e                	mv	a0,a5
    5d22:	d32fa06f          	j	254 <__riscv_restore_0>
    5d26:	4789                	li	a5,2
    5d28:	00f71563          	bne	a4,a5,5d32 <WCHNET_SocketSend+0x46>
    5d2c:	c09ff0ef          	jal	ra,5934 <SocketUdpSend>
    5d30:	b7fd                	j	5d1e <WCHNET_SocketSend+0x32>
    5d32:	468d                	li	a3,3
    5d34:	0fa00793          	li	a5,250
    5d38:	fed714e3          	bne	a4,a3,5d20 <WCHNET_SocketSend+0x34>
    5d3c:	e97ff0ef          	jal	ra,5bd2 <SocketTcpSend>
    5d40:	bff9                	j	5d1e <WCHNET_SocketSend+0x32>

00005d42 <WCHNET_GetPHYStatus>:
WCHNET_GetPHYStatus():
    5d42:	2001e7b7          	lui	a5,0x2001e
    5d46:	e6c7c503          	lbu	a0,-404(a5) # 2001de6c <NetInf+0x20>
    5d4a:	8082                	ret

00005d4c <WCHNET_SocketConnect>:
WCHNET_SocketConnect():
    5d4c:	ce4fa2ef          	jal	t0,230 <__riscv_save_0>
    5d50:	03c00413          	li	s0,60
    5d54:	02850433          	mul	s0,a0,s0
    5d58:	20017537          	lui	a0,0x20017
    5d5c:	6cc50513          	addi	a0,a0,1740 # 200176cc <SocketInf>
    5d60:	1141                	addi	sp,sp,-16
    5d62:	942a                	add	s0,s0,a0
    5d64:	5804                	lw	s1,48(s0)
    5d66:	455d                	li	a0,23
    5d68:	cc8d                	beqz	s1,5da2 <WCHNET_SocketConnect+0x56>
    5d6a:	5018                	lw	a4,32(s0)
    5d6c:	4795                	li	a5,5
    5d6e:	455d                	li	a0,23
    5d70:	02f71963          	bne	a4,a5,5da2 <WCHNET_SocketConnect+0x56>
    5d74:	545c                	lw	a5,44(s0)
    5d76:	02042a23          	sw	zero,52(s0)
    5d7a:	000056b7          	lui	a3,0x5
    5d7e:	c63e                	sw	a5,12(sp)
    5d80:	3052                	lhu	a2,36(s0)
    5d82:	11e68693          	addi	a3,a3,286 # 511e <LwipTcpConnectedCallBack>
    5d86:	006c                	addi	a1,sp,12
    5d88:	8526                	mv	a0,s1
    5d8a:	e0dfd0ef          	jal	ra,3b96 <tcp_connect>
    5d8e:	892a                	mv	s2,a0
    5d90:	cd01                	beqz	a0,5da8 <WCHNET_SocketConnect+0x5c>
    5d92:	8526                	mv	a0,s1
    5d94:	a7ffd0ef          	jal	ra,3812 <tcp_close>
    5d98:	854a                	mv	a0,s2
    5d9a:	02042023          	sw	zero,32(s0)
    5d9e:	bc2ff0ef          	jal	ra,5160 <ErrorEncode>
    5da2:	0141                	addi	sp,sp,16
    5da4:	cb0fa06f          	j	254 <__riscv_restore_0>
    5da8:	0264c783          	lbu	a5,38(s1)
    5dac:	4501                	li	a0,0
    5dae:	fbf7f793          	andi	a5,a5,-65
    5db2:	02f48323          	sb	a5,38(s1)
    5db6:	b7f5                	j	5da2 <WCHNET_SocketConnect+0x56>

00005db8 <QueryPingEnable>:
QueryPingEnable():
    5db8:	4505                	li	a0,1
    5dba:	8082                	ret

00005dbc <LwipUnreachPort>:
LwipUnreachPort():
    5dbc:	2001e7b7          	lui	a5,0x2001e
    5dc0:	e4c78793          	addi	a5,a5,-436 # 2001de4c <NetInf>
    5dc4:	4705                	li	a4,1
    5dc6:	1141                	addi	sp,sp,-16
    5dc8:	cbc8                	sw	a0,20(a5)
    5dca:	db94                	sw	a3,48(a5)
    5dcc:	dbd0                	sw	a2,52(a5)
    5dce:	df8c                	sw	a1,56(a5)
    5dd0:	d7d8                	sw	a4,44(a5)
    5dd2:	0141                	addi	sp,sp,16
    5dd4:	8082                	ret

00005dd6 <LwipArpCheck>:
LwipArpCheck():
    5dd6:	2001e7b7          	lui	a5,0x2001e
    5dda:	4705                	li	a4,1
    5ddc:	e8e7a423          	sw	a4,-376(a5) # 2001de88 <NetInf+0x3c>
    5de0:	8082                	ret

00005de2 <find_entry>:
find_entry():
    5de2:	c4efa2ef          	jal	t0,230 <__riscv_save_0>
    5de6:	2001e7b7          	lui	a5,0x2001e
    5dea:	e9c7a603          	lw	a2,-356(a5) # 2001de9c <WCHCfg+0xc>
    5dee:	8341a683          	lw	a3,-1996(gp) # 200000a4 <arp_table>
    5df2:	01861713          	slli	a4,a2,0x18
    5df6:	8761                	srai	a4,a4,0x18
    5df8:	14050b63          	beqz	a0,5f4e <find_entry+0x16c>
    5dfc:	90c1c783          	lbu	a5,-1780(gp) # 2000017c <etharp_cached_entry>
    5e00:	4861                	li	a6,24
    5e02:	4889                	li	a7,2
    5e04:	03078833          	mul	a6,a5,a6
    5e08:	9836                	add	a6,a6,a3
    5e0a:	00c82303          	lw	t1,12(a6)
    5e0e:	15131063          	bne	t1,a7,5f4e <find_entry+0x16c>
    5e12:	00154303          	lbu	t1,1(a0)
    5e16:	00054883          	lbu	a7,0(a0)
    5e1a:	00082803          	lw	a6,0(a6)
    5e1e:	0322                	slli	t1,t1,0x8
    5e20:	01136333          	or	t1,t1,a7
    5e24:	00254883          	lbu	a7,2(a0)
    5e28:	08c2                	slli	a7,a7,0x10
    5e2a:	0068e333          	or	t1,a7,t1
    5e2e:	00354883          	lbu	a7,3(a0)
    5e32:	08e2                	slli	a7,a7,0x18
    5e34:	0068e8b3          	or	a7,a7,t1
    5e38:	11089b63          	bne	a7,a6,5f4e <find_entry+0x16c>
    5e3c:	07e2                	slli	a5,a5,0x18
    5e3e:	87e1                	srai	a5,a5,0x18
    5e40:	853e                	mv	a0,a5
    5e42:	c12fa06f          	j	254 <__riscv_restore_0>
    5e46:	025788b3          	mul	a7,a5,t0
    5e4a:	98b6                	add	a7,a7,a3
    5e4c:	00c8ae03          	lw	t3,12(a7)
    5e50:	07061963          	bne	a2,a6,5ec2 <find_entry+0xe0>
    5e54:	060e1763          	bnez	t3,5ec2 <find_entry+0xe0>
    5e58:	01879813          	slli	a6,a5,0x18
    5e5c:	41885813          	srai	a6,a6,0x18
    5e60:	0785                	addi	a5,a5,1
    5e62:	0ff7f793          	andi	a5,a5,255
    5e66:	fec7e0e3          	bltu	a5,a2,5e46 <find_entry+0x64>
    5e6a:	01061763          	bne	a2,a6,5e78 <find_entry+0x96>
    5e6e:	0015f893          	andi	a7,a1,1
    5e72:	57fd                	li	a5,-1
    5e74:	fc0886e3          	beqz	a7,5e40 <find_entry+0x5e>
    5e78:	8989                	andi	a1,a1,2
    5e7a:	57fd                	li	a5,-1
    5e7c:	f1f1                	bnez	a1,5e40 <find_entry+0x5e>
    5e7e:	0ff87793          	andi	a5,a6,255
    5e82:	00c86b63          	bltu	a6,a2,5e98 <find_entry+0xb6>
    5e86:	0ff37793          	andi	a5,t1,255
    5e8a:	00c36763          	bltu	t1,a2,5e98 <find_entry+0xb6>
    5e8e:	57fd                	li	a5,-1
    5e90:	fac778e3          	bgeu	a4,a2,5e40 <find_entry+0x5e>
    5e94:	0ff77793          	andi	a5,a4,255
    5e98:	4761                	li	a4,24
    5e9a:	02e78733          	mul	a4,a5,a4
    5e9e:	96ba                	add	a3,a3,a4
    5ea0:	0006a623          	sw	zero,12(a3)
    5ea4:	cd01                	beqz	a0,5ebc <find_entry+0xda>
    5ea6:	3110                	lbu	a2,1(a0)
    5ea8:	2118                	lbu	a4,0(a0)
    5eaa:	0622                	slli	a2,a2,0x8
    5eac:	8e59                	or	a2,a2,a4
    5eae:	2138                	lbu	a4,2(a0)
    5eb0:	0742                	slli	a4,a4,0x10
    5eb2:	8e59                	or	a2,a2,a4
    5eb4:	3138                	lbu	a4,3(a0)
    5eb6:	0762                	slli	a4,a4,0x18
    5eb8:	8f51                	or	a4,a4,a2
    5eba:	c298                	sw	a4,0(a3)
    5ebc:	00068823          	sb	zero,16(a3)
    5ec0:	a80d                	j	5ef2 <find_entry+0x110>
    5ec2:	047e1463          	bne	t3,t2,5f0a <find_entry+0x128>
    5ec6:	c90d                	beqz	a0,5ef8 <find_entry+0x116>
    5ec8:	00154e83          	lbu	t4,1(a0)
    5ecc:	00054e03          	lbu	t3,0(a0)
    5ed0:	0ea2                	slli	t4,t4,0x8
    5ed2:	01ceeeb3          	or	t4,t4,t3
    5ed6:	00254e03          	lbu	t3,2(a0)
    5eda:	0e42                	slli	t3,t3,0x10
    5edc:	01de6eb3          	or	t4,t3,t4
    5ee0:	00354e03          	lbu	t3,3(a0)
    5ee4:	0e62                	slli	t3,t3,0x18
    5ee6:	01de6e33          	or	t3,t3,t4
    5eea:	0008ae83          	lw	t4,0(a7)
    5eee:	01de1563          	bne	t3,t4,5ef8 <find_entry+0x116>
    5ef2:	90f18623          	sb	a5,-1780(gp) # 2000017c <etharp_cached_entry>
    5ef6:	b799                	j	5e3c <find_entry+0x5a>
    5ef8:	0108c883          	lbu	a7,16(a7)
    5efc:	f7e8e2e3          	bltu	a7,t5,5e60 <find_entry+0x7e>
    5f00:	01879713          	slli	a4,a5,0x18
    5f04:	8761                	srai	a4,a4,0x18
    5f06:	8f46                	mv	t5,a7
    5f08:	bfa1                	j	5e60 <find_entry+0x7e>
    5f0a:	f48e1be3          	bne	t3,s0,5e60 <find_entry+0x7e>
    5f0e:	c515                	beqz	a0,5f3a <find_entry+0x158>
    5f10:	00154e83          	lbu	t4,1(a0)
    5f14:	00054e03          	lbu	t3,0(a0)
    5f18:	0ea2                	slli	t4,t4,0x8
    5f1a:	01ceeeb3          	or	t4,t4,t3
    5f1e:	00254e03          	lbu	t3,2(a0)
    5f22:	0e42                	slli	t3,t3,0x10
    5f24:	01de6eb3          	or	t4,t3,t4
    5f28:	00354e03          	lbu	t3,3(a0)
    5f2c:	0e62                	slli	t3,t3,0x18
    5f2e:	01de6e33          	or	t3,t3,t4
    5f32:	0008ae83          	lw	t4,0(a7)
    5f36:	fbde0ee3          	beq	t3,t4,5ef2 <find_entry+0x110>
    5f3a:	0108c883          	lbu	a7,16(a7)
    5f3e:	f3f8e1e3          	bltu	a7,t6,5e60 <find_entry+0x7e>
    5f42:	01879313          	slli	t1,a5,0x18
    5f46:	41835313          	srai	t1,t1,0x18
    5f4a:	8fc6                	mv	t6,a7
    5f4c:	bf11                	j	5e60 <find_entry+0x7e>
    5f4e:	883a                	mv	a6,a4
    5f50:	833a                	mv	t1,a4
    5f52:	4f81                	li	t6,0
    5f54:	4f01                	li	t5,0
    5f56:	4781                	li	a5,0
    5f58:	42e1                	li	t0,24
    5f5a:	4385                	li	t2,1
    5f5c:	4409                	li	s0,2
    5f5e:	b721                	j	5e66 <find_entry+0x84>

00005f60 <update_arp_entry>:
update_arp_entry():
    5f60:	ab6fa2ef          	jal	t0,216 <__riscv_save_4>
    5f64:	3198                	lbu	a4,1(a1)
    5f66:	219c                	lbu	a5,0(a1)
    5f68:	0722                	slli	a4,a4,0x8
    5f6a:	8f5d                	or	a4,a4,a5
    5f6c:	21bc                	lbu	a5,2(a1)
    5f6e:	07c2                	slli	a5,a5,0x10
    5f70:	8f5d                	or	a4,a4,a5
    5f72:	31bc                	lbu	a5,3(a1)
    5f74:	07e2                	slli	a5,a5,0x18
    5f76:	8fd9                	or	a5,a5,a4
    5f78:	4158                	lw	a4,4(a0)
    5f7a:	00f71963          	bne	a4,a5,5f8c <update_arp_entry+0x2c>
    5f7e:	4505                	li	a0,1
    5f80:	e33fe0ef          	jal	ra,4db2 <IPConflictHandle>
    5f84:	57d9                	li	a5,-10
    5f86:	853e                	mv	a0,a5
    5f88:	ac2fa06f          	j	24a <__riscv_restore_4>
    5f8c:	dfe5                	beqz	a5,5f84 <update_arp_entry+0x24>
    5f8e:	842e                	mv	s0,a1
    5f90:	892a                	mv	s2,a0
    5f92:	85aa                	mv	a1,a0
    5f94:	8522                	mv	a0,s0
    5f96:	89b2                	mv	s3,a2
    5f98:	8a36                	mv	s4,a3
    5f9a:	731000ef          	jal	ra,6eca <ip_addr_isbroadcast>
    5f9e:	f17d                	bnez	a0,5f84 <update_arp_entry+0x24>
    5fa0:	301c                	lbu	a5,1(s0)
    5fa2:	2004                	lbu	s1,0(s0)
    5fa4:	f0000537          	lui	a0,0xf0000
    5fa8:	07a2                	slli	a5,a5,0x8
    5faa:	8fc5                	or	a5,a5,s1
    5fac:	2024                	lbu	s1,2(s0)
    5fae:	04c2                	slli	s1,s1,0x10
    5fb0:	8fc5                	or	a5,a5,s1
    5fb2:	3024                	lbu	s1,3(s0)
    5fb4:	04e2                	slli	s1,s1,0x18
    5fb6:	8cdd                	or	s1,s1,a5
    5fb8:	cbcfc0ef          	jal	ra,2474 <ntohl>
    5fbc:	8ce9                	and	s1,s1,a0
    5fbe:	e0000537          	lui	a0,0xe0000
    5fc2:	cb2fc0ef          	jal	ra,2474 <ntohl>
    5fc6:	faa48fe3          	beq	s1,a0,5f84 <update_arp_entry+0x24>
    5fca:	85d2                	mv	a1,s4
    5fcc:	8522                	mv	a0,s0
    5fce:	e15ff0ef          	jal	ra,5de2 <find_entry>
    5fd2:	87aa                	mv	a5,a0
    5fd4:	fa0549e3          	bltz	a0,5f86 <update_arp_entry+0x26>
    5fd8:	47e1                	li	a5,24
    5fda:	02f507b3          	mul	a5,a0,a5
    5fde:	8341a503          	lw	a0,-1996(gp) # 200000a4 <arp_table>
    5fe2:	953e                	add	a0,a0,a5
    5fe4:	4789                	li	a5,2
    5fe6:	c55c                	sw	a5,12(a0)
    5fe8:	01252a23          	sw	s2,20(a0) # e0000014 <_eusrstack+0xbffe0014>
    5fec:	00598793          	addi	a5,s3,5
    5ff0:	00950713          	addi	a4,a0,9
    5ff4:	2394                	lbu	a3,0(a5)
    5ff6:	177d                	addi	a4,a4,-1
    5ff8:	b314                	sb	a3,1(a4)
    5ffa:	fff78693          	addi	a3,a5,-1
    5ffe:	00f99663          	bne	s3,a5,600a <update_arp_entry+0xaa>
    6002:	00050823          	sb	zero,16(a0)
    6006:	4781                	li	a5,0
    6008:	bfbd                	j	5f86 <update_arp_entry+0x26>
    600a:	87b6                	mv	a5,a3
    600c:	b7e5                	j	5ff4 <update_arp_entry+0x94>

0000600e <etharp_tmr>:
etharp_tmr():
    600e:	2001e7b7          	lui	a5,0x2001e
    6012:	e9c7a503          	lw	a0,-356(a5) # 2001de9c <WCHCfg+0xc>
    6016:	8341a803          	lw	a6,-1996(gp) # 200000a4 <arp_table>
    601a:	4701                	li	a4,0
    601c:	48e1                	li	a7,24
    601e:	4309                	li	t1,2
    6020:	4605                	li	a2,1
    6022:	0ef00e13          	li	t3,239
    6026:	00a76363          	bltu	a4,a0,602c <etharp_tmr+0x1e>
    602a:	8082                	ret
    602c:	031706b3          	mul	a3,a4,a7
    6030:	96c2                	add	a3,a3,a6
    6032:	2a9c                	lbu	a5,16(a3)
    6034:	46cc                	lw	a1,12(a3)
    6036:	0785                	addi	a5,a5,1
    6038:	0ff7f793          	andi	a5,a5,255
    603c:	aa9c                	sb	a5,16(a3)
    603e:	00659863          	bne	a1,t1,604e <etharp_tmr+0x40>
    6042:	00fe6a63          	bltu	t3,a5,6056 <etharp_tmr+0x48>
    6046:	0705                	addi	a4,a4,1
    6048:	0ff77713          	andi	a4,a4,255
    604c:	bfe9                	j	6026 <etharp_tmr+0x18>
    604e:	fec59ce3          	bne	a1,a2,6046 <etharp_tmr+0x38>
    6052:	fef67ae3          	bgeu	a2,a5,6046 <etharp_tmr+0x38>
    6056:	0006a623          	sw	zero,12(a3)
    605a:	b7f5                	j	6046 <etharp_tmr+0x38>

0000605c <etharp_ip_input>:
etharp_ip_input():
    605c:	c91d                	beqz	a0,6092 <etharp_ip_input+0x36>
    605e:	41cc                	lw	a1,4(a1)
    6060:	2dd8                	lbu	a4,28(a1)
    6062:	3dbc                	lbu	a5,27(a1)
    6064:	0722                	slli	a4,a4,0x8
    6066:	8f5d                	or	a4,a4,a5
    6068:	3ddc                	lbu	a5,29(a1)
    606a:	07c2                	slli	a5,a5,0x10
    606c:	8f5d                	or	a4,a4,a5
    606e:	2dfc                	lbu	a5,30(a1)
    6070:	07e2                	slli	a5,a5,0x18
    6072:	8fd9                	or	a5,a5,a4
    6074:	4158                	lw	a4,4(a0)
    6076:	8fb9                	xor	a5,a5,a4
    6078:	4518                	lw	a4,8(a0)
    607a:	8ff9                	and	a5,a5,a4
    607c:	eb99                	bnez	a5,6092 <etharp_ip_input+0x36>
    607e:	9b2fa2ef          	jal	t0,230 <__riscv_save_0>
    6082:	00758613          	addi	a2,a1,7
    6086:	4681                	li	a3,0
    6088:	05ed                	addi	a1,a1,27
    608a:	ed7ff0ef          	jal	ra,5f60 <update_arp_entry>
    608e:	9c6fa06f          	j	254 <__riscv_restore_0>
    6092:	8082                	ret

00006094 <etharp_arp_input>:
etharp_arp_input():
    6094:	16050063          	beqz	a0,61f4 <etharp_arp_input+0x160>
    6098:	97efa2ef          	jal	t0,216 <__riscv_save_4>
    609c:	263a                	lhu	a4,10(a2)
    609e:	02a00793          	li	a5,42
    60a2:	1141                	addi	sp,sp,-16
    60a4:	8932                	mv	s2,a2
    60a6:	89ae                	mv	s3,a1
    60a8:	84aa                	mv	s1,a0
    60aa:	00e7e863          	bltu	a5,a4,60ba <etharp_arp_input+0x26>
    60ae:	854a                	mv	a0,s2
    60b0:	eaffc0ef          	jal	ra,2f5e <pbuf_free>
    60b4:	0141                	addi	sp,sp,16
    60b6:	994fa06f          	j	24a <__riscv_restore_4>
    60ba:	4240                	lw	s0,4(a2)
    60bc:	4505                	li	a0,1
    60be:	01044a03          	lbu	s4,16(s0)
    60c2:	347c                	lbu	a5,15(s0)
    60c4:	0a22                	slli	s4,s4,0x8
    60c6:	00fa6a33          	or	s4,s4,a5
    60ca:	b6afc0ef          	jal	ra,2434 <htons>
    60ce:	feaa10e3          	bne	s4,a0,60ae <etharp_arp_input+0x1a>
    60d2:	01444a03          	lbu	s4,20(s0)
    60d6:	383c                	lbu	a5,19(s0)
    60d8:	60400513          	li	a0,1540
    60dc:	0a22                	slli	s4,s4,0x8
    60de:	00fa6a33          	or	s4,s4,a5
    60e2:	b52fc0ef          	jal	ra,2434 <htons>
    60e6:	fcaa14e3          	bne	s4,a0,60ae <etharp_arp_input+0x1a>
    60ea:	01244a03          	lbu	s4,18(s0)
    60ee:	381c                	lbu	a5,17(s0)
    60f0:	6a85                	lui	s5,0x1
    60f2:	0a22                	slli	s4,s4,0x8
    60f4:	800a8513          	addi	a0,s5,-2048 # 800 <__stack_size>
    60f8:	00fa6a33          	or	s4,s4,a5
    60fc:	b38fc0ef          	jal	ra,2434 <htons>
    6100:	faaa17e3          	bne	s4,a0,60ae <etharp_arp_input+0x1a>
    6104:	00e44a03          	lbu	s4,14(s0)
    6108:	345c                	lbu	a5,13(s0)
    610a:	806a8513          	addi	a0,s5,-2042
    610e:	0a22                	slli	s4,s4,0x8
    6110:	00fa6a33          	or	s4,s4,a5
    6114:	b20fc0ef          	jal	ra,2434 <htons>
    6118:	f8aa1be3          	bne	s4,a0,60ae <etharp_arp_input+0x1a>
    611c:	01d40a13          	addi	s4,s0,29
    6120:	4611                	li	a2,4
    6122:	85d2                	mv	a1,s4
    6124:	0068                	addi	a0,sp,12
    6126:	3db020ef          	jal	ra,8d00 <memcpy>
    612a:	40d4                	lw	a3,4(s1)
    612c:	01740613          	addi	a2,s0,23
    6130:	c2bd                	beqz	a3,6196 <etharp_arp_input+0x102>
    6132:	02844703          	lbu	a4,40(s0)
    6136:	02744783          	lbu	a5,39(s0)
    613a:	0722                	slli	a4,a4,0x8
    613c:	8f5d                	or	a4,a4,a5
    613e:	02944783          	lbu	a5,41(s0)
    6142:	07c2                	slli	a5,a5,0x10
    6144:	8f5d                	or	a4,a4,a5
    6146:	02a44783          	lbu	a5,42(s0)
    614a:	07e2                	slli	a5,a5,0x18
    614c:	8fd9                	or	a5,a5,a4
    614e:	04f69463          	bne	a3,a5,6196 <etharp_arp_input+0x102>
    6152:	4685                	li	a3,1
    6154:	006c                	addi	a1,sp,12
    6156:	8526                	mv	a0,s1
    6158:	e09ff0ef          	jal	ra,5f60 <update_arp_entry>
    615c:	4a85                	li	s5,1
    615e:	287c                	lbu	a5,22(s0)
    6160:	3848                	lbu	a0,21(s0)
    6162:	07a2                	slli	a5,a5,0x8
    6164:	8d5d                	or	a0,a0,a5
    6166:	acefc0ef          	jal	ra,2434 <htons>
    616a:	4785                	li	a5,1
    616c:	02f50c63          	beq	a0,a5,61a4 <etharp_arp_input+0x110>
    6170:	4789                	li	a5,2
    6172:	f2f51ee3          	bne	a0,a5,60ae <etharp_arp_input+0x1a>
    6176:	006c                	addi	a1,sp,12
    6178:	8526                	mv	a0,s1
    617a:	203020ef          	jal	ra,8b7c <dhcp_arp_reply>
    617e:	2001e7b7          	lui	a5,0x2001e
    6182:	cac7a703          	lw	a4,-852(a5) # 2001dcac <DHCPCtrl>
    6186:	d705                	beqz	a4,60ae <etharp_arp_input+0x1a>
    6188:	cac78793          	addi	a5,a5,-852
    618c:	47dc                	lw	a5,12(a5)
    618e:	f20780e3          	beqz	a5,60ae <etharp_arp_input+0x1a>
    6192:	006c                	addi	a1,sp,12
    6194:	a8a9                	j	61ee <etharp_arp_input+0x15a>
    6196:	4681                	li	a3,0
    6198:	006c                	addi	a1,sp,12
    619a:	8526                	mv	a0,s1
    619c:	dc5ff0ef          	jal	ra,5f60 <update_arp_entry>
    61a0:	4a81                	li	s5,0
    61a2:	bf75                	j	615e <etharp_arp_input+0xca>
    61a4:	f00a85e3          	beqz	s5,60ae <etharp_arp_input+0x1a>
    61a8:	4509                	li	a0,2
    61aa:	a8afc0ef          	jal	ra,2434 <htons>
    61ae:	b848                	sb	a0,21(s0)
    61b0:	8121                	srli	a0,a0,0x8
    61b2:	a868                	sb	a0,22(s0)
    61b4:	4611                	li	a2,4
    61b6:	85d2                	mv	a1,s4
    61b8:	02740513          	addi	a0,s0,39
    61bc:	345020ef          	jal	ra,8d00 <memcpy>
    61c0:	00448593          	addi	a1,s1,4
    61c4:	4611                	li	a2,4
    61c6:	8552                	mv	a0,s4
    61c8:	339020ef          	jal	ra,8d00 <memcpy>
    61cc:	00640793          	addi	a5,s0,6
    61d0:	00598593          	addi	a1,s3,5
    61d4:	2bf8                	lbu	a4,22(a5)
    61d6:	17fd                	addi	a5,a5,-1
    61d8:	15fd                	addi	a1,a1,-1
    61da:	02e780a3          	sb	a4,33(a5)
    61de:	b398                	sb	a4,1(a5)
    61e0:	3198                	lbu	a4,1(a1)
    61e2:	bbf8                	sb	a4,23(a5)
    61e4:	b3f8                	sb	a4,7(a5)
    61e6:	fef417e3          	bne	s0,a5,61d4 <etharp_arp_input+0x140>
    61ea:	4c9c                	lw	a5,24(s1)
    61ec:	85ca                	mv	a1,s2
    61ee:	8526                	mv	a0,s1
    61f0:	9782                	jalr	a5
    61f2:	bd75                	j	60ae <etharp_arp_input+0x1a>
    61f4:	8082                	ret

000061f6 <etharp_request>:
etharp_request():
    61f6:	820fa2ef          	jal	t0,216 <__riscv_save_4>
    61fa:	892a                	mv	s2,a0
    61fc:	89ae                	mv	s3,a1
    61fe:	4601                	li	a2,0
    6200:	02b00593          	li	a1,43
    6204:	450d                	li	a0,3
    6206:	da7fc0ef          	jal	ra,2fac <pbuf_alloc>
    620a:	547d                	li	s0,-1
    620c:	cd55                	beqz	a0,62c8 <etharp_request+0xd2>
    620e:	4140                	lw	s0,4(a0)
    6210:	84aa                	mv	s1,a0
    6212:	4505                	li	a0,1
    6214:	a20fc0ef          	jal	ra,2434 <htons>
    6218:	b848                	sb	a0,21(s0)
    621a:	8121                	srli	a0,a0,0x8
    621c:	a868                	sb	a0,22(s0)
    621e:	03090693          	addi	a3,s2,48
    6222:	00640793          	addi	a5,s0,6
    6226:	4715                	li	a4,5
    6228:	85018593          	addi	a1,gp,-1968 # 200000c0 <ethzero>
    622c:	84818613          	addi	a2,gp,-1976 # 200000b8 <ethbroadcast>
    6230:	557d                	li	a0,-1
    6232:	0006c803          	lbu	a6,0(a3)
    6236:	17fd                	addi	a5,a5,-1
    6238:	16fd                	addi	a3,a3,-1
    623a:	01078ba3          	sb	a6,23(a5)
    623e:	00e58833          	add	a6,a1,a4
    6242:	00084803          	lbu	a6,0(a6)
    6246:	030780a3          	sb	a6,33(a5)
    624a:	00e60833          	add	a6,a2,a4
    624e:	00084803          	lbu	a6,0(a6)
    6252:	177d                	addi	a4,a4,-1
    6254:	010780a3          	sb	a6,1(a5)
    6258:	0016c803          	lbu	a6,1(a3)
    625c:	010783a3          	sb	a6,7(a5)
    6260:	fca719e3          	bne	a4,a0,6232 <etharp_request+0x3c>
    6264:	4611                	li	a2,4
    6266:	00490593          	addi	a1,s2,4
    626a:	01d40513          	addi	a0,s0,29
    626e:	293020ef          	jal	ra,8d00 <memcpy>
    6272:	85ce                	mv	a1,s3
    6274:	4611                	li	a2,4
    6276:	02740513          	addi	a0,s0,39
    627a:	287020ef          	jal	ra,8d00 <memcpy>
    627e:	4505                	li	a0,1
    6280:	9b4fc0ef          	jal	ra,2434 <htons>
    6284:	b468                	sb	a0,15(s0)
    6286:	6985                	lui	s3,0x1
    6288:	8121                	srli	a0,a0,0x8
    628a:	a808                	sb	a0,16(s0)
    628c:	80098513          	addi	a0,s3,-2048 # 800 <__stack_size>
    6290:	9a4fc0ef          	jal	ra,2434 <htons>
    6294:	b808                	sb	a0,17(s0)
    6296:	8121                	srli	a0,a0,0x8
    6298:	a828                	sb	a0,18(s0)
    629a:	60400513          	li	a0,1540
    629e:	996fc0ef          	jal	ra,2434 <htons>
    62a2:	b828                	sb	a0,19(s0)
    62a4:	8121                	srli	a0,a0,0x8
    62a6:	a848                	sb	a0,20(s0)
    62a8:	80698513          	addi	a0,s3,-2042
    62ac:	988fc0ef          	jal	ra,2434 <htons>
    62b0:	01892783          	lw	a5,24(s2)
    62b4:	b448                	sb	a0,13(s0)
    62b6:	8121                	srli	a0,a0,0x8
    62b8:	a468                	sb	a0,14(s0)
    62ba:	85a6                	mv	a1,s1
    62bc:	854a                	mv	a0,s2
    62be:	9782                	jalr	a5
    62c0:	842a                	mv	s0,a0
    62c2:	8526                	mv	a0,s1
    62c4:	c9bfc0ef          	jal	ra,2f5e <pbuf_free>
    62c8:	8522                	mv	a0,s0
    62ca:	f81f906f          	j	24a <__riscv_restore_4>

000062ce <etharp_query>:
etharp_query():
    62ce:	f49f92ef          	jal	t0,216 <__riscv_save_4>
    62d2:	842e                	mv	s0,a1
    62d4:	892a                	mv	s2,a0
    62d6:	85aa                	mv	a1,a0
    62d8:	8522                	mv	a0,s0
    62da:	89b2                	mv	s3,a2
    62dc:	3ef000ef          	jal	ra,6eca <ip_addr_isbroadcast>
    62e0:	c501                	beqz	a0,62e8 <etharp_query+0x1a>
    62e2:	5559                	li	a0,-10
    62e4:	f67f906f          	j	24a <__riscv_restore_4>
    62e8:	301c                	lbu	a5,1(s0)
    62ea:	2004                	lbu	s1,0(s0)
    62ec:	f0000537          	lui	a0,0xf0000
    62f0:	07a2                	slli	a5,a5,0x8
    62f2:	8fc5                	or	a5,a5,s1
    62f4:	2024                	lbu	s1,2(s0)
    62f6:	04c2                	slli	s1,s1,0x10
    62f8:	8fc5                	or	a5,a5,s1
    62fa:	3024                	lbu	s1,3(s0)
    62fc:	04e2                	slli	s1,s1,0x18
    62fe:	8cdd                	or	s1,s1,a5
    6300:	974fc0ef          	jal	ra,2474 <ntohl>
    6304:	8ce9                	and	s1,s1,a0
    6306:	e0000537          	lui	a0,0xe0000
    630a:	96afc0ef          	jal	ra,2474 <ntohl>
    630e:	fca48ae3          	beq	s1,a0,62e2 <etharp_query+0x14>
    6312:	3018                	lbu	a4,1(s0)
    6314:	201c                	lbu	a5,0(s0)
    6316:	0722                	slli	a4,a4,0x8
    6318:	8f5d                	or	a4,a4,a5
    631a:	203c                	lbu	a5,2(s0)
    631c:	07c2                	slli	a5,a5,0x10
    631e:	8f5d                	or	a4,a4,a5
    6320:	303c                	lbu	a5,3(s0)
    6322:	07e2                	slli	a5,a5,0x18
    6324:	8fd9                	or	a5,a5,a4
    6326:	dfd5                	beqz	a5,62e2 <etharp_query+0x14>
    6328:	4585                	li	a1,1
    632a:	8522                	mv	a0,s0
    632c:	ab7ff0ef          	jal	ra,5de2 <find_entry>
    6330:	fa054ae3          	bltz	a0,62e4 <etharp_query+0x16>
    6334:	47e1                	li	a5,24
    6336:	02f504b3          	mul	s1,a0,a5
    633a:	8341a703          	lw	a4,-1996(gp) # 200000a4 <arp_table>
    633e:	83418a13          	addi	s4,gp,-1996 # 200000a4 <arp_table>
    6342:	4785                	li	a5,1
    6344:	9726                	add	a4,a4,s1
    6346:	4754                	lw	a3,12(a4)
    6348:	ea99                	bnez	a3,635e <etharp_query+0x90>
    634a:	c75c                	sw	a5,12(a4)
    634c:	a8bff0ef          	jal	ra,5dd6 <LwipArpCheck>
    6350:	85a2                	mv	a1,s0
    6352:	854a                	mv	a0,s2
    6354:	ea3ff0ef          	jal	ra,61f6 <etharp_request>
    6358:	f80986e3          	beqz	s3,62e4 <etharp_query+0x16>
    635c:	a031                	j	6368 <etharp_query+0x9a>
    635e:	fef687e3          	beq	a3,a5,634c <etharp_query+0x7e>
    6362:	557d                	li	a0,-1
    6364:	fe0984e3          	beqz	s3,634c <etharp_query+0x7e>
    6368:	000a2783          	lw	a5,0(s4)
    636c:	4709                	li	a4,2
    636e:	97a6                	add	a5,a5,s1
    6370:	47d4                	lw	a3,12(a5)
    6372:	f6e699e3          	bne	a3,a4,62e4 <etharp_query+0x16>
    6376:	0049a403          	lw	s0,4(s3)
    637a:	07a5                	addi	a5,a5,9
    637c:	03090693          	addi	a3,s2,48
    6380:	00640713          	addi	a4,s0,6
    6384:	2390                	lbu	a2,0(a5)
    6386:	177d                	addi	a4,a4,-1
    6388:	17fd                	addi	a5,a5,-1
    638a:	b310                	sb	a2,1(a4)
    638c:	2290                	lbu	a2,0(a3)
    638e:	16fd                	addi	a3,a3,-1
    6390:	b370                	sb	a2,7(a4)
    6392:	fee419e3          	bne	s0,a4,6384 <etharp_query+0xb6>
    6396:	6505                	lui	a0,0x1
    6398:	80050513          	addi	a0,a0,-2048 # 800 <__stack_size>
    639c:	898fc0ef          	jal	ra,2434 <htons>
    63a0:	01892783          	lw	a5,24(s2)
    63a4:	b448                	sb	a0,13(s0)
    63a6:	8121                	srli	a0,a0,0x8
    63a8:	a468                	sb	a0,14(s0)
    63aa:	85ce                	mv	a1,s3
    63ac:	854a                	mv	a0,s2
    63ae:	9782                	jalr	a5
    63b0:	bf15                	j	62e4 <etharp_query+0x16>

000063b2 <etharp_output>:
etharp_output():
    63b2:	e65f92ef          	jal	t0,216 <__riscv_save_4>
    63b6:	84ae                	mv	s1,a1
    63b8:	1141                	addi	sp,sp,-16
    63ba:	892a                	mv	s2,a0
    63bc:	45bd                	li	a1,15
    63be:	8526                	mv	a0,s1
    63c0:	8432                	mv	s0,a2
    63c2:	b2ffc0ef          	jal	ra,2ef0 <pbuf_header>
    63c6:	12051863          	bnez	a0,64f6 <etharp_output+0x144>
    63ca:	85ca                	mv	a1,s2
    63cc:	8522                	mv	a0,s0
    63ce:	2fd000ef          	jal	ra,6eca <ip_addr_isbroadcast>
    63d2:	10051f63          	bnez	a0,64f0 <etharp_output+0x13e>
    63d6:	301c                	lbu	a5,1(s0)
    63d8:	00044983          	lbu	s3,0(s0)
    63dc:	f0000537          	lui	a0,0xf0000
    63e0:	07a2                	slli	a5,a5,0x8
    63e2:	0137e7b3          	or	a5,a5,s3
    63e6:	00244983          	lbu	s3,2(s0)
    63ea:	09c2                	slli	s3,s3,0x10
    63ec:	00f9e7b3          	or	a5,s3,a5
    63f0:	00344983          	lbu	s3,3(s0)
    63f4:	09e2                	slli	s3,s3,0x18
    63f6:	00f9e9b3          	or	s3,s3,a5
    63fa:	87afc0ef          	jal	ra,2474 <ntohl>
    63fe:	00a9f9b3          	and	s3,s3,a0
    6402:	e0000537          	lui	a0,0xe0000
    6406:	86efc0ef          	jal	ra,2474 <ntohl>
    640a:	2010                	lbu	a2,0(s0)
    640c:	3014                	lbu	a3,1(s0)
    640e:	2038                	lbu	a4,2(s0)
    6410:	303c                	lbu	a5,3(s0)
    6412:	08a99d63          	bne	s3,a0,64ac <etharp_output+0xfa>
    6416:	00869513          	slli	a0,a3,0x8
    641a:	8d51                	or	a0,a0,a2
    641c:	0742                	slli	a4,a4,0x10
    641e:	8d59                	or	a0,a0,a4
    6420:	07e2                	slli	a5,a5,0x18
    6422:	4585                	li	a1,1
    6424:	846c                	sh	a1,8(sp)
    6426:	8d5d                	or	a0,a0,a5
    6428:	05e00593          	li	a1,94
    642c:	854c                	sb	a1,10(sp)
    642e:	846fc0ef          	jal	ra,2474 <ntohl>
    6432:	8141                	srli	a0,a0,0x10
    6434:	07f57513          	andi	a0,a0,127
    6438:	85c8                	sb	a0,11(sp)
    643a:	3008                	lbu	a0,1(s0)
    643c:	201c                	lbu	a5,0(s0)
    643e:	0522                	slli	a0,a0,0x8
    6440:	8d5d                	or	a0,a0,a5
    6442:	203c                	lbu	a5,2(s0)
    6444:	07c2                	slli	a5,a5,0x10
    6446:	8fc9                	or	a5,a5,a0
    6448:	3028                	lbu	a0,3(s0)
    644a:	0562                	slli	a0,a0,0x18
    644c:	8d5d                	or	a0,a0,a5
    644e:	826fc0ef          	jal	ra,2474 <ntohl>
    6452:	8121                	srli	a0,a0,0x8
    6454:	8648                	sb	a0,12(sp)
    6456:	3008                	lbu	a0,1(s0)
    6458:	201c                	lbu	a5,0(s0)
    645a:	0522                	slli	a0,a0,0x8
    645c:	8d5d                	or	a0,a0,a5
    645e:	203c                	lbu	a5,2(s0)
    6460:	07c2                	slli	a5,a5,0x10
    6462:	8fc9                	or	a5,a5,a0
    6464:	3028                	lbu	a0,3(s0)
    6466:	0562                	slli	a0,a0,0x18
    6468:	8d5d                	or	a0,a0,a5
    646a:	80afc0ef          	jal	ra,2474 <ntohl>
    646e:	86c8                	sb	a0,13(sp)
    6470:	003c                	addi	a5,sp,8
    6472:	40c0                	lw	s0,4(s1)
    6474:	0795                	addi	a5,a5,5
    6476:	03090693          	addi	a3,s2,48
    647a:	00640713          	addi	a4,s0,6
    647e:	2390                	lbu	a2,0(a5)
    6480:	177d                	addi	a4,a4,-1
    6482:	17fd                	addi	a5,a5,-1
    6484:	b310                	sb	a2,1(a4)
    6486:	2290                	lbu	a2,0(a3)
    6488:	16fd                	addi	a3,a3,-1
    648a:	b370                	sb	a2,7(a4)
    648c:	fee419e3          	bne	s0,a4,647e <etharp_output+0xcc>
    6490:	6505                	lui	a0,0x1
    6492:	80050513          	addi	a0,a0,-2048 # 800 <__stack_size>
    6496:	f9ffb0ef          	jal	ra,2434 <htons>
    649a:	01892783          	lw	a5,24(s2)
    649e:	b448                	sb	a0,13(s0)
    64a0:	8121                	srli	a0,a0,0x8
    64a2:	a468                	sb	a0,14(s0)
    64a4:	85a6                	mv	a1,s1
    64a6:	854a                	mv	a0,s2
    64a8:	9782                	jalr	a5
    64aa:	a081                	j	64ea <etharp_output+0x138>
    64ac:	06a2                	slli	a3,a3,0x8
    64ae:	8ed1                	or	a3,a3,a2
    64b0:	0742                	slli	a4,a4,0x10
    64b2:	8f55                	or	a4,a4,a3
    64b4:	07e2                	slli	a5,a5,0x18
    64b6:	8fd9                	or	a5,a5,a4
    64b8:	00492703          	lw	a4,4(s2)
    64bc:	8fb9                	xor	a5,a5,a4
    64be:	00892703          	lw	a4,8(s2)
    64c2:	8ff9                	and	a5,a5,a4
    64c4:	c791                	beqz	a5,64d0 <etharp_output+0x11e>
    64c6:	00c92783          	lw	a5,12(s2)
    64ca:	cb89                	beqz	a5,64dc <etharp_output+0x12a>
    64cc:	00c90413          	addi	s0,s2,12
    64d0:	8626                	mv	a2,s1
    64d2:	85a2                	mv	a1,s0
    64d4:	854a                	mv	a0,s2
    64d6:	df9ff0ef          	jal	ra,62ce <etharp_query>
    64da:	a801                	j	64ea <etharp_output+0x138>
    64dc:	0000a537          	lui	a0,0xa
    64e0:	16450513          	addi	a0,a0,356 # a164 <ErrTable+0x1c>
    64e4:	1ed020ef          	jal	ra,8ed0 <puts>
    64e8:	5571                	li	a0,-4
    64ea:	0141                	addi	sp,sp,16
    64ec:	d5ff906f          	j	24a <__riscv_restore_4>
    64f0:	84818793          	addi	a5,gp,-1976 # 200000b8 <ethbroadcast>
    64f4:	bfbd                	j	6472 <etharp_output+0xc0>
    64f6:	5579                	li	a0,-2
    64f8:	bfcd                	j	64ea <etharp_output+0x138>

000064fa <ethernet_input>:
ethernet_input():
    64fa:	d37f92ef          	jal	t0,230 <__riscv_save_0>
    64fe:	415c                	lw	a5,4(a0)
    6500:	842a                	mv	s0,a0
    6502:	84ae                	mv	s1,a1
    6504:	37c8                	lbu	a0,13(a5)
    6506:	27fc                	lbu	a5,14(a5)
    6508:	07a2                	slli	a5,a5,0x8
    650a:	8d5d                	or	a0,a0,a5
    650c:	f29fb0ef          	jal	ra,2434 <htons>
    6510:	80050793          	addi	a5,a0,-2048
    6514:	cb91                	beqz	a5,6528 <ethernet_input+0x2e>
    6516:	6785                	lui	a5,0x1
    6518:	80678793          	addi	a5,a5,-2042 # 806 <__stack_size+0x6>
    651c:	02f50563          	beq	a0,a5,6546 <ethernet_input+0x4c>
    6520:	8522                	mv	a0,s0
    6522:	a3dfc0ef          	jal	ra,2f5e <pbuf_free>
    6526:	a829                	j	6540 <ethernet_input+0x46>
    6528:	85a2                	mv	a1,s0
    652a:	8526                	mv	a0,s1
    652c:	b31ff0ef          	jal	ra,605c <etharp_ip_input>
    6530:	55c5                	li	a1,-15
    6532:	8522                	mv	a0,s0
    6534:	9bdfc0ef          	jal	ra,2ef0 <pbuf_header>
    6538:	f565                	bnez	a0,6520 <ethernet_input+0x26>
    653a:	85a6                	mv	a1,s1
    653c:	8522                	mv	a0,s0
    653e:	2389                	jal	6a80 <ip_input>
    6540:	4501                	li	a0,0
    6542:	d13f906f          	j	254 <__riscv_restore_0>
    6546:	8622                	mv	a2,s0
    6548:	02b48593          	addi	a1,s1,43
    654c:	8526                	mv	a0,s1
    654e:	b47ff0ef          	jal	ra,6094 <etharp_arp_input>
    6552:	b7fd                	j	6540 <ethernet_input+0x46>

00006554 <icmp_send_response.isra.0>:
icmp_send_response.isra.0():
    6554:	cc3f92ef          	jal	t0,216 <__riscv_save_4>
    6558:	842a                	mv	s0,a0
    655a:	8a2e                	mv	s4,a1
    655c:	89b2                	mv	s3,a2
    655e:	02400593          	li	a1,36
    6562:	4601                	li	a2,0
    6564:	4505                	li	a0,1
    6566:	a47fc0ef          	jal	ra,2fac <pbuf_alloc>
    656a:	cd31                	beqz	a0,65c6 <icmp_send_response.isra.0+0x72>
    656c:	00042903          	lw	s2,0(s0)
    6570:	4140                	lw	s0,4(a0)
    6572:	84aa                	mv	s1,a0
    6574:	4671                	li	a2,28
    6576:	85ca                	mv	a1,s2
    6578:	01440023          	sb	s4,0(s0)
    657c:	013400a3          	sb	s3,1(s0)
    6580:	00040223          	sb	zero,4(s0)
    6584:	000402a3          	sb	zero,5(s0)
    6588:	00040323          	sb	zero,6(s0)
    658c:	000403a3          	sb	zero,7(s0)
    6590:	00840513          	addi	a0,s0,8
    6594:	76c020ef          	jal	ra,8d00 <memcpy>
    6598:	24ae                	lhu	a1,10(s1)
    659a:	00040123          	sb	zero,2(s0)
    659e:	000401a3          	sb	zero,3(s0)
    65a2:	8522                	mv	a0,s0
    65a4:	2909                	jal	69b6 <inet_chksum>
    65a6:	a028                	sb	a0,2(s0)
    65a8:	8121                	srli	a0,a0,0x8
    65aa:	b028                	sb	a0,3(s0)
    65ac:	4785                	li	a5,1
    65ae:	4701                	li	a4,0
    65b0:	08000693          	li	a3,128
    65b4:	00c90613          	addi	a2,s2,12
    65b8:	4581                	li	a1,0
    65ba:	8526                	mv	a0,s1
    65bc:	0d9000ef          	jal	ra,6e94 <ip_output>
    65c0:	8526                	mv	a0,s1
    65c2:	99dfc0ef          	jal	ra,2f5e <pbuf_free>
    65c6:	c85f906f          	j	24a <__riscv_restore_4>

000065ca <icmp_input>:
icmp_input():
    65ca:	c3ff92ef          	jal	t0,208 <__riscv_save_10>
    65ce:	4140                	lw	s0,4(a0)
    65d0:	84aa                	mv	s1,a0
    65d2:	1141                	addi	sp,sp,-16
    65d4:	301c                	lbu	a5,1(s0)
    65d6:	2008                	lbu	a0,0(s0)
    65d8:	89ae                	mv	s3,a1
    65da:	07a2                	slli	a5,a5,0x8
    65dc:	8d5d                	or	a0,a0,a5
    65de:	e65fb0ef          	jal	ra,2442 <ntohs>
    65e2:	00655913          	srli	s2,a0,0x6
    65e6:	03c97913          	andi	s2,s2,60
    65ea:	41200ab3          	neg	s5,s2
    65ee:	0ac2                	slli	s5,s5,0x10
    65f0:	410ada93          	srai	s5,s5,0x10
    65f4:	85d6                	mv	a1,s5
    65f6:	8526                	mv	a0,s1
    65f8:	8f9fc0ef          	jal	ra,2ef0 <pbuf_header>
    65fc:	e139                	bnez	a0,6642 <icmp_input+0x78>
    65fe:	249e                	lhu	a5,8(s1)
    6600:	468d                	li	a3,3
    6602:	04f6f063          	bgeu	a3,a5,6642 <icmp_input+0x78>
    6606:	40dc                	lw	a5,4(s1)
    6608:	2398                	lbu	a4,0(a5)
    660a:	04d71263          	bne	a4,a3,664e <icmp_input+0x84>
    660e:	2798                	lbu	a4,8(a5)
    6610:	00878693          	addi	a3,a5,8
    6614:	3f88                	lbu	a0,25(a5)
    6616:	8b3d                	andi	a4,a4,15
    6618:	070a                	slli	a4,a4,0x2
    661a:	9736                	add	a4,a4,a3
    661c:	232c                	lbu	a1,2(a4)
    661e:	00374803          	lbu	a6,3(a4)
    6622:	2f98                	lbu	a4,24(a5)
    6624:	0522                	slli	a0,a0,0x8
    6626:	3394                	lbu	a3,1(a5)
    6628:	8d59                	or	a0,a0,a4
    662a:	2fb8                	lbu	a4,26(a5)
    662c:	3b90                	lbu	a2,17(a5)
    662e:	05a2                	slli	a1,a1,0x8
    6630:	0742                	slli	a4,a4,0x10
    6632:	8f49                	or	a4,a4,a0
    6634:	3fa8                	lbu	a0,27(a5)
    6636:	0105e5b3          	or	a1,a1,a6
    663a:	0562                	slli	a0,a0,0x18
    663c:	8d59                	or	a0,a0,a4
    663e:	f7eff0ef          	jal	ra,5dbc <LwipUnreachPort>
    6642:	8526                	mv	a0,s1
    6644:	91bfc0ef          	jal	ra,2f5e <pbuf_free>
    6648:	0141                	addi	sp,sp,16
    664a:	bf7f906f          	j	240 <__riscv_restore_10>
    664e:	47a1                	li	a5,8
    6650:	fef719e3          	bne	a4,a5,6642 <icmp_input+0x78>
    6654:	381c                	lbu	a5,17(s0)
    6656:	01044a03          	lbu	s4,16(s0)
    665a:	f0000537          	lui	a0,0xf0000
    665e:	07a2                	slli	a5,a5,0x8
    6660:	0147e7b3          	or	a5,a5,s4
    6664:	01244a03          	lbu	s4,18(s0)
    6668:	4b01                	li	s6,0
    666a:	0a42                	slli	s4,s4,0x10
    666c:	00fa67b3          	or	a5,s4,a5
    6670:	01344a03          	lbu	s4,19(s0)
    6674:	0a62                	slli	s4,s4,0x18
    6676:	00fa6a33          	or	s4,s4,a5
    667a:	dfbfb0ef          	jal	ra,2474 <ntohl>
    667e:	8c2a                	mv	s8,a0
    6680:	e0000537          	lui	a0,0xe0000
    6684:	df1fb0ef          	jal	ra,2474 <ntohl>
    6688:	8baa                	mv	s7,a0
    668a:	85ce                	mv	a1,s3
    668c:	01040513          	addi	a0,s0,16
    6690:	03b000ef          	jal	ra,6eca <ip_addr_isbroadcast>
    6694:	e519                	bnez	a0,66a2 <icmp_input+0xd8>
    6696:	018a7533          	and	a0,s4,s8
    669a:	41750533          	sub	a0,a0,s7
    669e:	00a03b33          	snez	s6,a0
    66a2:	f16ff0ef          	jal	ra,5db8 <QueryPingEnable>
    66a6:	dd51                	beqz	a0,6642 <icmp_input+0x78>
    66a8:	f80b0de3          	beqz	s6,6642 <icmp_input+0x78>
    66ac:	249a                	lhu	a4,8(s1)
    66ae:	479d                	li	a5,7
    66b0:	f8e7f9e3          	bgeu	a5,a4,6642 <icmp_input+0x78>
    66b4:	8526                	mv	a0,s1
    66b6:	2e11                	jal	69ca <inet_chksum_pbuf>
    66b8:	f549                	bnez	a0,6642 <icmp_input+0x78>
    66ba:	0942                	slli	s2,s2,0x10
    66bc:	02200593          	li	a1,34
    66c0:	8526                	mv	a0,s1
    66c2:	41095913          	srai	s2,s2,0x10
    66c6:	82bfc0ef          	jal	ra,2ef0 <pbuf_header>
    66ca:	12050363          	beqz	a0,67f0 <icmp_input+0x226>
    66ce:	85ca                	mv	a1,s2
    66d0:	8526                	mv	a0,s1
    66d2:	81ffc0ef          	jal	ra,2ef0 <pbuf_header>
    66d6:	f535                	bnez	a0,6642 <icmp_input+0x78>
    66d8:	248e                	lhu	a1,8(s1)
    66da:	4601                	li	a2,0
    66dc:	4509                	li	a0,2
    66de:	8cffc0ef          	jal	ra,2fac <pbuf_alloc>
    66e2:	8a2a                	mv	s4,a0
    66e4:	dd39                	beqz	a0,6642 <icmp_input+0x78>
    66e6:	85a6                	mv	a1,s1
    66e8:	aa3fc0ef          	jal	ra,318a <pbuf_copy>
    66ec:	f939                	bnez	a0,6642 <icmp_input+0x78>
    66ee:	85d6                	mv	a1,s5
    66f0:	8552                	mv	a0,s4
    66f2:	004a2403          	lw	s0,4(s4)
    66f6:	ffafc0ef          	jal	ra,2ef0 <pbuf_header>
    66fa:	f521                	bnez	a0,6642 <icmp_input+0x78>
    66fc:	8526                	mv	a0,s1
    66fe:	861fc0ef          	jal	ra,2f5e <pbuf_free>
    6702:	84d2                	mv	s1,s4
    6704:	3458                	lbu	a4,13(s0)
    6706:	245c                	lbu	a5,12(s0)
    6708:	3814                	lbu	a3,17(s0)
    670a:	0722                	slli	a4,a4,0x8
    670c:	8f5d                	or	a4,a4,a5
    670e:	247c                	lbu	a5,14(s0)
    6710:	06a2                	slli	a3,a3,0x8
    6712:	0044aa03          	lw	s4,4(s1)
    6716:	07c2                	slli	a5,a5,0x10
    6718:	8f5d                	or	a4,a4,a5
    671a:	347c                	lbu	a5,15(s0)
    671c:	653d                	lui	a0,0xf
    671e:	7ff50513          	addi	a0,a0,2047 # f7ff <_data_lma+0x55bf>
    6722:	07e2                	slli	a5,a5,0x18
    6724:	8fd9                	or	a5,a5,a4
    6726:	2818                	lbu	a4,16(s0)
    6728:	a81c                	sb	a5,16(s0)
    672a:	8ed9                	or	a3,a3,a4
    672c:	2838                	lbu	a4,18(s0)
    672e:	0742                	slli	a4,a4,0x10
    6730:	8ed9                	or	a3,a3,a4
    6732:	3838                	lbu	a4,19(s0)
    6734:	0762                	slli	a4,a4,0x18
    6736:	8f55                	or	a4,a4,a3
    6738:	00875693          	srli	a3,a4,0x8
    673c:	a458                	sb	a4,12(s0)
    673e:	b454                	sb	a3,13(s0)
    6740:	01075693          	srli	a3,a4,0x10
    6744:	8361                	srli	a4,a4,0x18
    6746:	b478                	sb	a4,15(s0)
    6748:	0087d713          	srli	a4,a5,0x8
    674c:	b818                	sb	a4,17(s0)
    674e:	0107d713          	srli	a4,a5,0x10
    6752:	83e1                	srli	a5,a5,0x18
    6754:	a474                	sb	a3,14(s0)
    6756:	a838                	sb	a4,18(s0)
    6758:	b83c                	sb	a5,19(s0)
    675a:	003a4a83          	lbu	s5,3(s4)
    675e:	002a4783          	lbu	a5,2(s4)
    6762:	000a0023          	sb	zero,0(s4)
    6766:	0aa2                	slli	s5,s5,0x8
    6768:	00faeab3          	or	s5,s5,a5
    676c:	cc9fb0ef          	jal	ra,2434 <htons>
    6770:	08aae863          	bltu	s5,a0,6800 <icmp_input+0x236>
    6774:	6505                	lui	a0,0x1
    6776:	80050513          	addi	a0,a0,-2048 # 800 <__stack_size>
    677a:	cbbfb0ef          	jal	ra,2434 <htons>
    677e:	003a4783          	lbu	a5,3(s4)
    6782:	002a4703          	lbu	a4,2(s4)
    6786:	07a2                	slli	a5,a5,0x8
    6788:	8fd9                	or	a5,a5,a4
    678a:	0785                	addi	a5,a5,1
    678c:	953e                	add	a0,a0,a5
    678e:	0542                	slli	a0,a0,0x10
    6790:	8141                	srli	a0,a0,0x10
    6792:	00aa0123          	sb	a0,2(s4)
    6796:	8121                	srli	a0,a0,0x8
    6798:	00aa01a3          	sb	a0,3(s4)
    679c:	341c                	lbu	a5,9(s0)
    679e:	2408                	lbu	a0,8(s0)
    67a0:	07a2                	slli	a5,a5,0x8
    67a2:	8d5d                	or	a0,a0,a5
    67a4:	c9ffb0ef          	jal	ra,2442 <ntohs>
    67a8:	67a1                	lui	a5,0x8
    67aa:	0ff57513          	andi	a0,a0,255
    67ae:	8d5d                	or	a0,a0,a5
    67b0:	c85fb0ef          	jal	ra,2434 <htons>
    67b4:	a408                	sb	a0,8(s0)
    67b6:	8121                	srli	a0,a0,0x8
    67b8:	b408                	sb	a0,9(s0)
    67ba:	45d1                	li	a1,20
    67bc:	00040523          	sb	zero,10(s0)
    67c0:	000405a3          	sb	zero,11(s0)
    67c4:	8522                	mv	a0,s0
    67c6:	2ac5                	jal	69b6 <inet_chksum>
    67c8:	a428                	sb	a0,10(s0)
    67ca:	8121                	srli	a0,a0,0x8
    67cc:	b428                	sb	a0,11(s0)
    67ce:	85ca                	mv	a1,s2
    67d0:	8526                	mv	a0,s1
    67d2:	f1efc0ef          	jal	ra,2ef0 <pbuf_header>
    67d6:	e60516e3          	bnez	a0,6642 <icmp_input+0x78>
    67da:	884e                	mv	a6,s3
    67dc:	4785                	li	a5,1
    67de:	4701                	li	a4,0
    67e0:	08000693          	li	a3,128
    67e4:	4601                	li	a2,0
    67e6:	00c40593          	addi	a1,s0,12
    67ea:	8526                	mv	a0,s1
    67ec:	23b1                	jal	6d38 <ip_output_if>
    67ee:	bd91                	j	6642 <icmp_input+0x78>
    67f0:	fde00593          	li	a1,-34
    67f4:	8526                	mv	a0,s1
    67f6:	efafc0ef          	jal	ra,2ef0 <pbuf_header>
    67fa:	f00505e3          	beqz	a0,6704 <icmp_input+0x13a>
    67fe:	b591                	j	6642 <icmp_input+0x78>
    6800:	6505                	lui	a0,0x1
    6802:	80050513          	addi	a0,a0,-2048 # 800 <__stack_size>
    6806:	c2ffb0ef          	jal	ra,2434 <htons>
    680a:	003a4783          	lbu	a5,3(s4)
    680e:	002a4703          	lbu	a4,2(s4)
    6812:	07a2                	slli	a5,a5,0x8
    6814:	8fd9                	or	a5,a5,a4
    6816:	bf9d                	j	678c <icmp_input+0x1c2>

00006818 <icmp_dest_unreach>:
icmp_dest_unreach():
    6818:	a19f92ef          	jal	t0,230 <__riscv_save_0>
    681c:	0ff5f613          	andi	a2,a1,255
    6820:	0511                	addi	a0,a0,4
    6822:	458d                	li	a1,3
    6824:	d31ff0ef          	jal	ra,6554 <icmp_send_response.isra.0>
    6828:	a2df906f          	j	254 <__riscv_restore_0>

0000682c <icmp_time_exceeded>:
icmp_time_exceeded():
    682c:	a05f92ef          	jal	t0,230 <__riscv_save_0>
    6830:	0ff5f613          	andi	a2,a1,255
    6834:	0511                	addi	a0,a0,4
    6836:	45ad                	li	a1,11
    6838:	d1dff0ef          	jal	ra,6554 <icmp_send_response.isra.0>
    683c:	a19f906f          	j	254 <__riscv_restore_0>

00006840 <lwip_standard_chksum>:
lwip_standard_chksum():
    6840:	9f1f92ef          	jal	t0,230 <__riscv_save_0>
    6844:	00b50833          	add	a6,a0,a1
    6848:	0842                	slli	a6,a6,0x10
    684a:	86aa                	mv	a3,a0
    684c:	4701                	li	a4,0
    684e:	01085813          	srli	a6,a6,0x10
    6852:	4885                	li	a7,1
    6854:	40d807b3          	sub	a5,a6,a3
    6858:	07c2                	slli	a5,a5,0x10
    685a:	83c1                	srli	a5,a5,0x10
    685c:	04f8e463          	bltu	a7,a5,68a4 <lwip_standard_chksum+0x64>
    6860:	0015d793          	srli	a5,a1,0x1
    6864:	00179693          	slli	a3,a5,0x1
    6868:	9536                	add	a0,a0,a3
    686a:	56f9                	li	a3,-2
    686c:	02d787b3          	mul	a5,a5,a3
    6870:	95be                	add	a1,a1,a5
    6872:	05c2                	slli	a1,a1,0x10
    6874:	81c1                	srli	a1,a1,0x10
    6876:	c581                	beqz	a1,687e <lwip_standard_chksum+0x3e>
    6878:	211c                	lbu	a5,0(a0)
    687a:	07a2                	slli	a5,a5,0x8
    687c:	973e                	add	a4,a4,a5
    687e:	6541                	lui	a0,0x10
    6880:	fff50693          	addi	a3,a0,-1 # ffff <_data_lma+0x5dbf>
    6884:	01075793          	srli	a5,a4,0x10
    6888:	8f75                	and	a4,a4,a3
    688a:	00e78533          	add	a0,a5,a4
    688e:	77c1                	lui	a5,0xffff0
    6890:	8fe9                	and	a5,a5,a0
    6892:	c399                	beqz	a5,6898 <lwip_standard_chksum+0x58>
    6894:	8d75                	and	a0,a0,a3
    6896:	0505                	addi	a0,a0,1
    6898:	0542                	slli	a0,a0,0x10
    689a:	8141                	srli	a0,a0,0x10
    689c:	b99fb0ef          	jal	ra,2434 <htons>
    68a0:	9b5f906f          	j	254 <__riscv_restore_0>
    68a4:	329c                	lbu	a5,1(a3)
    68a6:	2290                	lbu	a2,0(a3)
    68a8:	0689                	addi	a3,a3,2
    68aa:	07a2                	slli	a5,a5,0x8
    68ac:	8fd1                	or	a5,a5,a2
    68ae:	00879613          	slli	a2,a5,0x8
    68b2:	83a1                	srli	a5,a5,0x8
    68b4:	8fd1                	or	a5,a5,a2
    68b6:	07c2                	slli	a5,a5,0x10
    68b8:	83c1                	srli	a5,a5,0x10
    68ba:	973e                	add	a4,a4,a5
    68bc:	bf61                	j	6854 <lwip_standard_chksum+0x14>

000068be <inet_chksum_pseudo>:
inet_chksum_pseudo():
    68be:	94bf92ef          	jal	t0,208 <__riscv_save_10>
    68c2:	6b41                	lui	s6,0x10
    68c4:	1141                	addi	sp,sp,-16
    68c6:	892a                	mv	s2,a0
    68c8:	8aae                	mv	s5,a1
    68ca:	8a32                	mv	s4,a2
    68cc:	84ba                	mv	s1,a4
    68ce:	4981                	li	s3,0
    68d0:	4401                	li	s0,0
    68d2:	1b7d                	addi	s6,s6,-1
    68d4:	4b85                	li	s7,1
    68d6:	08091f63          	bnez	s2,6974 <inet_chksum_pseudo+0xb6>
    68da:	00098b63          	beqz	s3,68f0 <inet_chksum_pseudo+0x32>
    68de:	6741                	lui	a4,0x10
    68e0:	00841793          	slli	a5,s0,0x8
    68e4:	177d                	addi	a4,a4,-1
    68e6:	8021                	srli	s0,s0,0x8
    68e8:	8ff9                	and	a5,a5,a4
    68ea:	0ff47413          	andi	s0,s0,255
    68ee:	8c5d                	or	s0,s0,a5
    68f0:	001ac503          	lbu	a0,1(s5)
    68f4:	000ac783          	lbu	a5,0(s5)
    68f8:	000a4703          	lbu	a4,0(s4)
    68fc:	0522                	slli	a0,a0,0x8
    68fe:	8d5d                	or	a0,a0,a5
    6900:	002ac783          	lbu	a5,2(s5)
    6904:	003a4603          	lbu	a2,3(s4)
    6908:	07c2                	slli	a5,a5,0x10
    690a:	8d5d                	or	a0,a0,a5
    690c:	003ac783          	lbu	a5,3(s5)
    6910:	0662                	slli	a2,a2,0x18
    6912:	07e2                	slli	a5,a5,0x18
    6914:	8fc9                	or	a5,a5,a0
    6916:	001a4503          	lbu	a0,1(s4)
    691a:	0522                	slli	a0,a0,0x8
    691c:	8f49                	or	a4,a4,a0
    691e:	002a4503          	lbu	a0,2(s4)
    6922:	0542                	slli	a0,a0,0x10
    6924:	8d59                	or	a0,a0,a4
    6926:	8e49                	or	a2,a2,a0
    6928:	6541                	lui	a0,0x10
    692a:	fff50913          	addi	s2,a0,-1 # ffff <_data_lma+0x5dbf>
    692e:	01267533          	and	a0,a2,s2
    6932:	8241                	srli	a2,a2,0x10
    6934:	0127f733          	and	a4,a5,s2
    6938:	9532                	add	a0,a0,a2
    693a:	953a                	add	a0,a0,a4
    693c:	83c1                	srli	a5,a5,0x10
    693e:	953e                	add	a0,a0,a5
    6940:	942a                	add	s0,s0,a0
    6942:	8536                	mv	a0,a3
    6944:	af1fb0ef          	jal	ra,2434 <htons>
    6948:	942a                	add	s0,s0,a0
    694a:	8526                	mv	a0,s1
    694c:	ae9fb0ef          	jal	ra,2434 <htons>
    6950:	9522                	add	a0,a0,s0
    6952:	01055793          	srli	a5,a0,0x10
    6956:	01257533          	and	a0,a0,s2
    695a:	953e                	add	a0,a0,a5
    695c:	01055793          	srli	a5,a0,0x10
    6960:	01257533          	and	a0,a0,s2
    6964:	953e                	add	a0,a0,a5
    6966:	fff54513          	not	a0,a0
    696a:	0542                	slli	a0,a0,0x10
    696c:	8141                	srli	a0,a0,0x10
    696e:	0141                	addi	sp,sp,16
    6970:	8d1f906f          	j	240 <__riscv_restore_10>
    6974:	00a95583          	lhu	a1,10(s2)
    6978:	00492503          	lw	a0,4(s2)
    697c:	c636                	sw	a3,12(sp)
    697e:	ec3ff0ef          	jal	ra,6840 <lwip_standard_chksum>
    6982:	942a                	add	s0,s0,a0
    6984:	01045793          	srli	a5,s0,0x10
    6988:	01647433          	and	s0,s0,s6
    698c:	943e                	add	s0,s0,a5
    698e:	00a95783          	lhu	a5,10(s2)
    6992:	46b2                	lw	a3,12(sp)
    6994:	8b85                	andi	a5,a5,1
    6996:	cf89                	beqz	a5,69b0 <inet_chksum_pseudo+0xf2>
    6998:	00841793          	slli	a5,s0,0x8
    699c:	8021                	srli	s0,s0,0x8
    699e:	413b89b3          	sub	s3,s7,s3
    69a2:	0167f7b3          	and	a5,a5,s6
    69a6:	0ff47413          	andi	s0,s0,255
    69aa:	0ff9f993          	andi	s3,s3,255
    69ae:	8c5d                	or	s0,s0,a5
    69b0:	00092903          	lw	s2,0(s2)
    69b4:	b70d                	j	68d6 <inet_chksum_pseudo+0x18>

000069b6 <inet_chksum>:
inet_chksum():
    69b6:	87bf92ef          	jal	t0,230 <__riscv_save_0>
    69ba:	e87ff0ef          	jal	ra,6840 <lwip_standard_chksum>
    69be:	fff54513          	not	a0,a0
    69c2:	0542                	slli	a0,a0,0x10
    69c4:	8141                	srli	a0,a0,0x10
    69c6:	88ff906f          	j	254 <__riscv_restore_0>

000069ca <inet_chksum_pbuf>:
inet_chksum_pbuf():
    69ca:	84df92ef          	jal	t0,216 <__riscv_save_4>
    69ce:	69c1                	lui	s3,0x10
    69d0:	84aa                	mv	s1,a0
    69d2:	4901                	li	s2,0
    69d4:	4401                	li	s0,0
    69d6:	19fd                	addi	s3,s3,-1
    69d8:	4a05                	li	s4,1
    69da:	e095                	bnez	s1,69fe <inet_chksum_pbuf+0x34>
    69dc:	00090b63          	beqz	s2,69f2 <inet_chksum_pbuf+0x28>
    69e0:	6741                	lui	a4,0x10
    69e2:	00841793          	slli	a5,s0,0x8
    69e6:	177d                	addi	a4,a4,-1
    69e8:	8021                	srli	s0,s0,0x8
    69ea:	8ff9                	and	a5,a5,a4
    69ec:	0ff47413          	andi	s0,s0,255
    69f0:	8c5d                	or	s0,s0,a5
    69f2:	fff44513          	not	a0,s0
    69f6:	0542                	slli	a0,a0,0x10
    69f8:	8141                	srli	a0,a0,0x10
    69fa:	851f906f          	j	24a <__riscv_restore_4>
    69fe:	24ae                	lhu	a1,10(s1)
    6a00:	40c8                	lw	a0,4(s1)
    6a02:	e3fff0ef          	jal	ra,6840 <lwip_standard_chksum>
    6a06:	942a                	add	s0,s0,a0
    6a08:	01045793          	srli	a5,s0,0x10
    6a0c:	01347433          	and	s0,s0,s3
    6a10:	943e                	add	s0,s0,a5
    6a12:	24be                	lhu	a5,10(s1)
    6a14:	8b85                	andi	a5,a5,1
    6a16:	cf89                	beqz	a5,6a30 <inet_chksum_pbuf+0x66>
    6a18:	00841793          	slli	a5,s0,0x8
    6a1c:	8021                	srli	s0,s0,0x8
    6a1e:	412a0933          	sub	s2,s4,s2
    6a22:	0137f7b3          	and	a5,a5,s3
    6a26:	0ff47413          	andi	s0,s0,255
    6a2a:	0ff97913          	andi	s2,s2,255
    6a2e:	8c5d                	or	s0,s0,a5
    6a30:	4084                	lw	s1,0(s1)
    6a32:	b765                	j	69da <inet_chksum_pbuf+0x10>

00006a34 <ip_route>:
ip_route():
    6a34:	ffcf92ef          	jal	t0,230 <__riscv_save_0>
    6a38:	8d81a403          	lw	s0,-1832(gp) # 20000148 <netif_list>
    6a3c:	84aa                	mv	s1,a0
    6a3e:	ec01                	bnez	s0,6a56 <ip_route+0x22>
    6a40:	8d41a503          	lw	a0,-1836(gp) # 20000144 <netif_default>
    6a44:	c511                	beqz	a0,6a50 <ip_route+0x1c>
    6a46:	ca2fc0ef          	jal	ra,2ee8 <netif_is_up>
    6a4a:	c119                	beqz	a0,6a50 <ip_route+0x1c>
    6a4c:	8d41a403          	lw	s0,-1836(gp) # 20000144 <netif_default>
    6a50:	8522                	mv	a0,s0
    6a52:	803f906f          	j	254 <__riscv_restore_0>
    6a56:	8522                	mv	a0,s0
    6a58:	c90fc0ef          	jal	ra,2ee8 <netif_is_up>
    6a5c:	c105                	beqz	a0,6a7c <ip_route+0x48>
    6a5e:	3098                	lbu	a4,1(s1)
    6a60:	209c                	lbu	a5,0(s1)
    6a62:	0722                	slli	a4,a4,0x8
    6a64:	8f5d                	or	a4,a4,a5
    6a66:	20bc                	lbu	a5,2(s1)
    6a68:	07c2                	slli	a5,a5,0x10
    6a6a:	8f5d                	or	a4,a4,a5
    6a6c:	30bc                	lbu	a5,3(s1)
    6a6e:	07e2                	slli	a5,a5,0x18
    6a70:	8fd9                	or	a5,a5,a4
    6a72:	4058                	lw	a4,4(s0)
    6a74:	8fb9                	xor	a5,a5,a4
    6a76:	4418                	lw	a4,8(s0)
    6a78:	8ff9                	and	a5,a5,a4
    6a7a:	dbf9                	beqz	a5,6a50 <ip_route+0x1c>
    6a7c:	4000                	lw	s0,0(s0)
    6a7e:	b7c1                	j	6a3e <ip_route+0xa>

00006a80 <ip_input>:
ip_input():
    6a80:	f88f92ef          	jal	t0,208 <__riscv_save_10>
    6a84:	4140                	lw	s0,4(a0)
    6a86:	84aa                	mv	s1,a0
    6a88:	89ae                	mv	s3,a1
    6a8a:	301c                	lbu	a5,1(s0)
    6a8c:	2008                	lbu	a0,0(s0)
    6a8e:	07a2                	slli	a5,a5,0x8
    6a90:	8d5d                	or	a0,a0,a5
    6a92:	9b1fb0ef          	jal	ra,2442 <ntohs>
    6a96:	8131                	srli	a0,a0,0xc
    6a98:	0542                	slli	a0,a0,0x10
    6a9a:	8141                	srli	a0,a0,0x10
    6a9c:	4791                	li	a5,4
    6a9e:	00f50863          	beq	a0,a5,6aae <ip_input+0x2e>
    6aa2:	8526                	mv	a0,s1
    6aa4:	cbafc0ef          	jal	ra,2f5e <pbuf_free>
    6aa8:	4501                	li	a0,0
    6aaa:	f96f906f          	j	240 <__riscv_restore_10>
    6aae:	301c                	lbu	a5,1(s0)
    6ab0:	2008                	lbu	a0,0(s0)
    6ab2:	07a2                	slli	a5,a5,0x8
    6ab4:	8d5d                	or	a0,a0,a5
    6ab6:	98dfb0ef          	jal	ra,2442 <ntohs>
    6aba:	8119                	srli	a0,a0,0x6
    6abc:	303c                	lbu	a5,3(s0)
    6abe:	03c57a13          	andi	s4,a0,60
    6ac2:	2028                	lbu	a0,2(s0)
    6ac4:	07a2                	slli	a5,a5,0x8
    6ac6:	8d5d                	or	a0,a0,a5
    6ac8:	97bfb0ef          	jal	ra,2442 <ntohs>
    6acc:	24be                	lhu	a5,10(s1)
    6ace:	892a                	mv	s2,a0
    6ad0:	fd47e9e3          	bltu	a5,s4,6aa2 <ip_input+0x22>
    6ad4:	249e                	lhu	a5,8(s1)
    6ad6:	fca7e6e3          	bltu	a5,a0,6aa2 <ip_input+0x22>
    6ada:	85d2                	mv	a1,s4
    6adc:	8522                	mv	a0,s0
    6ade:	ed9ff0ef          	jal	ra,69b6 <inet_chksum>
    6ae2:	f161                	bnez	a0,6aa2 <ip_input+0x22>
    6ae4:	85ca                	mv	a1,s2
    6ae6:	8526                	mv	a0,s1
    6ae8:	e02fc0ef          	jal	ra,30ea <pbuf_realloc>
    6aec:	f0000537          	lui	a0,0xf0000
    6af0:	985fb0ef          	jal	ra,2474 <ntohl>
    6af4:	e0000537          	lui	a0,0xe0000
    6af8:	97dfb0ef          	jal	ra,2474 <ntohl>
    6afc:	894e                	mv	s2,s3
    6afe:	4b05                	li	s6,1
    6b00:	01040b93          	addi	s7,s0,16
    6b04:	854a                	mv	a0,s2
    6b06:	be2fc0ef          	jal	ra,2ee8 <netif_is_up>
    6b0a:	e511                	bnez	a0,6b16 <ip_input+0x96>
    6b0c:	120b1c63          	bnez	s6,6c44 <ip_input+0x1c4>
    6b10:	00092903          	lw	s2,0(s2)
    6b14:	aa15                	j	6c48 <ip_input+0x1c8>
    6b16:	00490793          	addi	a5,s2,4
    6b1a:	dbed                	beqz	a5,6b0c <ip_input+0x8c>
    6b1c:	00492683          	lw	a3,4(s2)
    6b20:	d6f5                	beqz	a3,6b0c <ip_input+0x8c>
    6b22:	3818                	lbu	a4,17(s0)
    6b24:	281c                	lbu	a5,16(s0)
    6b26:	0722                	slli	a4,a4,0x8
    6b28:	8f5d                	or	a4,a4,a5
    6b2a:	283c                	lbu	a5,18(s0)
    6b2c:	07c2                	slli	a5,a5,0x10
    6b2e:	8f5d                	or	a4,a4,a5
    6b30:	383c                	lbu	a5,19(s0)
    6b32:	07e2                	slli	a5,a5,0x18
    6b34:	8fd9                	or	a5,a5,a4
    6b36:	04f68263          	beq	a3,a5,6b7a <ip_input+0xfa>
    6b3a:	85ca                	mv	a1,s2
    6b3c:	855e                	mv	a0,s7
    6b3e:	2671                	jal	6eca <ip_addr_isbroadcast>
    6b40:	ed0d                	bnez	a0,6b7a <ip_input+0xfa>
    6b42:	381c                	lbu	a5,17(s0)
    6b44:	01044a83          	lbu	s5,16(s0)
    6b48:	f0000537          	lui	a0,0xf0000
    6b4c:	07a2                	slli	a5,a5,0x8
    6b4e:	0157e7b3          	or	a5,a5,s5
    6b52:	01244a83          	lbu	s5,18(s0)
    6b56:	0ac2                	slli	s5,s5,0x10
    6b58:	00fae7b3          	or	a5,s5,a5
    6b5c:	01344a83          	lbu	s5,19(s0)
    6b60:	0ae2                	slli	s5,s5,0x18
    6b62:	00faeab3          	or	s5,s5,a5
    6b66:	90ffb0ef          	jal	ra,2474 <ntohl>
    6b6a:	00aafab3          	and	s5,s5,a0
    6b6e:	e0000537          	lui	a0,0xe0000
    6b72:	903fb0ef          	jal	ra,2474 <ntohl>
    6b76:	f8aa9be3          	bne	s5,a0,6b0c <ip_input+0x8c>
    6b7a:	3458                	lbu	a4,13(s0)
    6b7c:	245c                	lbu	a5,12(s0)
    6b7e:	0722                	slli	a4,a4,0x8
    6b80:	8f5d                	or	a4,a4,a5
    6b82:	247c                	lbu	a5,14(s0)
    6b84:	07c2                	slli	a5,a5,0x10
    6b86:	8f5d                	or	a4,a4,a5
    6b88:	347c                	lbu	a5,15(s0)
    6b8a:	07e2                	slli	a5,a5,0x18
    6b8c:	8fd9                	or	a5,a5,a4
    6b8e:	c3b9                	beqz	a5,6bd4 <ip_input+0x154>
    6b90:	85ce                	mv	a1,s3
    6b92:	00c40513          	addi	a0,s0,12
    6b96:	2e15                	jal	6eca <ip_addr_isbroadcast>
    6b98:	f00515e3          	bnez	a0,6aa2 <ip_input+0x22>
    6b9c:	345c                	lbu	a5,13(s0)
    6b9e:	00c44a03          	lbu	s4,12(s0)
    6ba2:	f0000537          	lui	a0,0xf0000
    6ba6:	07a2                	slli	a5,a5,0x8
    6ba8:	0147e7b3          	or	a5,a5,s4
    6bac:	00e44a03          	lbu	s4,14(s0)
    6bb0:	0a42                	slli	s4,s4,0x10
    6bb2:	00fa67b3          	or	a5,s4,a5
    6bb6:	00f44a03          	lbu	s4,15(s0)
    6bba:	0a62                	slli	s4,s4,0x18
    6bbc:	00fa6a33          	or	s4,s4,a5
    6bc0:	8b5fb0ef          	jal	ra,2474 <ntohl>
    6bc4:	00aa7a33          	and	s4,s4,a0
    6bc8:	e0000537          	lui	a0,0xe0000
    6bcc:	8a9fb0ef          	jal	ra,2474 <ntohl>
    6bd0:	ecaa09e3          	beq	s4,a0,6aa2 <ip_input+0x22>
    6bd4:	ec0907e3          	beqz	s2,6aa2 <ip_input+0x22>
    6bd8:	00744903          	lbu	s2,7(s0)
    6bdc:	2068                	lbu	a0,6(s0)
    6bde:	0922                	slli	s2,s2,0x8
    6be0:	00a96933          	or	s2,s2,a0
    6be4:	6511                	lui	a0,0x4
    6be6:	157d                	addi	a0,a0,-1
    6be8:	84dfb0ef          	jal	ra,2434 <htons>
    6bec:	00a97533          	and	a0,s2,a0
    6bf0:	c901                	beqz	a0,6c00 <ip_input+0x180>
    6bf2:	8526                	mv	a0,s1
    6bf4:	971fb0ef          	jal	ra,2564 <ip_reass>
    6bf8:	84aa                	mv	s1,a0
    6bfa:	ea0507e3          	beqz	a0,6aa8 <ip_input+0x28>
    6bfe:	4140                	lw	s0,4(a0)
    6c00:	85ce                	mv	a1,s3
    6c02:	8526                	mv	a0,s1
    6c04:	9131aa23          	sw	s3,-1772(gp) # 20000184 <current_netif>
    6c08:	9081a823          	sw	s0,-1776(gp) # 20000180 <current_header>
    6c0c:	2621                	jal	6f14 <raw_input>
    6c0e:	91418a93          	addi	s5,gp,-1772 # 20000184 <current_netif>
    6c12:	91018a13          	addi	s4,gp,-1776 # 20000180 <current_header>
    6c16:	e955                	bnez	a0,6cca <ip_input+0x24a>
    6c18:	341c                	lbu	a5,9(s0)
    6c1a:	2408                	lbu	a0,8(s0)
    6c1c:	07a2                	slli	a5,a5,0x8
    6c1e:	8d5d                	or	a0,a0,a5
    6c20:	823fb0ef          	jal	ra,2442 <ntohs>
    6c24:	0ff57513          	andi	a0,a0,255
    6c28:	4799                	li	a5,6
    6c2a:	0af50563          	beq	a0,a5,6cd4 <ip_input+0x254>
    6c2e:	47c5                	li	a5,17
    6c30:	08f50963          	beq	a0,a5,6cc2 <ip_input+0x242>
    6c34:	4785                	li	a5,1
    6c36:	0af51463          	bne	a0,a5,6cde <ip_input+0x25e>
    6c3a:	85ce                	mv	a1,s3
    6c3c:	8526                	mv	a0,s1
    6c3e:	98dff0ef          	jal	ra,65ca <icmp_input>
    6c42:	a061                	j	6cca <ip_input+0x24a>
    6c44:	8d81a903          	lw	s2,-1832(gp) # 20000148 <netif_list>
    6c48:	01391463          	bne	s2,s3,6c50 <ip_input+0x1d0>
    6c4c:	00092903          	lw	s2,0(s2)
    6c50:	4b01                	li	s6,0
    6c52:	ea0919e3          	bnez	s2,6b04 <ip_input+0x84>
    6c56:	341c                	lbu	a5,9(s0)
    6c58:	2408                	lbu	a0,8(s0)
    6c5a:	07a2                	slli	a5,a5,0x8
    6c5c:	8d5d                	or	a0,a0,a5
    6c5e:	fe4fb0ef          	jal	ra,2442 <ntohs>
    6c62:	0ff57513          	andi	a0,a0,255
    6c66:	47c5                	li	a5,17
    6c68:	00f51e63          	bne	a0,a5,6c84 <ip_input+0x204>
    6c6c:	014407b3          	add	a5,s0,s4
    6c70:	23a8                	lbu	a0,2(a5)
    6c72:	33bc                	lbu	a5,3(a5)
    6c74:	07a2                	slli	a5,a5,0x8
    6c76:	8d5d                	or	a0,a0,a5
    6c78:	fcafb0ef          	jal	ra,2442 <ntohs>
    6c7c:	04400793          	li	a5,68
    6c80:	02f50d63          	beq	a0,a5,6cba <ip_input+0x23a>
    6c84:	4a85                	li	s5,1
    6c86:	341c                	lbu	a5,9(s0)
    6c88:	2408                	lbu	a0,8(s0)
    6c8a:	07a2                	slli	a5,a5,0x8
    6c8c:	8d5d                	or	a0,a0,a5
    6c8e:	fb4fb0ef          	jal	ra,2442 <ntohs>
    6c92:	0ff57513          	andi	a0,a0,255
    6c96:	47c5                	li	a5,17
    6c98:	08f51d63          	bne	a0,a5,6d32 <ip_input+0x2b2>
    6c9c:	9a22                	add	s4,s4,s0
    6c9e:	003a4783          	lbu	a5,3(s4)
    6ca2:	002a4503          	lbu	a0,2(s4)
    6ca6:	07a2                	slli	a5,a5,0x8
    6ca8:	8d5d                	or	a0,a0,a5
    6caa:	f98fb0ef          	jal	ra,2442 <ntohs>
    6cae:	76c00793          	li	a5,1900
    6cb2:	08f51063          	bne	a0,a5,6d32 <ip_input+0x2b2>
    6cb6:	894e                	mv	s2,s3
    6cb8:	bf31                	j	6bd4 <ip_input+0x154>
    6cba:	f0099fe3          	bnez	s3,6bd8 <ip_input+0x158>
    6cbe:	4a81                	li	s5,0
    6cc0:	b7d9                	j	6c86 <ip_input+0x206>
    6cc2:	85ce                	mv	a1,s3
    6cc4:	8526                	mv	a0,s1
    6cc6:	7c8010ef          	jal	ra,848e <udp_input>
    6cca:	000aa023          	sw	zero,0(s5)
    6cce:	000a2023          	sw	zero,0(s4)
    6cd2:	bbd9                	j	6aa8 <ip_input+0x28>
    6cd4:	85ce                	mv	a1,s3
    6cd6:	8526                	mv	a0,s1
    6cd8:	5fd000ef          	jal	ra,7ad4 <tcp_input>
    6cdc:	b7fd                	j	6cca <ip_input+0x24a>
    6cde:	85ce                	mv	a1,s3
    6ce0:	01040513          	addi	a0,s0,16
    6ce4:	22dd                	jal	6eca <ip_addr_isbroadcast>
    6ce6:	e131                	bnez	a0,6d2a <ip_input+0x2aa>
    6ce8:	381c                	lbu	a5,17(s0)
    6cea:	01044903          	lbu	s2,16(s0)
    6cee:	f0000537          	lui	a0,0xf0000
    6cf2:	07a2                	slli	a5,a5,0x8
    6cf4:	0127e7b3          	or	a5,a5,s2
    6cf8:	01244903          	lbu	s2,18(s0)
    6cfc:	0942                	slli	s2,s2,0x10
    6cfe:	00f967b3          	or	a5,s2,a5
    6d02:	01344903          	lbu	s2,19(s0)
    6d06:	0962                	slli	s2,s2,0x18
    6d08:	00f96933          	or	s2,s2,a5
    6d0c:	f68fb0ef          	jal	ra,2474 <ntohl>
    6d10:	00a97933          	and	s2,s2,a0
    6d14:	e0000537          	lui	a0,0xe0000
    6d18:	f5cfb0ef          	jal	ra,2474 <ntohl>
    6d1c:	00a90763          	beq	s2,a0,6d2a <ip_input+0x2aa>
    6d20:	c0c0                	sw	s0,4(s1)
    6d22:	4589                	li	a1,2
    6d24:	8526                	mv	a0,s1
    6d26:	af3ff0ef          	jal	ra,6818 <icmp_dest_unreach>
    6d2a:	8526                	mv	a0,s1
    6d2c:	a32fc0ef          	jal	ra,2f5e <pbuf_free>
    6d30:	bf69                	j	6cca <ip_input+0x24a>
    6d32:	e40a94e3          	bnez	s5,6b7a <ip_input+0xfa>
    6d36:	b3b5                	j	6aa2 <ip_input+0x22>

00006d38 <ip_output_if>:
ip_output_if():
    6d38:	cd0f92ef          	jal	t0,208 <__riscv_save_10>
    6d3c:	89aa                	mv	s3,a0
    6d3e:	8942                	mv	s2,a6
    6d40:	14060063          	beqz	a2,6e80 <ip_output_if+0x148>
    6d44:	8aae                	mv	s5,a1
    6d46:	45d1                	li	a1,20
    6d48:	8a3a                	mv	s4,a4
    6d4a:	84b2                	mv	s1,a2
    6d4c:	8bb6                	mv	s7,a3
    6d4e:	8b3e                	mv	s6,a5
    6d50:	9a0fc0ef          	jal	ra,2ef0 <pbuf_header>
    6d54:	5779                	li	a4,-2
    6d56:	12051263          	bnez	a0,6e7a <ip_output_if+0x142>
    6d5a:	0049a403          	lw	s0,4(s3) # 10004 <_data_lma+0x5dc4>
    6d5e:	0ba2                	slli	s7,s7,0x8
    6d60:	341c                	lbu	a5,9(s0)
    6d62:	2408                	lbu	a0,8(s0)
    6d64:	07a2                	slli	a5,a5,0x8
    6d66:	8d5d                	or	a0,a0,a5
    6d68:	edafb0ef          	jal	ra,2442 <ntohs>
    6d6c:	0ff57513          	andi	a0,a0,255
    6d70:	01756533          	or	a0,a0,s7
    6d74:	ec0fb0ef          	jal	ra,2434 <htons>
    6d78:	00855713          	srli	a4,a0,0x8
    6d7c:	b418                	sb	a4,9(s0)
    6d7e:	a408                	sb	a0,8(s0)
    6d80:	ec2fb0ef          	jal	ra,2442 <ntohs>
    6d84:	8121                	srli	a0,a0,0x8
    6d86:	0542                	slli	a0,a0,0x10
    6d88:	8141                	srli	a0,a0,0x10
    6d8a:	0522                	slli	a0,a0,0x8
    6d8c:	01656533          	or	a0,a0,s6
    6d90:	0542                	slli	a0,a0,0x10
    6d92:	8141                	srli	a0,a0,0x10
    6d94:	ea0fb0ef          	jal	ra,2434 <htons>
    6d98:	3098                	lbu	a4,1(s1)
    6d9a:	209c                	lbu	a5,0(s1)
    6d9c:	a408                	sb	a0,8(s0)
    6d9e:	0722                	slli	a4,a4,0x8
    6da0:	8f5d                	or	a4,a4,a5
    6da2:	20bc                	lbu	a5,2(s1)
    6da4:	8121                	srli	a0,a0,0x8
    6da6:	b408                	sb	a0,9(s0)
    6da8:	07c2                	slli	a5,a5,0x10
    6daa:	8f5d                	or	a4,a4,a5
    6dac:	30bc                	lbu	a5,3(s1)
    6dae:	6511                	lui	a0,0x4
    6db0:	50050513          	addi	a0,a0,1280 # 4500 <tcp_output+0x2c6>
    6db4:	07e2                	slli	a5,a5,0x18
    6db6:	8fd9                	or	a5,a5,a4
    6db8:	0087d713          	srli	a4,a5,0x8
    6dbc:	a81c                	sb	a5,16(s0)
    6dbe:	b818                	sb	a4,17(s0)
    6dc0:	0107d713          	srli	a4,a5,0x10
    6dc4:	83e1                	srli	a5,a5,0x18
    6dc6:	b83c                	sb	a5,19(s0)
    6dc8:	a838                	sb	a4,18(s0)
    6dca:	00aa6533          	or	a0,s4,a0
    6dce:	e66fb0ef          	jal	ra,2434 <htons>
    6dd2:	a008                	sb	a0,0(s0)
    6dd4:	8121                	srli	a0,a0,0x8
    6dd6:	b008                	sb	a0,1(s0)
    6dd8:	0089d503          	lhu	a0,8(s3)
    6ddc:	91818a13          	addi	s4,gp,-1768 # 20000188 <ip_id.6659>
    6de0:	e54fb0ef          	jal	ra,2434 <htons>
    6de4:	a028                	sb	a0,2(s0)
    6de6:	8121                	srli	a0,a0,0x8
    6de8:	b028                	sb	a0,3(s0)
    6dea:	000a5503          	lhu	a0,0(s4)
    6dee:	00040323          	sb	zero,6(s0)
    6df2:	000403a3          	sb	zero,7(s0)
    6df6:	e3efb0ef          	jal	ra,2434 <htons>
    6dfa:	000a5783          	lhu	a5,0(s4)
    6dfe:	a048                	sb	a0,4(s0)
    6e00:	8121                	srli	a0,a0,0x8
    6e02:	0785                	addi	a5,a5,1
    6e04:	b048                	sb	a0,5(s0)
    6e06:	00fa1023          	sh	a5,0(s4)
    6e0a:	020a8163          	beqz	s5,6e2c <ip_output_if+0xf4>
    6e0e:	001ac703          	lbu	a4,1(s5)
    6e12:	000ac783          	lbu	a5,0(s5)
    6e16:	0722                	slli	a4,a4,0x8
    6e18:	8f5d                	or	a4,a4,a5
    6e1a:	002ac783          	lbu	a5,2(s5)
    6e1e:	07c2                	slli	a5,a5,0x10
    6e20:	8f5d                	or	a4,a4,a5
    6e22:	003ac783          	lbu	a5,3(s5)
    6e26:	07e2                	slli	a5,a5,0x18
    6e28:	8fd9                	or	a5,a5,a4
    6e2a:	e799                	bnez	a5,6e38 <ip_output_if+0x100>
    6e2c:	00490713          	addi	a4,s2,4
    6e30:	4781                	li	a5,0
    6e32:	c319                	beqz	a4,6e38 <ip_output_if+0x100>
    6e34:	00492783          	lw	a5,4(s2)
    6e38:	0087d713          	srli	a4,a5,0x8
    6e3c:	a45c                	sb	a5,12(s0)
    6e3e:	b458                	sb	a4,13(s0)
    6e40:	0107d713          	srli	a4,a5,0x10
    6e44:	83e1                	srli	a5,a5,0x18
    6e46:	a478                	sb	a4,14(s0)
    6e48:	b47c                	sb	a5,15(s0)
    6e4a:	00040523          	sb	zero,10(s0)
    6e4e:	000405a3          	sb	zero,11(s0)
    6e52:	45d1                	li	a1,20
    6e54:	8522                	mv	a0,s0
    6e56:	b61ff0ef          	jal	ra,69b6 <inet_chksum>
    6e5a:	a428                	sb	a0,10(s0)
    6e5c:	8121                	srli	a0,a0,0x8
    6e5e:	b428                	sb	a0,11(s0)
    6e60:	02895783          	lhu	a5,40(s2)
    6e64:	c38d                	beqz	a5,6e86 <ip_output_if+0x14e>
    6e66:	0089d703          	lhu	a4,8(s3)
    6e6a:	00e7fe63          	bgeu	a5,a4,6e86 <ip_output_if+0x14e>
    6e6e:	8626                	mv	a2,s1
    6e70:	85ca                	mv	a1,s2
    6e72:	854e                	mv	a0,s3
    6e74:	ac3fb0ef          	jal	ra,2936 <ip_frag>
    6e78:	872a                	mv	a4,a0
    6e7a:	853a                	mv	a0,a4
    6e7c:	bc4f906f          	j	240 <__riscv_restore_10>
    6e80:	4144                	lw	s1,4(a0)
    6e82:	04c1                	addi	s1,s1,16
    6e84:	bff1                	j	6e60 <ip_output_if+0x128>
    6e86:	01492783          	lw	a5,20(s2)
    6e8a:	8626                	mv	a2,s1
    6e8c:	85ce                	mv	a1,s3
    6e8e:	854a                	mv	a0,s2
    6e90:	9782                	jalr	a5
    6e92:	b7dd                	j	6e78 <ip_output_if+0x140>

00006e94 <ip_output>:
ip_output():
    6e94:	b9cf92ef          	jal	t0,230 <__riscv_save_0>
    6e98:	1101                	addi	sp,sp,-32
    6e9a:	842a                	mv	s0,a0
    6e9c:	8532                	mv	a0,a2
    6e9e:	ce2e                	sw	a1,28(sp)
    6ea0:	cc36                	sw	a3,24(sp)
    6ea2:	ca3a                	sw	a4,20(sp)
    6ea4:	c83e                	sw	a5,16(sp)
    6ea6:	c632                	sw	a2,12(sp)
    6ea8:	b8dff0ef          	jal	ra,6a34 <ip_route>
    6eac:	cd09                	beqz	a0,6ec6 <ip_output+0x32>
    6eae:	47c2                	lw	a5,16(sp)
    6eb0:	4752                	lw	a4,20(sp)
    6eb2:	46e2                	lw	a3,24(sp)
    6eb4:	4632                	lw	a2,12(sp)
    6eb6:	45f2                	lw	a1,28(sp)
    6eb8:	882a                	mv	a6,a0
    6eba:	8522                	mv	a0,s0
    6ebc:	e7dff0ef          	jal	ra,6d38 <ip_output_if>
    6ec0:	6105                	addi	sp,sp,32
    6ec2:	b92f906f          	j	254 <__riscv_restore_0>
    6ec6:	5571                	li	a0,-4
    6ec8:	bfe5                	j	6ec0 <ip_output+0x2c>

00006eca <ip_addr_isbroadcast>:
ip_addr_isbroadcast():
    6eca:	3118                	lbu	a4,1(a0)
    6ecc:	211c                	lbu	a5,0(a0)
    6ece:	0722                	slli	a4,a4,0x8
    6ed0:	8f5d                	or	a4,a4,a5
    6ed2:	213c                	lbu	a5,2(a0)
    6ed4:	07c2                	slli	a5,a5,0x10
    6ed6:	8f5d                	or	a4,a4,a5
    6ed8:	313c                	lbu	a5,3(a0)
    6eda:	07e2                	slli	a5,a5,0x18
    6edc:	8fd9                	or	a5,a5,a4
    6ede:	fff78693          	addi	a3,a5,-1 # fffeffff <_eusrstack+0xdffcffff>
    6ee2:	5775                	li	a4,-3
    6ee4:	02d76663          	bltu	a4,a3,6f10 <ip_addr_isbroadcast+0x46>
    6ee8:	0315c703          	lbu	a4,49(a1)
    6eec:	4501                	li	a0,0
    6eee:	8b09                	andi	a4,a4,2
    6ef0:	c30d                	beqz	a4,6f12 <ip_addr_isbroadcast+0x48>
    6ef2:	41d8                	lw	a4,4(a1)
    6ef4:	00f70f63          	beq	a4,a5,6f12 <ip_addr_isbroadcast+0x48>
    6ef8:	4594                	lw	a3,8(a1)
    6efa:	8f3d                	xor	a4,a4,a5
    6efc:	8f75                	and	a4,a4,a3
    6efe:	eb11                	bnez	a4,6f12 <ip_addr_isbroadcast+0x48>
    6f00:	fff6c513          	not	a0,a3
    6f04:	8fe9                	and	a5,a5,a0
    6f06:	40a78533          	sub	a0,a5,a0
    6f0a:	00153513          	seqz	a0,a0
    6f0e:	8082                	ret
    6f10:	4505                	li	a0,1
    6f12:	8082                	ret

00006f14 <raw_input>:
raw_input():
    6f14:	b02f92ef          	jal	t0,216 <__riscv_save_4>
    6f18:	00452903          	lw	s2,4(a0)
    6f1c:	89aa                	mv	s3,a0
    6f1e:	00994783          	lbu	a5,9(s2)
    6f22:	00894503          	lbu	a0,8(s2)
    6f26:	4a01                	li	s4,0
    6f28:	07a2                	slli	a5,a5,0x8
    6f2a:	8d5d                	or	a0,a0,a5
    6f2c:	d16fb0ef          	jal	ra,2442 <ntohs>
    6f30:	0ff57a93          	andi	s5,a0,255
    6f34:	91c1a403          	lw	s0,-1764(gp) # 2000018c <raw_pcbs>
    6f38:	0931                	addi	s2,s2,12
    6f3a:	91c18493          	addi	s1,gp,-1764 # 2000018c <raw_pcbs>
    6f3e:	e401                	bnez	s0,6f46 <raw_input+0x32>
    6f40:	4501                	li	a0,0
    6f42:	b08f906f          	j	24a <__riscv_restore_4>
    6f46:	281c                	lbu	a5,16(s0)
    6f48:	4501                	li	a0,0
    6f4a:	03579463          	bne	a5,s5,6f72 <raw_input+0x5e>
    6f4e:	485c                	lw	a5,20(s0)
    6f50:	c38d                	beqz	a5,6f72 <raw_input+0x5e>
    6f52:	4c08                	lw	a0,24(s0)
    6f54:	86ca                	mv	a3,s2
    6f56:	864e                	mv	a2,s3
    6f58:	85a2                	mv	a1,s0
    6f5a:	9782                	jalr	a5
    6f5c:	c919                	beqz	a0,6f72 <raw_input+0x5e>
    6f5e:	000a0863          	beqz	s4,6f6e <raw_input+0x5a>
    6f62:	445c                	lw	a5,12(s0)
    6f64:	00fa2623          	sw	a5,12(s4)
    6f68:	409c                	lw	a5,0(s1)
    6f6a:	c080                	sw	s0,0(s1)
    6f6c:	c45c                	sw	a5,12(s0)
    6f6e:	4505                	li	a0,1
    6f70:	4981                	li	s3,0
    6f72:	445c                	lw	a5,12(s0)
    6f74:	8a22                	mv	s4,s0
    6f76:	f571                	bnez	a0,6f42 <raw_input+0x2e>
    6f78:	843e                	mv	s0,a5
    6f7a:	b7d1                	j	6f3e <raw_input+0x2a>

00006f7c <raw_bind>:
raw_bind():
    6f7c:	4781                	li	a5,0
    6f7e:	c999                	beqz	a1,6f94 <raw_bind+0x18>
    6f80:	3198                	lbu	a4,1(a1)
    6f82:	219c                	lbu	a5,0(a1)
    6f84:	0722                	slli	a4,a4,0x8
    6f86:	8f5d                	or	a4,a4,a5
    6f88:	21bc                	lbu	a5,2(a1)
    6f8a:	07c2                	slli	a5,a5,0x10
    6f8c:	8f5d                	or	a4,a4,a5
    6f8e:	31bc                	lbu	a5,3(a1)
    6f90:	07e2                	slli	a5,a5,0x18
    6f92:	8fd9                	or	a5,a5,a4
    6f94:	c11c                	sw	a5,0(a0)
    6f96:	4501                	li	a0,0
    6f98:	8082                	ret

00006f9a <raw_connect>:
raw_connect():
    6f9a:	4781                	li	a5,0
    6f9c:	c999                	beqz	a1,6fb2 <raw_connect+0x18>
    6f9e:	3198                	lbu	a4,1(a1)
    6fa0:	219c                	lbu	a5,0(a1)
    6fa2:	0722                	slli	a4,a4,0x8
    6fa4:	8f5d                	or	a4,a4,a5
    6fa6:	21bc                	lbu	a5,2(a1)
    6fa8:	07c2                	slli	a5,a5,0x10
    6faa:	8f5d                	or	a4,a4,a5
    6fac:	31bc                	lbu	a5,3(a1)
    6fae:	07e2                	slli	a5,a5,0x18
    6fb0:	8fd9                	or	a5,a5,a4
    6fb2:	c15c                	sw	a5,4(a0)
    6fb4:	4501                	li	a0,0
    6fb6:	8082                	ret

00006fb8 <raw_recv>:
raw_recv():
    6fb8:	c94c                	sw	a1,20(a0)
    6fba:	cd10                	sw	a2,24(a0)
    6fbc:	8082                	ret

00006fbe <raw_sendto>:
raw_sendto():
    6fbe:	a58f92ef          	jal	t0,216 <__riscv_save_4>
    6fc2:	84ae                	mv	s1,a1
    6fc4:	892a                	mv	s2,a0
    6fc6:	45d1                	li	a1,20
    6fc8:	8526                	mv	a0,s1
    6fca:	89b2                	mv	s3,a2
    6fcc:	f25fb0ef          	jal	ra,2ef0 <pbuf_header>
    6fd0:	c915                	beqz	a0,7004 <raw_sendto+0x46>
    6fd2:	4601                	li	a2,0
    6fd4:	4581                	li	a1,0
    6fd6:	4505                	li	a0,1
    6fd8:	fd5fb0ef          	jal	ra,2fac <pbuf_alloc>
    6fdc:	842a                	mv	s0,a0
    6fde:	e509                	bnez	a0,6fe8 <raw_sendto+0x2a>
    6fe0:	597d                	li	s2,-1
    6fe2:	854a                	mv	a0,s2
    6fe4:	a66f906f          	j	24a <__riscv_restore_4>
    6fe8:	85a6                	mv	a1,s1
    6fea:	990fc0ef          	jal	ra,317a <pbuf_chain>
    6fee:	854e                	mv	a0,s3
    6ff0:	a45ff0ef          	jal	ra,6a34 <ip_route>
    6ff4:	ed19                	bnez	a0,7012 <raw_sendto+0x54>
    6ff6:	5971                	li	s2,-4
    6ff8:	fe9405e3          	beq	s0,s1,6fe2 <raw_sendto+0x24>
    6ffc:	8522                	mv	a0,s0
    6ffe:	f61fb0ef          	jal	ra,2f5e <pbuf_free>
    7002:	b7c5                	j	6fe2 <raw_sendto+0x24>
    7004:	55b1                	li	a1,-20
    7006:	8526                	mv	a0,s1
    7008:	ee9fb0ef          	jal	ra,2ef0 <pbuf_header>
    700c:	f971                	bnez	a0,6fe0 <raw_sendto+0x22>
    700e:	8426                	mv	s0,s1
    7010:	bff9                	j	6fee <raw_sendto+0x30>
    7012:	85ca                	mv	a1,s2
    7014:	00090563          	beqz	s2,701e <raw_sendto+0x60>
    7018:	00092783          	lw	a5,0(s2)
    701c:	e399                	bnez	a5,7022 <raw_sendto+0x64>
    701e:	00450593          	addi	a1,a0,4
    7022:	01094783          	lbu	a5,16(s2)
    7026:	00a94703          	lbu	a4,10(s2)
    702a:	00b94683          	lbu	a3,11(s2)
    702e:	882a                	mv	a6,a0
    7030:	864e                	mv	a2,s3
    7032:	8522                	mv	a0,s0
    7034:	d05ff0ef          	jal	ra,6d38 <ip_output_if>
    7038:	892a                	mv	s2,a0
    703a:	bf7d                	j	6ff8 <raw_sendto+0x3a>

0000703c <raw_send>:
raw_send():
    703c:	9f4f92ef          	jal	t0,230 <__riscv_save_0>
    7040:	00450613          	addi	a2,a0,4
    7044:	f7bff0ef          	jal	ra,6fbe <raw_sendto>
    7048:	a0cf906f          	j	254 <__riscv_restore_0>

0000704c <raw_new>:
raw_new():
    704c:	9e4f92ef          	jal	t0,230 <__riscv_save_0>
    7050:	84aa                	mv	s1,a0
    7052:	4501                	li	a0,0
    7054:	d1dfb0ef          	jal	ra,2d70 <memp_malloc>
    7058:	842a                	mv	s0,a0
    705a:	cd11                	beqz	a0,7076 <raw_new+0x2a>
    705c:	4671                	li	a2,28
    705e:	4581                	li	a1,0
    7060:	a00f90ef          	jal	ra,260 <memset>
    7064:	f8000793          	li	a5,-128
    7068:	b43c                	sb	a5,11(s0)
    706a:	91c18793          	addi	a5,gp,-1764 # 2000018c <raw_pcbs>
    706e:	4398                	lw	a4,0(a5)
    7070:	a804                	sb	s1,16(s0)
    7072:	c380                	sw	s0,0(a5)
    7074:	c458                	sw	a4,12(s0)
    7076:	8522                	mv	a0,s0
    7078:	9dcf906f          	j	254 <__riscv_restore_0>

0000707c <tcp_oos_insert_segment>:
tcp_oos_insert_segment():
    707c:	99af92ef          	jal	t0,216 <__riscv_save_4>
    7080:	491c                	lw	a5,16(a0)
    7082:	84aa                	mv	s1,a0
    7084:	8a2e                	mv	s4,a1
    7086:	27c8                	lbu	a0,12(a5)
    7088:	37dc                	lbu	a5,13(a5)
    708a:	07a2                	slli	a5,a5,0x8
    708c:	8d5d                	or	a0,a0,a5
    708e:	bb4fb0ef          	jal	ra,2442 <ntohs>
    7092:	8905                	andi	a0,a0,1
    7094:	e929                	bnez	a0,70e6 <tcp_oos_insert_segment+0x6a>
    7096:	6941                	lui	s2,0x10
    7098:	fc090913          	addi	s2,s2,-64 # ffc0 <_data_lma+0x5d80>
    709c:	010a2703          	lw	a4,16(s4)
    70a0:	9341a603          	lw	a2,-1740(gp) # 200001a4 <seqno>
    70a4:	24de                	lhu	a5,12(s1)
    70a6:	3354                	lbu	a3,5(a4)
    70a8:	234c                	lbu	a1,4(a4)
    70aa:	97b2                	add	a5,a5,a2
    70ac:	06a2                	slli	a3,a3,0x8
    70ae:	8dd5                	or	a1,a1,a3
    70b0:	2374                	lbu	a3,6(a4)
    70b2:	06c2                	slli	a3,a3,0x10
    70b4:	8ecd                	or	a3,a3,a1
    70b6:	336c                	lbu	a1,7(a4)
    70b8:	05e2                	slli	a1,a1,0x18
    70ba:	8dd5                	or	a1,a1,a3
    70bc:	00ca5683          	lhu	a3,12(s4)
    70c0:	96ae                	add	a3,a3,a1
    70c2:	40d786b3          	sub	a3,a5,a3
    70c6:	0206d563          	bgez	a3,70f0 <tcp_oos_insert_segment+0x74>
    70ca:	8f8d                	sub	a5,a5,a1
    70cc:	00f05963          	blez	a5,70de <tcp_oos_insert_segment+0x62>
    70d0:	8d91                	sub	a1,a1,a2
    70d2:	05c2                	slli	a1,a1,0x10
    70d4:	40c8                	lw	a0,4(s1)
    70d6:	81c1                	srli	a1,a1,0x10
    70d8:	a4ce                	sh	a1,12(s1)
    70da:	810fc0ef          	jal	ra,30ea <pbuf_realloc>
    70de:	0144a023          	sw	s4,0(s1)
    70e2:	968f906f          	j	24a <__riscv_restore_4>
    70e6:	8552                	mv	a0,s4
    70e8:	b62fc0ef          	jal	ra,344a <tcp_segs_free>
    70ec:	4a01                	li	s4,0
    70ee:	bfc5                	j	70de <tcp_oos_insert_segment+0x62>
    70f0:	375c                	lbu	a5,13(a4)
    70f2:	2748                	lbu	a0,12(a4)
    70f4:	07a2                	slli	a5,a5,0x8
    70f6:	8d5d                	or	a0,a0,a5
    70f8:	b4afb0ef          	jal	ra,2442 <ntohs>
    70fc:	8905                	andi	a0,a0,1
    70fe:	cd15                	beqz	a0,713a <tcp_oos_insert_segment+0xbe>
    7100:	489c                	lw	a5,16(s1)
    7102:	37c0                	lbu	s0,13(a5)
    7104:	27c8                	lbu	a0,12(a5)
    7106:	0422                	slli	s0,s0,0x8
    7108:	8c49                	or	s0,s0,a0
    710a:	854a                	mv	a0,s2
    710c:	b28fb0ef          	jal	ra,2434 <htons>
    7110:	489c                	lw	a5,16(s1)
    7112:	8c69                	and	s0,s0,a0
    7114:	27c8                	lbu	a0,12(a5)
    7116:	37dc                	lbu	a5,13(a5)
    7118:	07a2                	slli	a5,a5,0x8
    711a:	8d5d                	or	a0,a0,a5
    711c:	b26fb0ef          	jal	ra,2442 <ntohs>
    7120:	03e57513          	andi	a0,a0,62
    7124:	00156513          	ori	a0,a0,1
    7128:	b0cfb0ef          	jal	ra,2434 <htons>
    712c:	489c                	lw	a5,16(s1)
    712e:	8d41                	or	a0,a0,s0
    7130:	0542                	slli	a0,a0,0x10
    7132:	8141                	srli	a0,a0,0x10
    7134:	a7c8                	sb	a0,12(a5)
    7136:	8121                	srli	a0,a0,0x8
    7138:	b7c8                	sb	a0,13(a5)
    713a:	000a2403          	lw	s0,0(s4)
    713e:	8552                	mv	a0,s4
    7140:	ae0fc0ef          	jal	ra,3420 <tcp_seg_free>
    7144:	d445                	beqz	s0,70ec <tcp_oos_insert_segment+0x70>
    7146:	8a22                	mv	s4,s0
    7148:	bf91                	j	709c <tcp_oos_insert_segment+0x20>

0000714a <tcp_receive>:
tcp_receive():
    714a:	8bef92ef          	jal	t0,208 <__riscv_save_10>
    714e:	9241c783          	lbu	a5,-1756(gp) # 20000194 <flags>
    7152:	842a                	mv	s0,a0
    7154:	8bc1                	andi	a5,a5,16
    7156:	93418913          	addi	s2,gp,-1740 # 200001a4 <seqno>
    715a:	c7e9                	beqz	a5,7224 <tcp_receive+0xda>
    715c:	00092583          	lw	a1,0(s2)
    7160:	5178                	lw	a4,100(a0)
    7162:	06055683          	lhu	a3,96(a0)
    7166:	5530                	lw	a2,104(a0)
    7168:	40b70533          	sub	a0,a4,a1
    716c:	9201a783          	lw	a5,-1760(gp) # 20000190 <ackno>
    7170:	92018493          	addi	s1,gp,-1760 # 20000190 <ackno>
    7174:	02054463          	bltz	a0,719c <tcp_receive+0x52>
    7178:	00b71663          	bne	a4,a1,7184 <tcp_receive+0x3a>
    717c:	40f60733          	sub	a4,a2,a5
    7180:	00074e63          	bltz	a4,719c <tcp_receive+0x52>
    7184:	02f61e63          	bne	a2,a5,71c0 <tcp_receive+0x76>
    7188:	93c1a503          	lw	a0,-1732(gp) # 200001ac <tcphdr>
    718c:	3578                	lbu	a4,15(a0)
    718e:	00e54803          	lbu	a6,14(a0)
    7192:	0722                	slli	a4,a4,0x8
    7194:	01076733          	or	a4,a4,a6
    7198:	02e6f463          	bgeu	a3,a4,71c0 <tcp_receive+0x76>
    719c:	93c1a503          	lw	a0,-1732(gp) # 200001ac <tcphdr>
    71a0:	3578                	lbu	a4,15(a0)
    71a2:	00e54803          	lbu	a6,14(a0)
    71a6:	d06c                	sw	a1,100(s0)
    71a8:	0722                	slli	a4,a4,0x8
    71aa:	01076733          	or	a4,a4,a6
    71ae:	06e41023          	sh	a4,96(s0)
    71b2:	d43c                	sw	a5,104(s0)
    71b4:	c711                	beqz	a4,71c0 <tcp_receive+0x76>
    71b6:	0ac44703          	lbu	a4,172(s0)
    71ba:	c319                	beqz	a4,71c0 <tcp_receive+0x76>
    71bc:	0a040623          	sb	zero,172(s0)
    71c0:	482c                	lw	a1,80(s0)
    71c2:	40b78733          	sub	a4,a5,a1
    71c6:	2ae04163          	bgtz	a4,7468 <tcp_receive+0x31e>
    71ca:	9401d703          	lhu	a4,-1728(gp) # 200001b0 <tcplen>
    71ce:	06041823          	sh	zero,112(s0)
    71d2:	28071863          	bnez	a4,7462 <tcp_receive+0x318>
    71d6:	06045703          	lhu	a4,96(s0)
    71da:	5428                	lw	a0,104(s0)
    71dc:	96b2                	add	a3,a3,a2
    71de:	972a                	add	a4,a4,a0
    71e0:	28d71163          	bne	a4,a3,7462 <tcp_receive+0x318>
    71e4:	03a41703          	lh	a4,58(s0)
    71e8:	26074d63          	bltz	a4,7462 <tcp_receive+0x318>
    71ec:	26f59b63          	bne	a1,a5,7462 <tcp_receive+0x318>
    71f0:	05444783          	lbu	a5,84(s0)
    71f4:	470d                	li	a4,3
    71f6:	0785                	addi	a5,a5,1
    71f8:	0ff7f793          	andi	a5,a5,255
    71fc:	04f40a23          	sb	a5,84(s0)
    7200:	24f77b63          	bgeu	a4,a5,7456 <tcp_receive+0x30c>
    7204:	05645703          	lhu	a4,86(s0)
    7208:	3c5e                	lhu	a5,60(s0)
    720a:	97ba                	add	a5,a5,a4
    720c:	07c2                	slli	a5,a5,0x10
    720e:	83c1                	srli	a5,a5,0x10
    7210:	00f77463          	bgeu	a4,a5,7218 <tcp_receive+0xce>
    7214:	04f41b23          	sh	a5,86(s0)
    7218:	5c3c                	lw	a5,120(s0)
    721a:	36079a63          	bnez	a5,758e <tcp_receive+0x444>
    721e:	4030                	lw	a2,64(s0)
    7220:	40061563          	bnez	a2,762a <tcp_receive+0x4e0>
    7224:	9401d603          	lhu	a2,-1728(gp) # 200001b0 <tcplen>
    7228:	00092783          	lw	a5,0(s2)
    722c:	5414                	lw	a3,40(s0)
    722e:	94018a13          	addi	s4,gp,-1728 # 200001b0 <tcplen>
    7232:	7e060163          	beqz	a2,7a14 <tcp_receive+0x8ca>
    7236:	40f685b3          	sub	a1,a3,a5
    723a:	fff58713          	addi	a4,a1,-1
    723e:	46074663          	bltz	a4,76aa <tcp_receive+0x560>
    7242:	4705                	li	a4,1
    7244:	8f1d                	sub	a4,a4,a5
    7246:	8f11                	sub	a4,a4,a2
    7248:	9736                	add	a4,a4,a3
    724a:	46e04063          	bgtz	a4,76aa <tcp_receive+0x560>
    724e:	2001e9b7          	lui	s3,0x2001e
    7252:	eb898793          	addi	a5,s3,-328 # 2001deb8 <inseg>
    7256:	43c4                	lw	s1,4(a5)
    7258:	01059713          	slli	a4,a1,0x10
    725c:	8341                	srli	a4,a4,0x10
    725e:	24be                	lhu	a5,10(s1)
    7260:	eb898993          	addi	s3,s3,-328
    7264:	42b7de63          	bge	a5,a1,76a0 <tcp_receive+0x556>
    7268:	249e                	lhu	a5,8(s1)
    726a:	8f99                	sub	a5,a5,a4
    726c:	07c2                	slli	a5,a5,0x10
    726e:	83c1                	srli	a5,a5,0x10
    7270:	24ba                	lhu	a4,10(s1)
    7272:	42b74163          	blt	a4,a1,7694 <tcp_receive+0x54a>
    7276:	40b005b3          	neg	a1,a1
    727a:	05c2                	slli	a1,a1,0x10
    727c:	85c1                	srai	a1,a1,0x10
    727e:	8526                	mv	a0,s1
    7280:	c71fb0ef          	jal	ra,2ef0 <pbuf_header>
    7284:	40dc                	lw	a5,4(s1)
    7286:	00c9d683          	lhu	a3,12(s3)
    728a:	00092703          	lw	a4,0(s2)
    728e:	00f9a423          	sw	a5,8(s3)
    7292:	541c                	lw	a5,40(s0)
    7294:	9736                	add	a4,a4,a3
    7296:	8f1d                	sub	a4,a4,a5
    7298:	00e99623          	sh	a4,12(s3)
    729c:	0109a703          	lw	a4,16(s3)
    72a0:	0087d693          	srli	a3,a5,0x8
    72a4:	00f92023          	sw	a5,0(s2)
    72a8:	a35c                	sb	a5,4(a4)
    72aa:	b354                	sb	a3,5(a4)
    72ac:	0107d693          	srli	a3,a5,0x10
    72b0:	83e1                	srli	a5,a5,0x18
    72b2:	a374                	sb	a3,6(a4)
    72b4:	b37c                	sb	a5,7(a4)
    72b6:	00092683          	lw	a3,0(s2)
    72ba:	5418                	lw	a4,40(s0)
    72bc:	40e687b3          	sub	a5,a3,a4
    72c0:	7407c663          	bltz	a5,7a0c <tcp_receive+0x8c2>
    72c4:	3452                	lhu	a2,44(s0)
    72c6:	00168793          	addi	a5,a3,1
    72ca:	8f99                	sub	a5,a5,a4
    72cc:	8f91                	sub	a5,a5,a2
    72ce:	72f04f63          	bgtz	a5,7a0c <tcp_receive+0x8c2>
    72d2:	5ae69b63          	bne	a3,a4,7888 <tcp_receive+0x73e>
    72d6:	2001e4b7          	lui	s1,0x2001e
    72da:	eb848793          	addi	a5,s1,-328 # 2001deb8 <inseg>
    72de:	00c7d983          	lhu	s3,12(a5)
    72e2:	4b9c                	lw	a5,16(a5)
    72e4:	eb848493          	addi	s1,s1,-328
    72e8:	27c8                	lbu	a0,12(a5)
    72ea:	37dc                	lbu	a5,13(a5)
    72ec:	07a2                	slli	a5,a5,0x8
    72ee:	8d5d                	or	a0,a0,a5
    72f0:	952fb0ef          	jal	ra,2442 <ntohs>
    72f4:	890d                	andi	a0,a0,3
    72f6:	00a03533          	snez	a0,a0
    72fa:	954e                	add	a0,a0,s3
    72fc:	0542                	slli	a0,a0,0x10
    72fe:	345e                	lhu	a5,44(s0)
    7300:	8141                	srli	a0,a0,0x10
    7302:	00aa1023          	sh	a0,0(s4)
    7306:	08a7fd63          	bgeu	a5,a0,73a0 <tcp_receive+0x256>
    730a:	489c                	lw	a5,16(s1)
    730c:	27c8                	lbu	a0,12(a5)
    730e:	37dc                	lbu	a5,13(a5)
    7310:	07a2                	slli	a5,a5,0x8
    7312:	8d5d                	or	a0,a0,a5
    7314:	92efb0ef          	jal	ra,2442 <ntohs>
    7318:	8905                	andi	a0,a0,1
    731a:	c131                	beqz	a0,735e <tcp_receive+0x214>
    731c:	489c                	lw	a5,16(s1)
    731e:	00d7c983          	lbu	s3,13(a5)
    7322:	27c8                	lbu	a0,12(a5)
    7324:	09a2                	slli	s3,s3,0x8
    7326:	00a9e9b3          	or	s3,s3,a0
    732a:	6541                	lui	a0,0x10
    732c:	fc050513          	addi	a0,a0,-64 # ffc0 <_data_lma+0x5d80>
    7330:	904fb0ef          	jal	ra,2434 <htons>
    7334:	489c                	lw	a5,16(s1)
    7336:	00a9f9b3          	and	s3,s3,a0
    733a:	27c8                	lbu	a0,12(a5)
    733c:	37dc                	lbu	a5,13(a5)
    733e:	07a2                	slli	a5,a5,0x8
    7340:	8d5d                	or	a0,a0,a5
    7342:	900fb0ef          	jal	ra,2442 <ntohs>
    7346:	03e57513          	andi	a0,a0,62
    734a:	8eafb0ef          	jal	ra,2434 <htons>
    734e:	489c                	lw	a5,16(s1)
    7350:	00a9e533          	or	a0,s3,a0
    7354:	0542                	slli	a0,a0,0x10
    7356:	8141                	srli	a0,a0,0x10
    7358:	a7c8                	sb	a0,12(a5)
    735a:	8121                	srli	a0,a0,0x8
    735c:	b7c8                	sb	a0,13(a5)
    735e:	345e                	lhu	a5,44(s0)
    7360:	a4de                	sh	a5,12(s1)
    7362:	489c                	lw	a5,16(s1)
    7364:	27c8                	lbu	a0,12(a5)
    7366:	37dc                	lbu	a5,13(a5)
    7368:	07a2                	slli	a5,a5,0x8
    736a:	8d5d                	or	a0,a0,a5
    736c:	8d6fb0ef          	jal	ra,2442 <ntohs>
    7370:	8909                	andi	a0,a0,2
    7372:	c501                	beqz	a0,737a <tcp_receive+0x230>
    7374:	24de                	lhu	a5,12(s1)
    7376:	17fd                	addi	a5,a5,-1
    7378:	a4de                	sh	a5,12(s1)
    737a:	24ce                	lhu	a1,12(s1)
    737c:	40c8                	lw	a0,4(s1)
    737e:	d6dfb0ef          	jal	ra,30ea <pbuf_realloc>
    7382:	489c                	lw	a5,16(s1)
    7384:	00c4d983          	lhu	s3,12(s1)
    7388:	27c8                	lbu	a0,12(a5)
    738a:	37dc                	lbu	a5,13(a5)
    738c:	07a2                	slli	a5,a5,0x8
    738e:	8d5d                	or	a0,a0,a5
    7390:	8b2fb0ef          	jal	ra,2442 <ntohs>
    7394:	890d                	andi	a0,a0,3
    7396:	00a03533          	snez	a0,a0
    739a:	99aa                	add	s3,s3,a0
    739c:	013a1023          	sh	s3,0(s4)
    73a0:	08042783          	lw	a5,128(s0)
    73a4:	32078863          	beqz	a5,76d4 <tcp_receive+0x58a>
    73a8:	489c                	lw	a5,16(s1)
    73aa:	27c8                	lbu	a0,12(a5)
    73ac:	37dc                	lbu	a5,13(a5)
    73ae:	07a2                	slli	a5,a5,0x8
    73b0:	8d5d                	or	a0,a0,a5
    73b2:	890fb0ef          	jal	ra,2442 <ntohs>
    73b6:	8905                	andi	a0,a0,1
    73b8:	30051b63          	bnez	a0,76ce <tcp_receive+0x584>
    73bc:	08042a83          	lw	s5,128(s0)
    73c0:	6b41                	lui	s6,0x10
    73c2:	fc0b0b13          	addi	s6,s6,-64 # ffc0 <_data_lma+0x5d80>
    73c6:	00092503          	lw	a0,0(s2)
    73ca:	000a5703          	lhu	a4,0(s4)
    73ce:	972a                	add	a4,a4,a0
    73d0:	080a8063          	beqz	s5,7450 <tcp_receive+0x306>
    73d4:	010aa603          	lw	a2,16(s5)
    73d8:	324c                	lbu	a1,5(a2)
    73da:	2254                	lbu	a3,4(a2)
    73dc:	05a2                	slli	a1,a1,0x8
    73de:	8dd5                	or	a1,a1,a3
    73e0:	2274                	lbu	a3,6(a2)
    73e2:	06c2                	slli	a3,a3,0x10
    73e4:	8dd5                	or	a1,a1,a3
    73e6:	3274                	lbu	a3,7(a2)
    73e8:	06e2                	slli	a3,a3,0x18
    73ea:	8ecd                	or	a3,a3,a1
    73ec:	00cad583          	lhu	a1,12(s5)
    73f0:	95b6                	add	a1,a1,a3
    73f2:	40b705b3          	sub	a1,a4,a1
    73f6:	3205d463          	bgez	a1,771e <tcp_receive+0x5d4>
    73fa:	8f15                	sub	a4,a4,a3
    73fc:	04e05a63          	blez	a4,7450 <tcp_receive+0x306>
    7400:	08042783          	lw	a5,128(s0)
    7404:	4b98                	lw	a4,16(a5)
    7406:	335c                	lbu	a5,5(a4)
    7408:	2354                	lbu	a3,4(a4)
    740a:	07a2                	slli	a5,a5,0x8
    740c:	8fd5                	or	a5,a5,a3
    740e:	8f89                	sub	a5,a5,a0
    7410:	a4de                	sh	a5,12(s1)
    7412:	489c                	lw	a5,16(s1)
    7414:	27c8                	lbu	a0,12(a5)
    7416:	37dc                	lbu	a5,13(a5)
    7418:	07a2                	slli	a5,a5,0x8
    741a:	8d5d                	or	a0,a0,a5
    741c:	826fb0ef          	jal	ra,2442 <ntohs>
    7420:	8909                	andi	a0,a0,2
    7422:	c501                	beqz	a0,742a <tcp_receive+0x2e0>
    7424:	24de                	lhu	a5,12(s1)
    7426:	17fd                	addi	a5,a5,-1
    7428:	a4de                	sh	a5,12(s1)
    742a:	24ce                	lhu	a1,12(s1)
    742c:	40c8                	lw	a0,4(s1)
    742e:	cbdfb0ef          	jal	ra,30ea <pbuf_realloc>
    7432:	489c                	lw	a5,16(s1)
    7434:	00c4d983          	lhu	s3,12(s1)
    7438:	27c8                	lbu	a0,12(a5)
    743a:	37dc                	lbu	a5,13(a5)
    743c:	07a2                	slli	a5,a5,0x8
    743e:	8d5d                	or	a0,a0,a5
    7440:	802fb0ef          	jal	ra,2442 <ntohs>
    7444:	890d                	andi	a0,a0,3
    7446:	00a03533          	snez	a0,a0
    744a:	99aa                	add	s3,s3,a0
    744c:	013a1023          	sh	s3,0(s4)
    7450:	09542023          	sw	s5,128(s0)
    7454:	a441                	j	76d4 <tcp_receive+0x58a>
    7456:	dce791e3          	bne	a5,a4,7218 <tcp_receive+0xce>
    745a:	8522                	mv	a0,s0
    745c:	aecfd0ef          	jal	ra,4748 <tcp_rexmit_fast>
    7460:	bb65                	j	7218 <tcp_receive+0xce>
    7462:	04040a23          	sb	zero,84(s0)
    7466:	bb4d                	j	7218 <tcp_receive+0xce>
    7468:	4c74                	lw	a3,92(s0)
    746a:	40d786b3          	sub	a3,a5,a3
    746e:	10d04d63          	bgtz	a3,7588 <tcp_receive+0x43e>
    7472:	02644683          	lbu	a3,38(s0)
    7476:	0046f613          	andi	a2,a3,4
    747a:	ca01                	beqz	a2,748a <tcp_receive+0x340>
    747c:	9aed                	andi	a3,a3,-5
    747e:	02d40323          	sb	a3,38(s0)
    7482:	05845683          	lhu	a3,88(s0)
    7486:	04d41b23          	sh	a3,86(s0)
    748a:	04841683          	lh	a3,72(s0)
    748e:	04a45603          	lhu	a2,74(s0)
    7492:	0742                	slli	a4,a4,0x10
    7494:	868d                	srai	a3,a3,0x3
    7496:	96b2                	add	a3,a3,a2
    7498:	04d41623          	sh	a3,76(s0)
    749c:	07245683          	lhu	a3,114(s0)
    74a0:	8341                	srli	a4,a4,0x10
    74a2:	06e41823          	sh	a4,112(s0)
    74a6:	9736                	add	a4,a4,a3
    74a8:	06e41923          	sh	a4,114(s0)
    74ac:	4818                	lw	a4,16(s0)
    74ae:	c83c                	sw	a5,80(s0)
    74b0:	04040723          	sb	zero,78(s0)
    74b4:	04040a23          	sb	zero,84(s0)
    74b8:	478d                	li	a5,3
    74ba:	02e7f063          	bgeu	a5,a4,74da <tcp_receive+0x390>
    74be:	05645703          	lhu	a4,86(s0)
    74c2:	05845683          	lhu	a3,88(s0)
    74c6:	3c5e                	lhu	a5,60(s0)
    74c8:	02d77463          	bgeu	a4,a3,74f0 <tcp_receive+0x3a6>
    74cc:	97ba                	add	a5,a5,a4
    74ce:	07c2                	slli	a5,a5,0x10
    74d0:	83c1                	srli	a5,a5,0x10
    74d2:	00f77463          	bgeu	a4,a5,74da <tcp_receive+0x390>
    74d6:	04f41b23          	sh	a5,86(s0)
    74da:	5c7c                	lw	a5,124(s0)
    74dc:	ef99                	bnez	a5,74fa <tcp_receive+0x3b0>
    74de:	5c7c                	lw	a5,124(s0)
    74e0:	02040c23          	sb	zero,56(s0)
    74e4:	0017b793          	seqz	a5,a5
    74e8:	40f007b3          	neg	a5,a5
    74ec:	bc3e                	sh	a5,58(s0)
    74ee:	b32d                	j	7218 <tcp_receive+0xce>
    74f0:	02f787b3          	mul	a5,a5,a5
    74f4:	02e7c7b3          	div	a5,a5,a4
    74f8:	bfd1                	j	74cc <tcp_receive+0x382>
    74fa:	4b98                	lw	a4,16(a5)
    74fc:	3348                	lbu	a0,5(a4)
    74fe:	235c                	lbu	a5,4(a4)
    7500:	0522                	slli	a0,a0,0x8
    7502:	8d5d                	or	a0,a0,a5
    7504:	237c                	lbu	a5,6(a4)
    7506:	07c2                	slli	a5,a5,0x10
    7508:	8fc9                	or	a5,a5,a0
    750a:	3368                	lbu	a0,7(a4)
    750c:	0562                	slli	a0,a0,0x18
    750e:	8d5d                	or	a0,a0,a5
    7510:	f65fa0ef          	jal	ra,2474 <ntohl>
    7514:	5c7c                	lw	a5,124(s0)
    7516:	89aa                	mv	s3,a0
    7518:	00c7da03          	lhu	s4,12(a5)
    751c:	4b9c                	lw	a5,16(a5)
    751e:	27c8                	lbu	a0,12(a5)
    7520:	37dc                	lbu	a5,13(a5)
    7522:	07a2                	slli	a5,a5,0x8
    7524:	8d5d                	or	a0,a0,a5
    7526:	f1dfa0ef          	jal	ra,2442 <ntohs>
    752a:	409c                	lw	a5,0(s1)
    752c:	890d                	andi	a0,a0,3
    752e:	00a03533          	snez	a0,a0
    7532:	9552                	add	a0,a0,s4
    7534:	40f989b3          	sub	s3,s3,a5
    7538:	954e                	add	a0,a0,s3
    753a:	faa042e3          	bgtz	a0,74de <tcp_receive+0x394>
    753e:	07c42983          	lw	s3,124(s0)
    7542:	0009a783          	lw	a5,0(s3)
    7546:	dc7c                	sw	a5,124(s0)
    7548:	07045783          	lhu	a5,112(s0)
    754c:	c385                	beqz	a5,756c <tcp_receive+0x422>
    754e:	0109a783          	lw	a5,16(s3)
    7552:	27c8                	lbu	a0,12(a5)
    7554:	37dc                	lbu	a5,13(a5)
    7556:	07a2                	slli	a5,a5,0x8
    7558:	8d5d                	or	a0,a0,a5
    755a:	ee9fa0ef          	jal	ra,2442 <ntohs>
    755e:	8905                	andi	a0,a0,1
    7560:	c511                	beqz	a0,756c <tcp_receive+0x422>
    7562:	07045783          	lhu	a5,112(s0)
    7566:	17fd                	addi	a5,a5,-1
    7568:	06f41823          	sh	a5,112(s0)
    756c:	0049a503          	lw	a0,4(s3)
    7570:	bd3fb0ef          	jal	ra,3142 <pbuf_clen>
    7574:	07445783          	lhu	a5,116(s0)
    7578:	40a78533          	sub	a0,a5,a0
    757c:	06a41a23          	sh	a0,116(s0)
    7580:	854e                	mv	a0,s3
    7582:	e9ffb0ef          	jal	ra,3420 <tcp_seg_free>
    7586:	bf91                	j	74da <tcp_receive+0x390>
    7588:	06041823          	sh	zero,112(s0)
    758c:	b171                	j	7218 <tcp_receive+0xce>
    758e:	4b98                	lw	a4,16(a5)
    7590:	0004a983          	lw	s3,0(s1)
    7594:	3348                	lbu	a0,5(a4)
    7596:	235c                	lbu	a5,4(a4)
    7598:	0522                	slli	a0,a0,0x8
    759a:	8d5d                	or	a0,a0,a5
    759c:	237c                	lbu	a5,6(a4)
    759e:	07c2                	slli	a5,a5,0x10
    75a0:	8fc9                	or	a5,a5,a0
    75a2:	3368                	lbu	a0,7(a4)
    75a4:	0562                	slli	a0,a0,0x18
    75a6:	8d5d                	or	a0,a0,a5
    75a8:	ecdfa0ef          	jal	ra,2474 <ntohl>
    75ac:	5c3c                	lw	a5,120(s0)
    75ae:	8aaa                	mv	s5,a0
    75b0:	415989b3          	sub	s3,s3,s5
    75b4:	00c7da03          	lhu	s4,12(a5)
    75b8:	4b9c                	lw	a5,16(a5)
    75ba:	27c8                	lbu	a0,12(a5)
    75bc:	37dc                	lbu	a5,13(a5)
    75be:	07a2                	slli	a5,a5,0x8
    75c0:	8d5d                	or	a0,a0,a5
    75c2:	e81fa0ef          	jal	ra,2442 <ntohs>
    75c6:	890d                	andi	a0,a0,3
    75c8:	00a03533          	snez	a0,a0
    75cc:	9552                	add	a0,a0,s4
    75ce:	40a989b3          	sub	s3,s3,a0
    75d2:	c409c6e3          	bltz	s3,721e <tcp_receive+0xd4>
    75d6:	409c                	lw	a5,0(s1)
    75d8:	4c78                	lw	a4,92(s0)
    75da:	8f99                	sub	a5,a5,a4
    75dc:	c4f041e3          	bgtz	a5,721e <tcp_receive+0xd4>
    75e0:	07842983          	lw	s3,120(s0)
    75e4:	0009a783          	lw	a5,0(s3)
    75e8:	dc3c                	sw	a5,120(s0)
    75ea:	07045783          	lhu	a5,112(s0)
    75ee:	c385                	beqz	a5,760e <tcp_receive+0x4c4>
    75f0:	0109a783          	lw	a5,16(s3)
    75f4:	27c8                	lbu	a0,12(a5)
    75f6:	37dc                	lbu	a5,13(a5)
    75f8:	07a2                	slli	a5,a5,0x8
    75fa:	8d5d                	or	a0,a0,a5
    75fc:	e47fa0ef          	jal	ra,2442 <ntohs>
    7600:	8905                	andi	a0,a0,1
    7602:	c511                	beqz	a0,760e <tcp_receive+0x4c4>
    7604:	07045783          	lhu	a5,112(s0)
    7608:	17fd                	addi	a5,a5,-1
    760a:	06f41823          	sh	a5,112(s0)
    760e:	0049a503          	lw	a0,4(s3)
    7612:	b31fb0ef          	jal	ra,3142 <pbuf_clen>
    7616:	07445783          	lhu	a5,116(s0)
    761a:	40a78533          	sub	a0,a5,a0
    761e:	06a41a23          	sh	a0,116(s0)
    7622:	854e                	mv	a0,s3
    7624:	dfdfb0ef          	jal	ra,3420 <tcp_seg_free>
    7628:	bec5                	j	7218 <tcp_receive+0xce>
    762a:	407c                	lw	a5,68(s0)
    762c:	4098                	lw	a4,0(s1)
    762e:	8f99                	sub	a5,a5,a4
    7630:	be07dae3          	bgez	a5,7224 <tcp_receive+0xda>
    7634:	04841683          	lh	a3,72(s0)
    7638:	8ec1d703          	lhu	a4,-1812(gp) # 2000015c <tcp_ticks>
    763c:	0642                	slli	a2,a2,0x10
    763e:	4036d593          	srai	a1,a3,0x3
    7642:	8241                	srli	a2,a2,0x10
    7644:	05c2                	slli	a1,a1,0x10
    7646:	81c1                	srli	a1,a1,0x10
    7648:	40c707b3          	sub	a5,a4,a2
    764c:	8f8d                	sub	a5,a5,a1
    764e:	07c2                	slli	a5,a5,0x10
    7650:	83c1                	srli	a5,a5,0x10
    7652:	01079513          	slli	a0,a5,0x10
    7656:	97b6                	add	a5,a5,a3
    7658:	07c2                	slli	a5,a5,0x10
    765a:	87c1                	srai	a5,a5,0x10
    765c:	8541                	srai	a0,a0,0x10
    765e:	04f41423          	sh	a5,72(s0)
    7662:	00055763          	bgez	a0,7670 <tcp_receive+0x526>
    7666:	8e19                	sub	a2,a2,a4
    7668:	962e                	add	a2,a2,a1
    766a:	01061513          	slli	a0,a2,0x10
    766e:	8541                	srai	a0,a0,0x10
    7670:	04a41683          	lh	a3,74(s0)
    7674:	878d                	srai	a5,a5,0x3
    7676:	04042023          	sw	zero,64(s0)
    767a:	4026d713          	srai	a4,a3,0x2
    767e:	40e68733          	sub	a4,a3,a4
    7682:	972a                	add	a4,a4,a0
    7684:	0742                	slli	a4,a4,0x10
    7686:	8341                	srli	a4,a4,0x10
    7688:	97ba                	add	a5,a5,a4
    768a:	04e41523          	sh	a4,74(s0)
    768e:	04f41623          	sh	a5,76(s0)
    7692:	be49                	j	7224 <tcp_receive+0xda>
    7694:	a49e                	sh	a5,8(s1)
    7696:	00049523          	sh	zero,10(s1)
    769a:	8d99                	sub	a1,a1,a4
    769c:	4084                	lw	s1,0(s1)
    769e:	bec9                	j	7270 <tcp_receive+0x126>
    76a0:	40e00733          	neg	a4,a4
    76a4:	01071593          	slli	a1,a4,0x10
    76a8:	bed1                	j	727c <tcp_receive+0x132>
    76aa:	8f95                	sub	a5,a5,a3
    76ac:	c007d5e3          	bgez	a5,72b6 <tcp_receive+0x16c>
    76b0:	02644783          	lbu	a5,38(s0)
    76b4:	8522                	mv	a0,s0
    76b6:	0027e793          	ori	a5,a5,2
    76ba:	02f40323          	sb	a5,38(s0)
    76be:	b7dfc0ef          	jal	ra,423a <tcp_output>
    76c2:	bed5                	j	72b6 <tcp_receive+0x16c>
    76c4:	411c                	lw	a5,0(a0)
    76c6:	08f42023          	sw	a5,128(s0)
    76ca:	d57fb0ef          	jal	ra,3420 <tcp_seg_free>
    76ce:	08042503          	lw	a0,128(s0)
    76d2:	f96d                	bnez	a0,76c4 <tcp_receive+0x57a>
    76d4:	000a5683          	lhu	a3,0(s4)
    76d8:	345e                	lhu	a5,44(s0)
    76da:	00092703          	lw	a4,0(s2)
    76de:	8522                	mv	a0,s0
    76e0:	8f95                	sub	a5,a5,a3
    76e2:	9736                	add	a4,a4,a3
    76e4:	d418                	sw	a4,40(s0)
    76e6:	b45e                	sh	a5,44(s0)
    76e8:	caffb0ef          	jal	ra,3396 <tcp_update_rcv_ann_wnd>
    76ec:	40dc                	lw	a5,4(s1)
    76ee:	279a                	lhu	a4,8(a5)
    76f0:	c709                	beqz	a4,76fa <tcp_receive+0x5b0>
    76f2:	92f1a623          	sw	a5,-1748(gp) # 2000019c <recv_data>
    76f6:	0004a223          	sw	zero,4(s1)
    76fa:	489c                	lw	a5,16(s1)
    76fc:	27c8                	lbu	a0,12(a5)
    76fe:	37dc                	lbu	a5,13(a5)
    7700:	07a2                	slli	a5,a5,0x8
    7702:	8d5d                	or	a0,a0,a5
    7704:	d3ffa0ef          	jal	ra,2442 <ntohs>
    7708:	8905                	andi	a0,a0,1
    770a:	c519                	beqz	a0,7718 <tcp_receive+0x5ce>
    770c:	93018793          	addi	a5,gp,-1744 # 200001a0 <recv_flags>
    7710:	2398                	lbu	a4,0(a5)
    7712:	02076713          	ori	a4,a4,32
    7716:	a398                	sb	a4,0(a5)
    7718:	4a91                	li	s5,4
    771a:	4b1d                	li	s6,7
    771c:	aa39                	j	783a <tcp_receive+0x6f0>
    771e:	365c                	lbu	a5,13(a2)
    7720:	2648                	lbu	a0,12(a2)
    7722:	07a2                	slli	a5,a5,0x8
    7724:	8d5d                	or	a0,a0,a5
    7726:	d1dfa0ef          	jal	ra,2442 <ntohs>
    772a:	8905                	andi	a0,a0,1
    772c:	c535                	beqz	a0,7798 <tcp_receive+0x64e>
    772e:	489c                	lw	a5,16(s1)
    7730:	27c8                	lbu	a0,12(a5)
    7732:	37dc                	lbu	a5,13(a5)
    7734:	07a2                	slli	a5,a5,0x8
    7736:	8d5d                	or	a0,a0,a5
    7738:	d0bfa0ef          	jal	ra,2442 <ntohs>
    773c:	8909                	andi	a0,a0,2
    773e:	ed29                	bnez	a0,7798 <tcp_receive+0x64e>
    7740:	489c                	lw	a5,16(s1)
    7742:	00d7c983          	lbu	s3,13(a5)
    7746:	27c8                	lbu	a0,12(a5)
    7748:	09a2                	slli	s3,s3,0x8
    774a:	00a9e9b3          	or	s3,s3,a0
    774e:	855a                	mv	a0,s6
    7750:	ce5fa0ef          	jal	ra,2434 <htons>
    7754:	489c                	lw	a5,16(s1)
    7756:	00a9f9b3          	and	s3,s3,a0
    775a:	27c8                	lbu	a0,12(a5)
    775c:	37dc                	lbu	a5,13(a5)
    775e:	07a2                	slli	a5,a5,0x8
    7760:	8d5d                	or	a0,a0,a5
    7762:	ce1fa0ef          	jal	ra,2442 <ntohs>
    7766:	03e57513          	andi	a0,a0,62
    776a:	00156513          	ori	a0,a0,1
    776e:	cc7fa0ef          	jal	ra,2434 <htons>
    7772:	00a9e533          	or	a0,s3,a0
    7776:	489c                	lw	a5,16(s1)
    7778:	0542                	slli	a0,a0,0x10
    777a:	8141                	srli	a0,a0,0x10
    777c:	00855713          	srli	a4,a0,0x8
    7780:	a7c8                	sb	a0,12(a5)
    7782:	b7d8                	sb	a4,13(a5)
    7784:	00c4d983          	lhu	s3,12(s1)
    7788:	cbbfa0ef          	jal	ra,2442 <ntohs>
    778c:	890d                	andi	a0,a0,3
    778e:	00a03533          	snez	a0,a0
    7792:	99aa                	add	s3,s3,a0
    7794:	013a1023          	sh	s3,0(s4)
    7798:	000aa983          	lw	s3,0(s5)
    779c:	8556                	mv	a0,s5
    779e:	c83fb0ef          	jal	ra,3420 <tcp_seg_free>
    77a2:	8ace                	mv	s5,s3
    77a4:	b10d                	j	73c6 <tcp_receive+0x27c>
    77a6:	00f92023          	sw	a5,0(s2)
    77aa:	375c                	lbu	a5,13(a4)
    77ac:	2748                	lbu	a0,12(a4)
    77ae:	00c4db83          	lhu	s7,12(s1)
    77b2:	07a2                	slli	a5,a5,0x8
    77b4:	8d5d                	or	a0,a0,a5
    77b6:	c8dfa0ef          	jal	ra,2442 <ntohs>
    77ba:	541c                	lw	a5,40(s0)
    77bc:	890d                	andi	a0,a0,3
    77be:	00a03533          	snez	a0,a0
    77c2:	955e                	add	a0,a0,s7
    77c4:	953e                	add	a0,a0,a5
    77c6:	489c                	lw	a5,16(s1)
    77c8:	d408                	sw	a0,40(s0)
    77ca:	00c4db83          	lhu	s7,12(s1)
    77ce:	27c8                	lbu	a0,12(a5)
    77d0:	37dc                	lbu	a5,13(a5)
    77d2:	07a2                	slli	a5,a5,0x8
    77d4:	8d5d                	or	a0,a0,a5
    77d6:	c6dfa0ef          	jal	ra,2442 <ntohs>
    77da:	345e                	lhu	a5,44(s0)
    77dc:	890d                	andi	a0,a0,3
    77de:	00a03533          	snez	a0,a0
    77e2:	955e                	add	a0,a0,s7
    77e4:	40a78533          	sub	a0,a5,a0
    77e8:	b44a                	sh	a0,44(s0)
    77ea:	8522                	mv	a0,s0
    77ec:	babfb0ef          	jal	ra,3396 <tcp_update_rcv_ann_wnd>
    77f0:	40cc                	lw	a1,4(s1)
    77f2:	259e                	lhu	a5,8(a1)
    77f4:	cb89                	beqz	a5,7806 <tcp_receive+0x6bc>
    77f6:	92c18793          	addi	a5,gp,-1748 # 2000019c <recv_data>
    77fa:	4388                	lw	a0,0(a5)
    77fc:	cd35                	beqz	a0,7878 <tcp_receive+0x72e>
    77fe:	961fb0ef          	jal	ra,315e <pbuf_cat>
    7802:	0004a223          	sw	zero,4(s1)
    7806:	489c                	lw	a5,16(s1)
    7808:	27c8                	lbu	a0,12(a5)
    780a:	37dc                	lbu	a5,13(a5)
    780c:	07a2                	slli	a5,a5,0x8
    780e:	8d5d                	or	a0,a0,a5
    7810:	c33fa0ef          	jal	ra,2442 <ntohs>
    7814:	8905                	andi	a0,a0,1
    7816:	cd01                	beqz	a0,782e <tcp_receive+0x6e4>
    7818:	93018713          	addi	a4,gp,-1744 # 200001a0 <recv_flags>
    781c:	231c                	lbu	a5,0(a4)
    781e:	0207e793          	ori	a5,a5,32
    7822:	a31c                	sb	a5,0(a4)
    7824:	481c                	lw	a5,16(s0)
    7826:	01579463          	bne	a5,s5,782e <tcp_receive+0x6e4>
    782a:	01642823          	sw	s6,16(s0)
    782e:	409c                	lw	a5,0(s1)
    7830:	8526                	mv	a0,s1
    7832:	08f42023          	sw	a5,128(s0)
    7836:	bebfb0ef          	jal	ra,3420 <tcp_seg_free>
    783a:	08042483          	lw	s1,128(s0)
    783e:	cc99                	beqz	s1,785c <tcp_receive+0x712>
    7840:	4898                	lw	a4,16(s1)
    7842:	3354                	lbu	a3,5(a4)
    7844:	235c                	lbu	a5,4(a4)
    7846:	06a2                	slli	a3,a3,0x8
    7848:	8edd                	or	a3,a3,a5
    784a:	237c                	lbu	a5,6(a4)
    784c:	07c2                	slli	a5,a5,0x10
    784e:	8edd                	or	a3,a3,a5
    7850:	337c                	lbu	a5,7(a4)
    7852:	07e2                	slli	a5,a5,0x18
    7854:	8fd5                	or	a5,a5,a3
    7856:	5414                	lw	a3,40(s0)
    7858:	f4d787e3          	beq	a5,a3,77a6 <tcp_receive+0x65c>
    785c:	02644783          	lbu	a5,38(s0)
    7860:	0017f713          	andi	a4,a5,1
    7864:	cf01                	beqz	a4,787c <tcp_receive+0x732>
    7866:	9bf9                	andi	a5,a5,-2
    7868:	0027e793          	ori	a5,a5,2
    786c:	02f40323          	sb	a5,38(s0)
    7870:	8522                	mv	a0,s0
    7872:	9c9fc0ef          	jal	ra,423a <tcp_output>
    7876:	a039                	j	7884 <tcp_receive+0x73a>
    7878:	c38c                	sw	a1,0(a5)
    787a:	b761                	j	7802 <tcp_receive+0x6b8>
    787c:	0017e793          	ori	a5,a5,1
    7880:	02f40323          	sb	a5,38(s0)
    7884:	9bdf806f          	j	240 <__riscv_restore_10>
    7888:	8522                	mv	a0,s0
    788a:	945fc0ef          	jal	ra,41ce <tcp_send_empty_ack>
    788e:	08042483          	lw	s1,128(s0)
    7892:	e891                	bnez	s1,78a6 <tcp_receive+0x75c>
    7894:	2001e537          	lui	a0,0x2001e
    7898:	eb850513          	addi	a0,a0,-328 # 2001deb8 <inseg>
    789c:	bcbfb0ef          	jal	ra,3466 <tcp_seg_copy>
    78a0:	08a42023          	sw	a0,128(s0)
    78a4:	b7c5                	j	7884 <tcp_receive+0x73a>
    78a6:	00092703          	lw	a4,0(s2)
    78aa:	4981                	li	s3,0
    78ac:	fff70813          	addi	a6,a4,-1 # ffff <_data_lma+0x5dbf>
    78b0:	00170513          	addi	a0,a4,1
    78b4:	4890                	lw	a2,16(s1)
    78b6:	3254                	lbu	a3,5(a2)
    78b8:	225c                	lbu	a5,4(a2)
    78ba:	06a2                	slli	a3,a3,0x8
    78bc:	8edd                	or	a3,a3,a5
    78be:	227c                	lbu	a5,6(a2)
    78c0:	07c2                	slli	a5,a5,0x10
    78c2:	8edd                	or	a3,a3,a5
    78c4:	327c                	lbu	a5,7(a2)
    78c6:	07e2                	slli	a5,a5,0x18
    78c8:	8fd5                	or	a5,a5,a3
    78ca:	02e79c63          	bne	a5,a4,7902 <tcp_receive+0x7b8>
    78ce:	2001e537          	lui	a0,0x2001e
    78d2:	eb850793          	addi	a5,a0,-328 # 2001deb8 <inseg>
    78d6:	27da                	lhu	a4,12(a5)
    78d8:	24de                	lhu	a5,12(s1)
    78da:	fae7f5e3          	bgeu	a5,a4,7884 <tcp_receive+0x73a>
    78de:	eb850513          	addi	a0,a0,-328
    78e2:	b85fb0ef          	jal	ra,3466 <tcp_seg_copy>
    78e6:	dd59                	beqz	a0,7884 <tcp_receive+0x73a>
    78e8:	00098a63          	beqz	s3,78fc <tcp_receive+0x7b2>
    78ec:	00a9a023          	sw	a0,0(s3)
    78f0:	85a6                	mv	a1,s1
    78f2:	f8aff0ef          	jal	ra,707c <tcp_oos_insert_segment>
    78f6:	b779                	j	7884 <tcp_receive+0x73a>
    78f8:	84b6                	mv	s1,a3
    78fa:	bf6d                	j	78b4 <tcp_receive+0x76a>
    78fc:	08a42023          	sw	a0,128(s0)
    7900:	bfc5                	j	78f0 <tcp_receive+0x7a6>
    7902:	02099063          	bnez	s3,7922 <tcp_receive+0x7d8>
    7906:	40f706b3          	sub	a3,a4,a5
    790a:	0806de63          	bgez	a3,79a6 <tcp_receive+0x85c>
    790e:	2001e537          	lui	a0,0x2001e
    7912:	eb850513          	addi	a0,a0,-328 # 2001deb8 <inseg>
    7916:	b51fb0ef          	jal	ra,3466 <tcp_seg_copy>
    791a:	d52d                	beqz	a0,7884 <tcp_receive+0x73a>
    791c:	08a42023          	sw	a0,128(s0)
    7920:	bfc1                	j	78f0 <tcp_receive+0x7a6>
    7922:	0109a883          	lw	a7,16(s3)
    7926:	0058c583          	lbu	a1,5(a7)
    792a:	0048c683          	lbu	a3,4(a7)
    792e:	05a2                	slli	a1,a1,0x8
    7930:	8dd5                	or	a1,a1,a3
    7932:	0068c683          	lbu	a3,6(a7)
    7936:	06c2                	slli	a3,a3,0x10
    7938:	8dd5                	or	a1,a1,a3
    793a:	0078c683          	lbu	a3,7(a7)
    793e:	06e2                	slli	a3,a3,0x18
    7940:	8ecd                	or	a3,a3,a1
    7942:	40d806b3          	sub	a3,a6,a3
    7946:	0606c063          	bltz	a3,79a6 <tcp_receive+0x85c>
    794a:	40f506b3          	sub	a3,a0,a5
    794e:	04d04c63          	bgtz	a3,79a6 <tcp_receive+0x85c>
    7952:	2001e537          	lui	a0,0x2001e
    7956:	eb850513          	addi	a0,a0,-328 # 2001deb8 <inseg>
    795a:	b0dfb0ef          	jal	ra,3466 <tcp_seg_copy>
    795e:	842a                	mv	s0,a0
    7960:	d115                	beqz	a0,7884 <tcp_receive+0x73a>
    7962:	0109a703          	lw	a4,16(s3)
    7966:	335c                	lbu	a5,5(a4)
    7968:	234c                	lbu	a1,4(a4)
    796a:	07a2                	slli	a5,a5,0x8
    796c:	8ddd                	or	a1,a1,a5
    796e:	237c                	lbu	a5,6(a4)
    7970:	07c2                	slli	a5,a5,0x10
    7972:	8fcd                	or	a5,a5,a1
    7974:	336c                	lbu	a1,7(a4)
    7976:	00c9d703          	lhu	a4,12(s3)
    797a:	05e2                	slli	a1,a1,0x18
    797c:	8fcd                	or	a5,a5,a1
    797e:	00092583          	lw	a1,0(s2)
    7982:	973e                	add	a4,a4,a5
    7984:	8f0d                	sub	a4,a4,a1
    7986:	00e05b63          	blez	a4,799c <tcp_receive+0x852>
    798a:	8d9d                	sub	a1,a1,a5
    798c:	05c2                	slli	a1,a1,0x10
    798e:	0049a503          	lw	a0,4(s3)
    7992:	81c1                	srli	a1,a1,0x10
    7994:	00b99623          	sh	a1,12(s3)
    7998:	f52fb0ef          	jal	ra,30ea <pbuf_realloc>
    799c:	0089a023          	sw	s0,0(s3)
    79a0:	85a6                	mv	a1,s1
    79a2:	8522                	mv	a0,s0
    79a4:	b7b9                	j	78f2 <tcp_receive+0x7a8>
    79a6:	4094                	lw	a3,0(s1)
    79a8:	89a6                	mv	s3,s1
    79aa:	f6b9                	bnez	a3,78f8 <tcp_receive+0x7ae>
    79ac:	40f707b3          	sub	a5,a4,a5
    79b0:	ecf05ae3          	blez	a5,7884 <tcp_receive+0x73a>
    79b4:	365c                	lbu	a5,13(a2)
    79b6:	2648                	lbu	a0,12(a2)
    79b8:	07a2                	slli	a5,a5,0x8
    79ba:	8d5d                	or	a0,a0,a5
    79bc:	a87fa0ef          	jal	ra,2442 <ntohs>
    79c0:	8905                	andi	a0,a0,1
    79c2:	ec0511e3          	bnez	a0,7884 <tcp_receive+0x73a>
    79c6:	2001e537          	lui	a0,0x2001e
    79ca:	eb850513          	addi	a0,a0,-328 # 2001deb8 <inseg>
    79ce:	a99fb0ef          	jal	ra,3466 <tcp_seg_copy>
    79d2:	c088                	sw	a0,0(s1)
    79d4:	ea0508e3          	beqz	a0,7884 <tcp_receive+0x73a>
    79d8:	4898                	lw	a4,16(s1)
    79da:	335c                	lbu	a5,5(a4)
    79dc:	234c                	lbu	a1,4(a4)
    79de:	07a2                	slli	a5,a5,0x8
    79e0:	8ddd                	or	a1,a1,a5
    79e2:	237c                	lbu	a5,6(a4)
    79e4:	07c2                	slli	a5,a5,0x10
    79e6:	8fcd                	or	a5,a5,a1
    79e8:	336c                	lbu	a1,7(a4)
    79ea:	24da                	lhu	a4,12(s1)
    79ec:	05e2                	slli	a1,a1,0x18
    79ee:	8fcd                	or	a5,a5,a1
    79f0:	00092583          	lw	a1,0(s2)
    79f4:	973e                	add	a4,a4,a5
    79f6:	8f0d                	sub	a4,a4,a1
    79f8:	e8e056e3          	blez	a4,7884 <tcp_receive+0x73a>
    79fc:	8d9d                	sub	a1,a1,a5
    79fe:	05c2                	slli	a1,a1,0x10
    7a00:	40c8                	lw	a0,4(s1)
    7a02:	81c1                	srli	a1,a1,0x10
    7a04:	a4ce                	sh	a1,12(s1)
    7a06:	ee4fb0ef          	jal	ra,30ea <pbuf_realloc>
    7a0a:	bdad                	j	7884 <tcp_receive+0x73a>
    7a0c:	8522                	mv	a0,s0
    7a0e:	fc0fc0ef          	jal	ra,41ce <tcp_send_empty_ack>
    7a12:	bd8d                	j	7884 <tcp_receive+0x73a>
    7a14:	40d78733          	sub	a4,a5,a3
    7a18:	00074863          	bltz	a4,7a28 <tcp_receive+0x8de>
    7a1c:	345a                	lhu	a4,44(s0)
    7a1e:	0785                	addi	a5,a5,1
    7a20:	8f95                	sub	a5,a5,a3
    7a22:	8f99                	sub	a5,a5,a4
    7a24:	e6f050e3          	blez	a5,7884 <tcp_receive+0x73a>
    7a28:	02644783          	lbu	a5,38(s0)
    7a2c:	bd35                	j	7868 <tcp_receive+0x71e>

00007a2e <tcp_parseopt.isra.0>:
tcp_parseopt.isra.0():
    7a2e:	803f82ef          	jal	t0,230 <__riscv_save_0>
    7a32:	93c18493          	addi	s1,gp,-1732 # 200001ac <tcphdr>
    7a36:	0004a903          	lw	s2,0(s1)
    7a3a:	842a                	mv	s0,a0
    7a3c:	00d94783          	lbu	a5,13(s2)
    7a40:	00c94503          	lbu	a0,12(s2)
    7a44:	07a2                	slli	a5,a5,0x8
    7a46:	8d5d                	or	a0,a0,a5
    7a48:	9fbfa0ef          	jal	ra,2442 <ntohs>
    7a4c:	8131                	srli	a0,a0,0xc
    7a4e:	0542                	slli	a0,a0,0x10
    7a50:	8141                	srli	a0,a0,0x10
    7a52:	4795                	li	a5,5
    7a54:	02a7fc63          	bgeu	a5,a0,7a8c <tcp_parseopt.isra.0+0x5e>
    7a58:	409c                	lw	a5,0(s1)
    7a5a:	0951                	addi	s2,s2,20
    7a5c:	27c8                	lbu	a0,12(a5)
    7a5e:	37dc                	lbu	a5,13(a5)
    7a60:	07a2                	slli	a5,a5,0x8
    7a62:	8d5d                	or	a0,a0,a5
    7a64:	9dffa0ef          	jal	ra,2442 <ntohs>
    7a68:	2001e7b7          	lui	a5,0x2001e
    7a6c:	e947a603          	lw	a2,-364(a5) # 2001de94 <WCHCfg+0x4>
    7a70:	8131                	srli	a0,a0,0xc
    7a72:	156d                	addi	a0,a0,-5
    7a74:	050a                	slli	a0,a0,0x2
    7a76:	0542                	slli	a0,a0,0x10
    7a78:	01061593          	slli	a1,a2,0x10
    7a7c:	8141                	srli	a0,a0,0x10
    7a7e:	81c1                	srli	a1,a1,0x10
    7a80:	4781                	li	a5,0
    7a82:	4805                	li	a6,1
    7a84:	4889                	li	a7,2
    7a86:	4311                	li	t1,4
    7a88:	00a7e463          	bltu	a5,a0,7a90 <tcp_parseopt.isra.0+0x62>
    7a8c:	fc8f806f          	j	254 <__riscv_restore_0>
    7a90:	00f906b3          	add	a3,s2,a5
    7a94:	2298                	lbu	a4,0(a3)
    7a96:	01070963          	beq	a4,a6,7aa8 <tcp_parseopt.isra.0+0x7a>
    7a9a:	db6d                	beqz	a4,7a8c <tcp_parseopt.isra.0+0x5e>
    7a9c:	01170a63          	beq	a4,a7,7ab0 <tcp_parseopt.isra.0+0x82>
    7aa0:	3298                	lbu	a4,1(a3)
    7aa2:	d76d                	beqz	a4,7a8c <tcp_parseopt.isra.0+0x5e>
    7aa4:	97ba                	add	a5,a5,a4
    7aa6:	a011                	j	7aaa <tcp_parseopt.isra.0+0x7c>
    7aa8:	0785                	addi	a5,a5,1
    7aaa:	07c2                	slli	a5,a5,0x10
    7aac:	83c1                	srli	a5,a5,0x10
    7aae:	bfe9                	j	7a88 <tcp_parseopt.isra.0+0x5a>
    7ab0:	3298                	lbu	a4,1(a3)
    7ab2:	fc671de3          	bne	a4,t1,7a8c <tcp_parseopt.isra.0+0x5e>
    7ab6:	00378713          	addi	a4,a5,3
    7aba:	fca759e3          	bge	a4,a0,7a8c <tcp_parseopt.isra.0+0x5e>
    7abe:	22b8                	lbu	a4,2(a3)
    7ac0:	32b4                	lbu	a3,3(a3)
    7ac2:	0722                	slli	a4,a4,0x8
    7ac4:	8f55                	or	a4,a4,a3
    7ac6:	00e66363          	bltu	a2,a4,7acc <tcp_parseopt.isra.0+0x9e>
    7aca:	e311                	bnez	a4,7ace <tcp_parseopt.isra.0+0xa0>
    7acc:	872e                	mv	a4,a1
    7ace:	a01a                	sh	a4,0(s0)
    7ad0:	0791                	addi	a5,a5,4
    7ad2:	bfe1                	j	7aaa <tcp_parseopt.isra.0+0x7c>

00007ad4 <tcp_input>:
tcp_input():
    7ad4:	f2cf82ef          	jal	t0,200 <__riscv_save_12>
    7ad8:	4140                	lw	s0,4(a0)
    7ada:	8baa                	mv	s7,a0
    7adc:	301c                	lbu	a5,1(s0)
    7ade:	2008                	lbu	a0,0(s0)
    7ae0:	1141                	addi	sp,sp,-16
    7ae2:	07a2                	slli	a5,a5,0x8
    7ae4:	92818913          	addi	s2,gp,-1752 # 20000198 <iphdr>
    7ae8:	8d5d                	or	a0,a0,a5
    7aea:	89ae                	mv	s3,a1
    7aec:	00892023          	sw	s0,0(s2)
    7af0:	953fa0ef          	jal	ra,2442 <ntohs>
    7af4:	00092783          	lw	a5,0(s2)
    7af8:	8119                	srli	a0,a0,0x6
    7afa:	03c57513          	andi	a0,a0,60
    7afe:	942a                	add	s0,s0,a0
    7b00:	2388                	lbu	a0,0(a5)
    7b02:	339c                	lbu	a5,1(a5)
    7b04:	9281ae23          	sw	s0,-1732(gp) # 200001ac <tcphdr>
    7b08:	07a2                	slli	a5,a5,0x8
    7b0a:	8d5d                	or	a0,a0,a5
    7b0c:	937fa0ef          	jal	ra,2442 <ntohs>
    7b10:	00655593          	srli	a1,a0,0x6
    7b14:	03c5f593          	andi	a1,a1,60
    7b18:	40b005b3          	neg	a1,a1
    7b1c:	855e                	mv	a0,s7
    7b1e:	bd2fb0ef          	jal	ra,2ef0 <pbuf_header>
    7b22:	e511                	bnez	a0,7b2e <tcp_input+0x5a>
    7b24:	008bd703          	lhu	a4,8(s7)
    7b28:	47cd                	li	a5,19
    7b2a:	00e7e863          	bltu	a5,a4,7b3a <tcp_input+0x66>
    7b2e:	855e                	mv	a0,s7
    7b30:	c2efb0ef          	jal	ra,2f5e <pbuf_free>
    7b34:	0141                	addi	sp,sp,16
    7b36:	f06f806f          	j	23c <__riscv_restore_12>
    7b3a:	92818b13          	addi	s6,gp,-1752 # 20000198 <iphdr>
    7b3e:	000b2503          	lw	a0,0(s6)
    7b42:	85ce                	mv	a1,s3
    7b44:	0541                	addi	a0,a0,16
    7b46:	b84ff0ef          	jal	ra,6eca <ip_addr_isbroadcast>
    7b4a:	f175                	bnez	a0,7b2e <tcp_input+0x5a>
    7b4c:	000b2703          	lw	a4,0(s6)
    7b50:	f0000537          	lui	a0,0xf0000
    7b54:	3b1c                	lbu	a5,17(a4)
    7b56:	2b00                	lbu	s0,16(a4)
    7b58:	07a2                	slli	a5,a5,0x8
    7b5a:	8fc1                	or	a5,a5,s0
    7b5c:	2b20                	lbu	s0,18(a4)
    7b5e:	0442                	slli	s0,s0,0x10
    7b60:	8fc1                	or	a5,a5,s0
    7b62:	3b20                	lbu	s0,19(a4)
    7b64:	0462                	slli	s0,s0,0x18
    7b66:	8c5d                	or	s0,s0,a5
    7b68:	90dfa0ef          	jal	ra,2474 <ntohl>
    7b6c:	8c69                	and	s0,s0,a0
    7b6e:	e0000537          	lui	a0,0xe0000
    7b72:	903fa0ef          	jal	ra,2474 <ntohl>
    7b76:	faa40ce3          	beq	s0,a0,7b2e <tcp_input+0x5a>
    7b7a:	000b2583          	lw	a1,0(s6)
    7b7e:	008bd703          	lhu	a4,8(s7)
    7b82:	4699                	li	a3,6
    7b84:	01058613          	addi	a2,a1,16
    7b88:	855e                	mv	a0,s7
    7b8a:	05b1                	addi	a1,a1,12
    7b8c:	d33fe0ef          	jal	ra,68be <inet_chksum_pseudo>
    7b90:	fd59                	bnez	a0,7b2e <tcp_input+0x5a>
    7b92:	93c18493          	addi	s1,gp,-1732 # 200001ac <tcphdr>
    7b96:	409c                	lw	a5,0(s1)
    7b98:	27c8                	lbu	a0,12(a5)
    7b9a:	37dc                	lbu	a5,13(a5)
    7b9c:	07a2                	slli	a5,a5,0x8
    7b9e:	8d5d                	or	a0,a0,a5
    7ba0:	8a3fa0ef          	jal	ra,2442 <ntohs>
    7ba4:	8131                	srli	a0,a0,0xc
    7ba6:	55f1                	li	a1,-4
    7ba8:	02b505b3          	mul	a1,a0,a1
    7bac:	855e                	mv	a0,s7
    7bae:	05c2                	slli	a1,a1,0x10
    7bb0:	85c1                	srai	a1,a1,0x10
    7bb2:	b3efb0ef          	jal	ra,2ef0 <pbuf_header>
    7bb6:	fd25                	bnez	a0,7b2e <tcp_input+0x5a>
    7bb8:	4080                	lw	s0,0(s1)
    7bba:	301c                	lbu	a5,1(s0)
    7bbc:	2008                	lbu	a0,0(s0)
    7bbe:	07a2                	slli	a5,a5,0x8
    7bc0:	8d5d                	or	a0,a0,a5
    7bc2:	881fa0ef          	jal	ra,2442 <ntohs>
    7bc6:	a008                	sb	a0,0(s0)
    7bc8:	8121                	srli	a0,a0,0x8
    7bca:	b008                	sb	a0,1(s0)
    7bcc:	4080                	lw	s0,0(s1)
    7bce:	303c                	lbu	a5,3(s0)
    7bd0:	2028                	lbu	a0,2(s0)
    7bd2:	07a2                	slli	a5,a5,0x8
    7bd4:	8d5d                	or	a0,a0,a5
    7bd6:	86dfa0ef          	jal	ra,2442 <ntohs>
    7bda:	a028                	sb	a0,2(s0)
    7bdc:	8121                	srli	a0,a0,0x8
    7bde:	b028                	sb	a0,3(s0)
    7be0:	4080                	lw	s0,0(s1)
    7be2:	3048                	lbu	a0,5(s0)
    7be4:	205c                	lbu	a5,4(s0)
    7be6:	0522                	slli	a0,a0,0x8
    7be8:	8d5d                	or	a0,a0,a5
    7bea:	207c                	lbu	a5,6(s0)
    7bec:	07c2                	slli	a5,a5,0x10
    7bee:	8fc9                	or	a5,a5,a0
    7bf0:	3068                	lbu	a0,7(s0)
    7bf2:	0562                	slli	a0,a0,0x18
    7bf4:	8d5d                	or	a0,a0,a5
    7bf6:	87ffa0ef          	jal	ra,2474 <ntohl>
    7bfa:	00855793          	srli	a5,a0,0x8
    7bfe:	b05c                	sb	a5,5(s0)
    7c00:	01055793          	srli	a5,a0,0x10
    7c04:	a07c                	sb	a5,6(s0)
    7c06:	01855793          	srli	a5,a0,0x18
    7c0a:	a048                	sb	a0,4(s0)
    7c0c:	b07c                	sb	a5,7(s0)
    7c0e:	4080                	lw	s0,0(s1)
    7c10:	92a1aa23          	sw	a0,-1740(gp) # 200001a4 <seqno>
    7c14:	93418a93          	addi	s5,gp,-1740 # 200001a4 <seqno>
    7c18:	3408                	lbu	a0,9(s0)
    7c1a:	241c                	lbu	a5,8(s0)
    7c1c:	0522                	slli	a0,a0,0x8
    7c1e:	8d5d                	or	a0,a0,a5
    7c20:	243c                	lbu	a5,10(s0)
    7c22:	07c2                	slli	a5,a5,0x10
    7c24:	8fc9                	or	a5,a5,a0
    7c26:	3428                	lbu	a0,11(s0)
    7c28:	0562                	slli	a0,a0,0x18
    7c2a:	8d5d                	or	a0,a0,a5
    7c2c:	849fa0ef          	jal	ra,2474 <ntohl>
    7c30:	00855793          	srli	a5,a0,0x8
    7c34:	b41c                	sb	a5,9(s0)
    7c36:	01055793          	srli	a5,a0,0x10
    7c3a:	a43c                	sb	a5,10(s0)
    7c3c:	01855793          	srli	a5,a0,0x18
    7c40:	a408                	sb	a0,8(s0)
    7c42:	b43c                	sb	a5,11(s0)
    7c44:	4080                	lw	s0,0(s1)
    7c46:	92a1a023          	sw	a0,-1760(gp) # 20000190 <ackno>
    7c4a:	92018913          	addi	s2,gp,-1760 # 20000190 <ackno>
    7c4e:	347c                	lbu	a5,15(s0)
    7c50:	2468                	lbu	a0,14(s0)
    7c52:	07a2                	slli	a5,a5,0x8
    7c54:	8d5d                	or	a0,a0,a5
    7c56:	fecfa0ef          	jal	ra,2442 <ntohs>
    7c5a:	409c                	lw	a5,0(s1)
    7c5c:	a468                	sb	a0,14(s0)
    7c5e:	8121                	srli	a0,a0,0x8
    7c60:	b468                	sb	a0,15(s0)
    7c62:	27c8                	lbu	a0,12(a5)
    7c64:	37dc                	lbu	a5,13(a5)
    7c66:	07a2                	slli	a5,a5,0x8
    7c68:	8d5d                	or	a0,a0,a5
    7c6a:	fd8fa0ef          	jal	ra,2442 <ntohs>
    7c6e:	0ff57813          	andi	a6,a0,255
    7c72:	008bd883          	lhu	a7,8(s7)
    7c76:	00387593          	andi	a1,a6,3
    7c7a:	00b035b3          	snez	a1,a1
    7c7e:	95c6                	add	a1,a1,a7
    7c80:	8e01a303          	lw	t1,-1824(gp) # 20000150 <tcp_active_pcbs>
    7c84:	05c2                	slli	a1,a1,0x10
    7c86:	4094                	lw	a3,0(s1)
    7c88:	000b2603          	lw	a2,0(s6)
    7c8c:	03f87793          	andi	a5,a6,63
    7c90:	81c1                	srli	a1,a1,0x10
    7c92:	92f18223          	sb	a5,-1756(gp) # 20000194 <flags>
    7c96:	94b19023          	sh	a1,-1728(gp) # 200001b0 <tcplen>
    7c9a:	841a                	mv	s0,t1
    7c9c:	4501                	li	a0,0
    7c9e:	92418c93          	addi	s9,gp,-1756 # 20000194 <flags>
    7ca2:	94018c13          	addi	s8,gp,-1728 # 200001b0 <tcplen>
    7ca6:	e401                	bnez	s0,7cae <tcp_input+0x1da>
    7ca8:	8f81a503          	lw	a0,-1800(gp) # 20000168 <tcp_tw_pcbs>
    7cac:	a2e9                	j	7e76 <tcp_input+0x3a2>
    7cae:	329c                	lbu	a5,1(a3)
    7cb0:	0006ce03          	lbu	t3,0(a3)
    7cb4:	305a                	lhu	a4,36(s0)
    7cb6:	07a2                	slli	a5,a5,0x8
    7cb8:	01c7e7b3          	or	a5,a5,t3
    7cbc:	0ef71263          	bne	a4,a5,7da0 <tcp_input+0x2cc>
    7cc0:	32bc                	lbu	a5,3(a3)
    7cc2:	0026ce03          	lbu	t3,2(a3)
    7cc6:	2c5a                	lhu	a4,28(s0)
    7cc8:	07a2                	slli	a5,a5,0x8
    7cca:	01c7e7b3          	or	a5,a5,t3
    7cce:	0cf71963          	bne	a4,a5,7da0 <tcp_input+0x2cc>
    7cd2:	3658                	lbu	a4,13(a2)
    7cd4:	265c                	lbu	a5,12(a2)
    7cd6:	0722                	slli	a4,a4,0x8
    7cd8:	8f5d                	or	a4,a4,a5
    7cda:	267c                	lbu	a5,14(a2)
    7cdc:	07c2                	slli	a5,a5,0x10
    7cde:	8f5d                	or	a4,a4,a5
    7ce0:	367c                	lbu	a5,15(a2)
    7ce2:	07e2                	slli	a5,a5,0x18
    7ce4:	8fd9                	or	a5,a5,a4
    7ce6:	4058                	lw	a4,4(s0)
    7ce8:	0af71c63          	bne	a4,a5,7da0 <tcp_input+0x2cc>
    7cec:	3a18                	lbu	a4,17(a2)
    7cee:	2a1c                	lbu	a5,16(a2)
    7cf0:	0722                	slli	a4,a4,0x8
    7cf2:	8f5d                	or	a4,a4,a5
    7cf4:	2a3c                	lbu	a5,18(a2)
    7cf6:	07c2                	slli	a5,a5,0x10
    7cf8:	8f5d                	or	a4,a4,a5
    7cfa:	3a3c                	lbu	a5,19(a2)
    7cfc:	07e2                	slli	a5,a5,0x18
    7cfe:	8fd9                	or	a5,a5,a4
    7d00:	4018                	lw	a4,0(s0)
    7d02:	08f71f63          	bne	a4,a5,7da0 <tcp_input+0x2cc>
    7d06:	c519                	beqz	a0,7d14 <tcp_input+0x240>
    7d08:	445c                	lw	a5,12(s0)
    7d0a:	8e81a023          	sw	s0,-1824(gp) # 20000150 <tcp_active_pcbs>
    7d0e:	c55c                	sw	a5,12(a0)
    7d10:	00642623          	sw	t1,12(s0)
    7d14:	004ba703          	lw	a4,4(s7)
    7d18:	2001edb7          	lui	s11,0x2001e
    7d1c:	08442603          	lw	a2,132(s0)
    7d20:	eb8d8793          	addi	a5,s11,-328 # 2001deb8 <inseg>
    7d24:	9201a623          	sw	zero,-1748(gp) # 2000019c <recv_data>
    7d28:	92018823          	sb	zero,-1744(gp) # 200001a0 <recv_flags>
    7d2c:	0007a023          	sw	zero,0(a5)
    7d30:	01179623          	sh	a7,12(a5)
    7d34:	c798                	sw	a4,8(a5)
    7d36:	0177a223          	sw	s7,4(a5)
    7d3a:	cb94                	sw	a3,16(a5)
    7d3c:	93018a13          	addi	s4,gp,-1744 # 200001a0 <recv_flags>
    7d40:	92c18d13          	addi	s10,gp,-1748 # 2000019c <recv_data>
    7d44:	eb8d8d93          	addi	s11,s11,-328
    7d48:	ce09                	beqz	a2,7d62 <tcp_input+0x28e>
    7d4a:	08c42783          	lw	a5,140(s0)
    7d4e:	4681                	li	a3,0
    7d50:	85a2                	mv	a1,s0
    7d52:	2c078363          	beqz	a5,8018 <tcp_input+0x544>
    7d56:	4c08                	lw	a0,24(s0)
    7d58:	9782                	jalr	a5
    7d5a:	dc051ae3          	bnez	a0,7b2e <tcp_input+0x5a>
    7d5e:	08042223          	sw	zero,132(s0)
    7d62:	000cc783          	lbu	a5,0(s9)
    7d66:	9281ac23          	sw	s0,-1736(gp) # 200001a8 <tcp_input_pcb>
    7d6a:	0047f713          	andi	a4,a5,4
    7d6e:	93818b93          	addi	s7,gp,-1736 # 200001a8 <tcp_input_pcb>
    7d72:	30070663          	beqz	a4,807e <tcp_input+0x5aa>
    7d76:	4818                	lw	a4,16(s0)
    7d78:	4789                	li	a5,2
    7d7a:	2af71363          	bne	a4,a5,8020 <tcp_input+0x54c>
    7d7e:	4c78                	lw	a4,92(s0)
    7d80:	00092783          	lw	a5,0(s2)
    7d84:	2af71863          	bne	a4,a5,8034 <tcp_input+0x560>
    7d88:	000a4783          	lbu	a5,0(s4)
    7d8c:	0087e793          	ori	a5,a5,8
    7d90:	00fa0023          	sb	a5,0(s4)
    7d94:	02644783          	lbu	a5,38(s0)
    7d98:	9bf9                	andi	a5,a5,-2
    7d9a:	02f40323          	sb	a5,38(s0)
    7d9e:	ac59                	j	8034 <tcp_input+0x560>
    7da0:	8522                	mv	a0,s0
    7da2:	4440                	lw	s0,12(s0)
    7da4:	b709                	j	7ca6 <tcp_input+0x1d2>
    7da6:	3298                	lbu	a4,1(a3)
    7da8:	229c                	lbu	a5,0(a3)
    7daa:	0722                	slli	a4,a4,0x8
    7dac:	8f5d                	or	a4,a4,a5
    7dae:	315e                	lhu	a5,36(a0)
    7db0:	0ce79263          	bne	a5,a4,7e74 <tcp_input+0x3a0>
    7db4:	0036c883          	lbu	a7,3(a3)
    7db8:	22b8                	lbu	a4,2(a3)
    7dba:	08a2                	slli	a7,a7,0x8
    7dbc:	00e8e8b3          	or	a7,a7,a4
    7dc0:	2d5a                	lhu	a4,28(a0)
    7dc2:	0b171963          	bne	a4,a7,7e74 <tcp_input+0x3a0>
    7dc6:	00d64303          	lbu	t1,13(a2)
    7dca:	00c64883          	lbu	a7,12(a2)
    7dce:	0322                	slli	t1,t1,0x8
    7dd0:	01136333          	or	t1,t1,a7
    7dd4:	00e64883          	lbu	a7,14(a2)
    7dd8:	08c2                	slli	a7,a7,0x10
    7dda:	0068e333          	or	t1,a7,t1
    7dde:	00f64883          	lbu	a7,15(a2)
    7de2:	08e2                	slli	a7,a7,0x18
    7de4:	0068e8b3          	or	a7,a7,t1
    7de8:	00452303          	lw	t1,4(a0) # e0000004 <_eusrstack+0xbffe0004>
    7dec:	09131463          	bne	t1,a7,7e74 <tcp_input+0x3a0>
    7df0:	01164303          	lbu	t1,17(a2)
    7df4:	01064883          	lbu	a7,16(a2)
    7df8:	0322                	slli	t1,t1,0x8
    7dfa:	01136333          	or	t1,t1,a7
    7dfe:	01264883          	lbu	a7,18(a2)
    7e02:	08c2                	slli	a7,a7,0x10
    7e04:	0068e333          	or	t1,a7,t1
    7e08:	01364883          	lbu	a7,19(a2)
    7e0c:	08e2                	slli	a7,a7,0x18
    7e0e:	0068e8b3          	or	a7,a7,t1
    7e12:	00052303          	lw	t1,0(a0)
    7e16:	05131f63          	bne	t1,a7,7e74 <tcp_input+0x3a0>
    7e1a:	00487693          	andi	a3,a6,4
    7e1e:	d00698e3          	bnez	a3,7b2e <tcp_input+0x5a>
    7e22:	00287693          	andi	a3,a6,2
    7e26:	c68d                	beqz	a3,7e50 <tcp_input+0x37c>
    7e28:	000aa803          	lw	a6,0(s5)
    7e2c:	5514                	lw	a3,40(a0)
    7e2e:	40d806b3          	sub	a3,a6,a3
    7e32:	0206c663          	bltz	a3,7e5e <tcp_input+0x38a>
    7e36:	02c55883          	lhu	a7,44(a0)
    7e3a:	411686b3          	sub	a3,a3,a7
    7e3e:	02d04063          	bgtz	a3,7e5e <tcp_input+0x38a>
    7e42:	00c60693          	addi	a3,a2,12
    7e46:	95c2                	add	a1,a1,a6
    7e48:	0641                	addi	a2,a2,16
    7e4a:	00092503          	lw	a0,0(s2)
    7e4e:	a8f1                	j	7f2a <tcp_input+0x456>
    7e50:	00187813          	andi	a6,a6,1
    7e54:	00080563          	beqz	a6,7e5e <tcp_input+0x38a>
    7e58:	8ec1a783          	lw	a5,-1812(gp) # 2000015c <tcp_ticks>
    7e5c:	d95c                	sw	a5,52(a0)
    7e5e:	cc0588e3          	beqz	a1,7b2e <tcp_input+0x5a>
    7e62:	02654783          	lbu	a5,38(a0)
    7e66:	0027e793          	ori	a5,a5,2
    7e6a:	02f50323          	sb	a5,38(a0)
    7e6e:	bccfc0ef          	jal	ra,423a <tcp_output>
    7e72:	b975                	j	7b2e <tcp_input+0x5a>
    7e74:	4548                	lw	a0,12(a0)
    7e76:	f905                	bnez	a0,7da6 <tcp_input+0x2d2>
    7e78:	8e81a303          	lw	t1,-1816(gp) # 20000158 <tcp_listen_pcbs>
    7e7c:	8e3e                	mv	t3,a5
    7e7e:	8a1a                	mv	s4,t1
    7e80:	040a1363          	bnez	s4,7ec6 <tcp_input+0x3f2>
    7e84:	36dc                	lbu	a5,13(a3)
    7e86:	26c8                	lbu	a0,12(a3)
    7e88:	07a2                	slli	a5,a5,0x8
    7e8a:	8d5d                	or	a0,a0,a5
    7e8c:	db6fa0ef          	jal	ra,2442 <ntohs>
    7e90:	8911                	andi	a0,a0,4
    7e92:	c8051ee3          	bnez	a0,7b2e <tcp_input+0x5a>
    7e96:	4094                	lw	a3,0(s1)
    7e98:	000b2603          	lw	a2,0(s6)
    7e9c:	000c5503          	lhu	a0,0(s8)
    7ea0:	329c                	lbu	a5,1(a3)
    7ea2:	32b8                	lbu	a4,3(a3)
    7ea4:	0006c883          	lbu	a7,0(a3)
    7ea8:	0026c803          	lbu	a6,2(a3)
    7eac:	000aa583          	lw	a1,0(s5)
    7eb0:	07a2                	slli	a5,a5,0x8
    7eb2:	0722                	slli	a4,a4,0x8
    7eb4:	00c60693          	addi	a3,a2,12
    7eb8:	0117e7b3          	or	a5,a5,a7
    7ebc:	01076733          	or	a4,a4,a6
    7ec0:	0641                	addi	a2,a2,16
    7ec2:	95aa                	add	a1,a1,a0
    7ec4:	b759                	j	7e4a <tcp_input+0x376>
    7ec6:	000a2883          	lw	a7,0(s4)
    7eca:	00088e63          	beqz	a7,7ee6 <tcp_input+0x412>
    7ece:	3a18                	lbu	a4,17(a2)
    7ed0:	2a1c                	lbu	a5,16(a2)
    7ed2:	0722                	slli	a4,a4,0x8
    7ed4:	8f5d                	or	a4,a4,a5
    7ed6:	2a3c                	lbu	a5,18(a2)
    7ed8:	07c2                	slli	a5,a5,0x10
    7eda:	8f5d                	or	a4,a4,a5
    7edc:	3a3c                	lbu	a5,19(a2)
    7ede:	07e2                	slli	a5,a5,0x18
    7ee0:	8fd9                	or	a5,a5,a4
    7ee2:	12f89763          	bne	a7,a5,8010 <tcp_input+0x53c>
    7ee6:	32b8                	lbu	a4,3(a3)
    7ee8:	22bc                	lbu	a5,2(a3)
    7eea:	0722                	slli	a4,a4,0x8
    7eec:	8f5d                	or	a4,a4,a5
    7eee:	01ca5783          	lhu	a5,28(s4)
    7ef2:	10e79f63          	bne	a5,a4,8010 <tcp_input+0x53c>
    7ef6:	c901                	beqz	a0,7f06 <tcp_input+0x432>
    7ef8:	00ca2783          	lw	a5,12(s4)
    7efc:	8f41a423          	sw	s4,-1816(gp) # 20000158 <tcp_listen_pcbs>
    7f00:	c55c                	sw	a5,12(a0)
    7f02:	006a2623          	sw	t1,12(s4)
    7f06:	01087793          	andi	a5,a6,16
    7f0a:	c39d                	beqz	a5,7f30 <tcp_input+0x45c>
    7f0c:	329c                	lbu	a5,1(a3)
    7f0e:	0006c883          	lbu	a7,0(a3)
    7f12:	000aa803          	lw	a6,0(s5)
    7f16:	00092503          	lw	a0,0(s2)
    7f1a:	07a2                	slli	a5,a5,0x8
    7f1c:	00c60693          	addi	a3,a2,12
    7f20:	0117e7b3          	or	a5,a5,a7
    7f24:	0641                	addi	a2,a2,16
    7f26:	95c2                	add	a1,a1,a6
    7f28:	0505                	addi	a0,a0,1
    7f2a:	e6afc0ef          	jal	ra,4594 <tcp_rst>
    7f2e:	b101                	j	7b2e <tcp_input+0x5a>
    7f30:	00287813          	andi	a6,a6,2
    7f34:	be080de3          	beqz	a6,7b2e <tcp_input+0x5a>
    7f38:	014a4503          	lbu	a0,20(s4)
    7f3c:	ae5fb0ef          	jal	ra,3a20 <tcp_alloc>
    7f40:	842a                	mv	s0,a0
    7f42:	be0506e3          	beqz	a0,7b2e <tcp_input+0x5a>
    7f46:	000b2783          	lw	a5,0(s6)
    7f4a:	4701                	li	a4,0
    7f4c:	01078693          	addi	a3,a5,16
    7f50:	ca99                	beqz	a3,7f66 <tcp_input+0x492>
    7f52:	3b94                	lbu	a3,17(a5)
    7f54:	2b98                	lbu	a4,16(a5)
    7f56:	06a2                	slli	a3,a3,0x8
    7f58:	8ed9                	or	a3,a3,a4
    7f5a:	2bb8                	lbu	a4,18(a5)
    7f5c:	0742                	slli	a4,a4,0x10
    7f5e:	8ed9                	or	a3,a3,a4
    7f60:	3bb8                	lbu	a4,19(a5)
    7f62:	0762                	slli	a4,a4,0x18
    7f64:	8f55                	or	a4,a4,a3
    7f66:	c018                	sw	a4,0(s0)
    7f68:	01ca5703          	lhu	a4,28(s4)
    7f6c:	00c78693          	addi	a3,a5,12
    7f70:	ac5a                	sh	a4,28(s0)
    7f72:	4701                	li	a4,0
    7f74:	ca99                	beqz	a3,7f8a <tcp_input+0x4b6>
    7f76:	37d4                	lbu	a3,13(a5)
    7f78:	27d8                	lbu	a4,12(a5)
    7f7a:	06a2                	slli	a3,a3,0x8
    7f7c:	8ed9                	or	a3,a3,a4
    7f7e:	27f8                	lbu	a4,14(a5)
    7f80:	0742                	slli	a4,a4,0x10
    7f82:	8ed9                	or	a3,a3,a4
    7f84:	37f8                	lbu	a4,15(a5)
    7f86:	0762                	slli	a4,a4,0x18
    7f88:	8f55                	or	a4,a4,a3
    7f8a:	4094                	lw	a3,0(s1)
    7f8c:	c058                	sw	a4,4(s0)
    7f8e:	03c40513          	addi	a0,s0,60
    7f92:	329c                	lbu	a5,1(a3)
    7f94:	2298                	lbu	a4,0(a3)
    7f96:	07a2                	slli	a5,a5,0x8
    7f98:	8fd9                	or	a5,a5,a4
    7f9a:	000aa703          	lw	a4,0(s5)
    7f9e:	b05e                	sh	a5,36(s0)
    7fa0:	478d                	li	a5,3
    7fa2:	c81c                	sw	a5,16(s0)
    7fa4:	00170793          	addi	a5,a4,1
    7fa8:	d41c                	sw	a5,40(s0)
    7faa:	d81c                	sw	a5,48(s0)
    7fac:	36fc                	lbu	a5,15(a3)
    7fae:	26f0                	lbu	a2,14(a3)
    7fb0:	177d                	addi	a4,a4,-1
    7fb2:	07a2                	slli	a5,a5,0x8
    7fb4:	8fd1                	or	a5,a5,a2
    7fb6:	06f41023          	sh	a5,96(s0)
    7fba:	04f41c23          	sh	a5,88(s0)
    7fbe:	018a2783          	lw	a5,24(s4)
    7fc2:	d078                	sw	a4,100(s0)
    7fc4:	cc1c                	sw	a5,24(s0)
    7fc6:	020a2783          	lw	a5,32(s4)
    7fca:	d01c                	sw	a5,32(s0)
    7fcc:	008a5783          	lhu	a5,8(s4)
    7fd0:	1997f793          	andi	a5,a5,409
    7fd4:	a41e                	sh	a5,8(s0)
    7fd6:	8e01a783          	lw	a5,-1824(gp) # 20000150 <tcp_active_pcbs>
    7fda:	8e81a023          	sw	s0,-1824(gp) # 20000150 <tcp_active_pcbs>
    7fde:	c45c                	sw	a5,12(s0)
    7fe0:	a4fff0ef          	jal	ra,7a2e <tcp_parseopt.isra.0>
    7fe4:	3c4a                	lhu	a0,60(s0)
    7fe6:	00440593          	addi	a1,s0,4
    7fea:	b7ffb0ef          	jal	ra,3b68 <tcp_eff_send_mss>
    7fee:	bc4a                	sh	a0,60(s0)
    7ff0:	4785                	li	a5,1
    7ff2:	4701                	li	a4,0
    7ff4:	46c9                	li	a3,18
    7ff6:	4601                	li	a2,0
    7ff8:	4581                	li	a1,0
    7ffa:	8522                	mv	a0,s0
    7ffc:	d4dfb0ef          	jal	ra,3d48 <tcp_enqueue>
    8000:	c511                	beqz	a0,800c <tcp_input+0x538>
    8002:	4581                	li	a1,0
    8004:	8522                	mv	a0,s0
    8006:	973fb0ef          	jal	ra,3978 <tcp_abandon>
    800a:	b615                	j	7b2e <tcp_input+0x5a>
    800c:	8522                	mv	a0,s0
    800e:	b585                	j	7e6e <tcp_input+0x39a>
    8010:	8552                	mv	a0,s4
    8012:	00ca2a03          	lw	s4,12(s4)
    8016:	b5ad                	j	7e80 <tcp_input+0x3ac>
    8018:	4501                	li	a0,0
    801a:	8abfb0ef          	jal	ra,38c4 <tcp_recv_null>
    801e:	bb35                	j	7d5a <tcp_input+0x286>
    8020:	000aa783          	lw	a5,0(s5)
    8024:	5418                	lw	a4,40(s0)
    8026:	8f99                	sub	a5,a5,a4
    8028:	0007c663          	bltz	a5,8034 <tcp_input+0x560>
    802c:	345a                	lhu	a4,44(s0)
    802e:	8f99                	sub	a5,a5,a4
    8030:	d4f05ce3          	blez	a5,7d88 <tcp_input+0x2b4>
    8034:	000a4783          	lbu	a5,0(s4)
    8038:	0087f713          	andi	a4,a5,8
    803c:	3c070863          	beqz	a4,840c <tcp_input+0x938>
    8040:	00f10593          	addi	a1,sp,15
    8044:	8522                	mv	a0,s0
    8046:	bb6fd0ef          	jal	ra,53fc <WCHFindCorrectTCBPcb>
    804a:	4785                	li	a5,1
    804c:	00f51663          	bne	a0,a5,8058 <tcp_input+0x584>
    8050:	4818                	lw	a4,16(s0)
    8052:	4789                	li	a5,2
    8054:	1af70a63          	beq	a4,a5,8208 <tcp_input+0x734>
    8058:	8522                	mv	a0,s0
    805a:	a0dfd0ef          	jal	ra,5a66 <LwipRemoveTcpPcb>
    805e:	09842783          	lw	a5,152(s0)
    8062:	c781                	beqz	a5,806a <tcp_input+0x596>
    8064:	4c08                	lw	a0,24(s0)
    8066:	55e9                	li	a1,-6
    8068:	9782                	jalr	a5
    806a:	85a2                	mv	a1,s0
    806c:	8e018513          	addi	a0,gp,-1824 # 20000150 <tcp_active_pcbs>
    8070:	f30fb0ef          	jal	ra,37a0 <tcp_pcb_remove>
    8074:	85a2                	mv	a1,s0
    8076:	4509                	li	a0,2
    8078:	d19fa0ef          	jal	ra,2d90 <memp_free>
    807c:	a271                	j	8208 <tcp_input+0x734>
    807e:	8b89                	andi	a5,a5,2
    8080:	c385                	beqz	a5,80a0 <tcp_input+0x5cc>
    8082:	481c                	lw	a5,16(s0)
    8084:	4705                	li	a4,1
    8086:	17f9                	addi	a5,a5,-2
    8088:	00f77c63          	bgeu	a4,a5,80a0 <tcp_input+0x5cc>
    808c:	02644783          	lbu	a5,38(s0)
    8090:	8522                	mv	a0,s0
    8092:	0027e793          	ori	a5,a5,2
    8096:	02f40323          	sb	a5,38(s0)
    809a:	9a0fc0ef          	jal	ra,423a <tcp_output>
    809e:	bf59                	j	8034 <tcp_input+0x560>
    80a0:	8ec1a783          	lw	a5,-1812(gp) # 2000015c <tcp_ticks>
    80a4:	0a0406a3          	sb	zero,173(s0)
    80a8:	03c40513          	addi	a0,s0,60
    80ac:	d85c                	sw	a5,52(s0)
    80ae:	981ff0ef          	jal	ra,7a2e <tcp_parseopt.isra.0>
    80b2:	481c                	lw	a5,16(s0)
    80b4:	471d                	li	a4,7
    80b6:	17f9                	addi	a5,a5,-2
    80b8:	f6f76ee3          	bltu	a4,a5,8034 <tcp_input+0x560>
    80bc:	6729                	lui	a4,0xa
    80be:	078a                	slli	a5,a5,0x2
    80c0:	18470713          	addi	a4,a4,388 # a184 <ErrTable+0x3c>
    80c4:	97ba                	add	a5,a5,a4
    80c6:	439c                	lw	a5,0(a5)
    80c8:	8782                	jr	a5
    80ca:	000cc783          	lbu	a5,0(s9)
    80ce:	4749                	li	a4,18
    80d0:	8bc9                	andi	a5,a5,18
    80d2:	0ae79b63          	bne	a5,a4,8188 <tcp_input+0x6b4>
    80d6:	5c7c                	lw	a5,124(s0)
    80d8:	4b98                	lw	a4,16(a5)
    80da:	3348                	lbu	a0,5(a4)
    80dc:	235c                	lbu	a5,4(a4)
    80de:	0522                	slli	a0,a0,0x8
    80e0:	8d5d                	or	a0,a0,a5
    80e2:	237c                	lbu	a5,6(a4)
    80e4:	07c2                	slli	a5,a5,0x10
    80e6:	8fc9                	or	a5,a5,a0
    80e8:	3368                	lbu	a0,7(a4)
    80ea:	0562                	slli	a0,a0,0x18
    80ec:	8d5d                	or	a0,a0,a5
    80ee:	b86fa0ef          	jal	ra,2474 <ntohl>
    80f2:	00092783          	lw	a5,0(s2)
    80f6:	0505                	addi	a0,a0,1
    80f8:	08f51863          	bne	a0,a5,8188 <tcp_input+0x6b4>
    80fc:	07245783          	lhu	a5,114(s0)
    8100:	000aa703          	lw	a4,0(s5)
    8104:	4094                	lw	a3,0(s1)
    8106:	0785                	addi	a5,a5,1
    8108:	06f41923          	sh	a5,114(s0)
    810c:	00170793          	addi	a5,a4,1
    8110:	c828                	sw	a0,80(s0)
    8112:	d41c                	sw	a5,40(s0)
    8114:	d81c                	sw	a5,48(s0)
    8116:	36fc                	lbu	a5,15(a3)
    8118:	26f0                	lbu	a2,14(a3)
    811a:	3c4a                	lhu	a0,60(s0)
    811c:	07a2                	slli	a5,a5,0x8
    811e:	8fd1                	or	a5,a5,a2
    8120:	177d                	addi	a4,a4,-1
    8122:	06f41023          	sh	a5,96(s0)
    8126:	4791                	li	a5,4
    8128:	d078                	sw	a4,100(s0)
    812a:	c81c                	sw	a5,16(s0)
    812c:	00440593          	addi	a1,s0,4
    8130:	a39fb0ef          	jal	ra,3b68 <tcp_eff_send_mss>
    8134:	47a9                	li	a5,10
    8136:	02f507b3          	mul	a5,a0,a5
    813a:	05645703          	lhu	a4,86(s0)
    813e:	bc4a                	sh	a0,60(s0)
    8140:	04f41c23          	sh	a5,88(s0)
    8144:	4785                	li	a5,1
    8146:	00f71563          	bne	a4,a5,8150 <tcp_input+0x67c>
    814a:	0506                	slli	a0,a0,0x1
    814c:	0542                	slli	a0,a0,0x10
    814e:	8141                	srli	a0,a0,0x10
    8150:	07445783          	lhu	a5,116(s0)
    8154:	04a41b23          	sh	a0,86(s0)
    8158:	5c68                	lw	a0,124(s0)
    815a:	17fd                	addi	a5,a5,-1
    815c:	06f41a23          	sh	a5,116(s0)
    8160:	411c                	lw	a5,0(a0)
    8162:	dc7c                	sw	a5,124(s0)
    8164:	ef89                	bnez	a5,817e <tcp_input+0x6aa>
    8166:	57fd                	li	a5,-1
    8168:	bc3e                	sh	a5,58(s0)
    816a:	ab6fb0ef          	jal	ra,3420 <tcp_seg_free>
    816e:	09042783          	lw	a5,144(s0)
    8172:	df89                	beqz	a5,808c <tcp_input+0x5b8>
    8174:	4c08                	lw	a0,24(s0)
    8176:	4601                	li	a2,0
    8178:	85a2                	mv	a1,s0
    817a:	9782                	jalr	a5
    817c:	bf01                	j	808c <tcp_input+0x5b8>
    817e:	02041d23          	sh	zero,58(s0)
    8182:	04040723          	sb	zero,78(s0)
    8186:	b7d5                	j	816a <tcp_input+0x696>
    8188:	000cc783          	lbu	a5,0(s9)
    818c:	8bc1                	andi	a5,a5,16
    818e:	ea0783e3          	beqz	a5,8034 <tcp_input+0x560>
    8192:	4094                	lw	a3,0(s1)
    8194:	000c5503          	lhu	a0,0(s8)
    8198:	000aa583          	lw	a1,0(s5)
    819c:	329c                	lbu	a5,1(a3)
    819e:	32b8                	lbu	a4,3(a3)
    81a0:	000b2603          	lw	a2,0(s6)
    81a4:	0006c883          	lbu	a7,0(a3)
    81a8:	0026c803          	lbu	a6,2(a3)
    81ac:	95aa                	add	a1,a1,a0
    81ae:	00092503          	lw	a0,0(s2)
    81b2:	07a2                	slli	a5,a5,0x8
    81b4:	0722                	slli	a4,a4,0x8
    81b6:	00c60693          	addi	a3,a2,12
    81ba:	0117e7b3          	or	a5,a5,a7
    81be:	01076733          	or	a4,a4,a6
    81c2:	0641                	addi	a2,a2,16
    81c4:	bd0fc0ef          	jal	ra,4594 <tcp_rst>
    81c8:	b5b5                	j	8034 <tcp_input+0x560>
    81ca:	000cc783          	lbu	a5,0(s9)
    81ce:	0107f713          	andi	a4,a5,16
    81d2:	c761                	beqz	a4,829a <tcp_input+0x7c6>
    81d4:	00092503          	lw	a0,0(s2)
    81d8:	4838                	lw	a4,80(s0)
    81da:	fff50793          	addi	a5,a0,-1
    81de:	8f99                	sub	a5,a5,a4
    81e0:	0807c563          	bltz	a5,826a <tcp_input+0x796>
    81e4:	4c7c                	lw	a5,92(s0)
    81e6:	40f507b3          	sub	a5,a0,a5
    81ea:	08f04063          	bgtz	a5,826a <tcp_input+0x796>
    81ee:	4791                	li	a5,4
    81f0:	c81c                	sw	a5,16(s0)
    81f2:	501c                	lw	a5,32(s0)
    81f4:	c78d                	beqz	a5,821e <tcp_input+0x74a>
    81f6:	4c08                	lw	a0,24(s0)
    81f8:	4601                	li	a2,0
    81fa:	85a2                	mv	a1,s0
    81fc:	9782                	jalr	a5
    81fe:	c105                	beqz	a0,821e <tcp_input+0x74a>
    8200:	4585                	li	a1,1
    8202:	8522                	mv	a0,s0
    8204:	f74fb0ef          	jal	ra,3978 <tcp_abandon>
    8208:	004da503          	lw	a0,4(s11)
    820c:	000ba023          	sw	zero,0(s7)
    8210:	920502e3          	beqz	a0,7b34 <tcp_input+0x60>
    8214:	d4bfa0ef          	jal	ra,2f5e <pbuf_free>
    8218:	000da223          	sw	zero,4(s11)
    821c:	ba21                	j	7b34 <tcp_input+0x60>
    821e:	8522                	mv	a0,s0
    8220:	05645483          	lhu	s1,86(s0)
    8224:	f27fe0ef          	jal	ra,714a <tcp_receive>
    8228:	07045783          	lhu	a5,112(s0)
    822c:	c781                	beqz	a5,8234 <tcp_input+0x760>
    822e:	17fd                	addi	a5,a5,-1
    8230:	06f41823          	sh	a5,112(s0)
    8234:	4705                	li	a4,1
    8236:	3c5e                	lhu	a5,60(s0)
    8238:	00e49563          	bne	s1,a4,8242 <tcp_input+0x76e>
    823c:	0786                	slli	a5,a5,0x1
    823e:	07c2                	slli	a5,a5,0x10
    8240:	83c1                	srli	a5,a5,0x10
    8242:	04f41b23          	sh	a5,86(s0)
    8246:	000a4783          	lbu	a5,0(s4)
    824a:	0207f793          	andi	a5,a5,32
    824e:	de0783e3          	beqz	a5,8034 <tcp_input+0x560>
    8252:	02644783          	lbu	a5,38(s0)
    8256:	8522                	mv	a0,s0
    8258:	0027e793          	ori	a5,a5,2
    825c:	02f40323          	sb	a5,38(s0)
    8260:	fdbfb0ef          	jal	ra,423a <tcp_output>
    8264:	479d                	li	a5,7
    8266:	c81c                	sw	a5,16(s0)
    8268:	b3f1                	j	8034 <tcp_input+0x560>
    826a:	4094                	lw	a3,0(s1)
    826c:	000b2603          	lw	a2,0(s6)
    8270:	000c5803          	lhu	a6,0(s8)
    8274:	329c                	lbu	a5,1(a3)
    8276:	32b8                	lbu	a4,3(a3)
    8278:	0006c303          	lbu	t1,0(a3)
    827c:	0026c883          	lbu	a7,2(a3)
    8280:	000aa583          	lw	a1,0(s5)
    8284:	07a2                	slli	a5,a5,0x8
    8286:	0722                	slli	a4,a4,0x8
    8288:	00c60693          	addi	a3,a2,12
    828c:	0067e7b3          	or	a5,a5,t1
    8290:	01176733          	or	a4,a4,a7
    8294:	0641                	addi	a2,a2,16
    8296:	95c2                	add	a1,a1,a6
    8298:	b735                	j	81c4 <tcp_input+0x6f0>
    829a:	8b89                	andi	a5,a5,2
    829c:	d8078ce3          	beqz	a5,8034 <tcp_input+0x560>
    82a0:	541c                	lw	a5,40(s0)
    82a2:	000aa703          	lw	a4,0(s5)
    82a6:	17fd                	addi	a5,a5,-1
    82a8:	d8e796e3          	bne	a5,a4,8034 <tcp_input+0x560>
    82ac:	8522                	mv	a0,s0
    82ae:	c22fc0ef          	jal	ra,46d0 <tcp_rexmit>
    82b2:	b349                	j	8034 <tcp_input+0x560>
    82b4:	8522                	mv	a0,s0
    82b6:	e95fe0ef          	jal	ra,714a <tcp_receive>
    82ba:	b771                	j	8246 <tcp_input+0x772>
    82bc:	8522                	mv	a0,s0
    82be:	e8dfe0ef          	jal	ra,714a <tcp_receive>
    82c2:	000a4783          	lbu	a5,0(s4)
    82c6:	0207f793          	andi	a5,a5,32
    82ca:	c3c1                	beqz	a5,834a <tcp_input+0x876>
    82cc:	000cc703          	lbu	a4,0(s9)
    82d0:	02644783          	lbu	a5,38(s0)
    82d4:	8b41                	andi	a4,a4,16
    82d6:	0027e793          	ori	a5,a5,2
    82da:	c32d                	beqz	a4,833c <tcp_input+0x868>
    82dc:	4c74                	lw	a3,92(s0)
    82de:	00092703          	lw	a4,0(s2)
    82e2:	04e69d63          	bne	a3,a4,833c <tcp_input+0x868>
    82e6:	02f40323          	sb	a5,38(s0)
    82ea:	8522                	mv	a0,s0
    82ec:	f4ffb0ef          	jal	ra,423a <tcp_output>
    82f0:	8522                	mv	a0,s0
    82f2:	9bcfb0ef          	jal	ra,34ae <tcp_pcb_purge>
    82f6:	8e01a783          	lw	a5,-1824(gp) # 20000150 <tcp_active_pcbs>
    82fa:	00f41d63          	bne	s0,a5,8314 <tcp_input+0x840>
    82fe:	445c                	lw	a5,12(s0)
    8300:	8ef1a023          	sw	a5,-1824(gp) # 20000150 <tcp_active_pcbs>
    8304:	47a9                	li	a5,10
    8306:	c81c                	sw	a5,16(s0)
    8308:	8f81a703          	lw	a4,-1800(gp) # 20000168 <tcp_tw_pcbs>
    830c:	8e81ac23          	sw	s0,-1800(gp) # 20000168 <tcp_tw_pcbs>
    8310:	c458                	sw	a4,12(s0)
    8312:	b30d                	j	8034 <tcp_input+0x560>
    8314:	8ef1aa23          	sw	a5,-1804(gp) # 20000164 <tcp_tmp_pcb>
    8318:	4681                	li	a3,0
    831a:	e789                	bnez	a5,8324 <tcp_input+0x850>
    831c:	d6e5                	beqz	a3,8304 <tcp_input+0x830>
    831e:	8e01aa23          	sw	zero,-1804(gp) # 20000164 <tcp_tmp_pcb>
    8322:	b7cd                	j	8304 <tcp_input+0x830>
    8324:	47d0                	lw	a2,12(a5)
    8326:	00c41863          	bne	s0,a2,8336 <tcp_input+0x862>
    832a:	c299                	beqz	a3,8330 <tcp_input+0x85c>
    832c:	8ef1aa23          	sw	a5,-1804(gp) # 20000164 <tcp_tmp_pcb>
    8330:	4458                	lw	a4,12(s0)
    8332:	c7d8                	sw	a4,12(a5)
    8334:	bfc1                	j	8304 <tcp_input+0x830>
    8336:	4685                	li	a3,1
    8338:	87b2                	mv	a5,a2
    833a:	b7c5                	j	831a <tcp_input+0x846>
    833c:	02f40323          	sb	a5,38(s0)
    8340:	8522                	mv	a0,s0
    8342:	ef9fb0ef          	jal	ra,423a <tcp_output>
    8346:	47a1                	li	a5,8
    8348:	bf39                	j	8266 <tcp_input+0x792>
    834a:	000cc783          	lbu	a5,0(s9)
    834e:	8bc1                	andi	a5,a5,16
    8350:	ce0782e3          	beqz	a5,8034 <tcp_input+0x560>
    8354:	4c78                	lw	a4,92(s0)
    8356:	00092783          	lw	a5,0(s2)
    835a:	ccf71de3          	bne	a4,a5,8034 <tcp_input+0x560>
    835e:	4799                	li	a5,6
    8360:	b719                	j	8266 <tcp_input+0x792>
    8362:	8522                	mv	a0,s0
    8364:	de7fe0ef          	jal	ra,714a <tcp_receive>
    8368:	000a4783          	lbu	a5,0(s4)
    836c:	0207f793          	andi	a5,a5,32
    8370:	cc0782e3          	beqz	a5,8034 <tcp_input+0x560>
    8374:	02644783          	lbu	a5,38(s0)
    8378:	8522                	mv	a0,s0
    837a:	0027e793          	ori	a5,a5,2
    837e:	02f40323          	sb	a5,38(s0)
    8382:	eb9fb0ef          	jal	ra,423a <tcp_output>
    8386:	8522                	mv	a0,s0
    8388:	926fb0ef          	jal	ra,34ae <tcp_pcb_purge>
    838c:	8e01a783          	lw	a5,-1824(gp) # 20000150 <tcp_active_pcbs>
    8390:	f6f407e3          	beq	s0,a5,82fe <tcp_input+0x82a>
    8394:	8ef1aa23          	sw	a5,-1804(gp) # 20000164 <tcp_tmp_pcb>
    8398:	4681                	li	a3,0
    839a:	d3c9                	beqz	a5,831c <tcp_input+0x848>
    839c:	47d0                	lw	a2,12(a5)
    839e:	f8c406e3          	beq	s0,a2,832a <tcp_input+0x856>
    83a2:	4685                	li	a3,1
    83a4:	87b2                	mv	a5,a2
    83a6:	bfd5                	j	839a <tcp_input+0x8c6>
    83a8:	8522                	mv	a0,s0
    83aa:	da1fe0ef          	jal	ra,714a <tcp_receive>
    83ae:	000cc783          	lbu	a5,0(s9)
    83b2:	8bc1                	andi	a5,a5,16
    83b4:	c80780e3          	beqz	a5,8034 <tcp_input+0x560>
    83b8:	4c78                	lw	a4,92(s0)
    83ba:	00092783          	lw	a5,0(s2)
    83be:	c6f71be3          	bne	a4,a5,8034 <tcp_input+0x560>
    83c2:	8522                	mv	a0,s0
    83c4:	8eafb0ef          	jal	ra,34ae <tcp_pcb_purge>
    83c8:	8e01a783          	lw	a5,-1824(gp) # 20000150 <tcp_active_pcbs>
    83cc:	f2f409e3          	beq	s0,a5,82fe <tcp_input+0x82a>
    83d0:	8ef1aa23          	sw	a5,-1804(gp) # 20000164 <tcp_tmp_pcb>
    83d4:	4681                	li	a3,0
    83d6:	d3b9                	beqz	a5,831c <tcp_input+0x848>
    83d8:	47d0                	lw	a2,12(a5)
    83da:	f4c408e3          	beq	s0,a2,832a <tcp_input+0x856>
    83de:	4685                	li	a3,1
    83e0:	87b2                	mv	a5,a2
    83e2:	bfd5                	j	83d6 <tcp_input+0x902>
    83e4:	8522                	mv	a0,s0
    83e6:	d65fe0ef          	jal	ra,714a <tcp_receive>
    83ea:	000cc783          	lbu	a5,0(s9)
    83ee:	8bc1                	andi	a5,a5,16
    83f0:	c40782e3          	beqz	a5,8034 <tcp_input+0x560>
    83f4:	4c78                	lw	a4,92(s0)
    83f6:	00092783          	lw	a5,0(s2)
    83fa:	c2f71de3          	bne	a4,a5,8034 <tcp_input+0x560>
    83fe:	000a4783          	lbu	a5,0(s4)
    8402:	0107e793          	ori	a5,a5,16
    8406:	00fa0023          	sb	a5,0(s4)
    840a:	b12d                	j	8034 <tcp_input+0x560>
    840c:	8bc1                	andi	a5,a5,16
    840e:	c789                	beqz	a5,8418 <tcp_input+0x944>
    8410:	8522                	mv	a0,s0
    8412:	e54fd0ef          	jal	ra,5a66 <LwipRemoveTcpPcb>
    8416:	b991                	j	806a <tcp_input+0x596>
    8418:	07045603          	lhu	a2,112(s0)
    841c:	c619                	beqz	a2,842a <tcp_input+0x956>
    841e:	08842783          	lw	a5,136(s0)
    8422:	c781                	beqz	a5,842a <tcp_input+0x956>
    8424:	4c08                	lw	a0,24(s0)
    8426:	85a2                	mv	a1,s0
    8428:	9782                	jalr	a5
    842a:	000d2603          	lw	a2,0(s10)
    842e:	c60d                	beqz	a2,8458 <tcp_input+0x984>
    8430:	000cc783          	lbu	a5,0(s9)
    8434:	8ba1                	andi	a5,a5,8
    8436:	c789                	beqz	a5,8440 <tcp_input+0x96c>
    8438:	365c                	lbu	a5,13(a2)
    843a:	0017e793          	ori	a5,a5,1
    843e:	b65c                	sb	a5,13(a2)
    8440:	08c42783          	lw	a5,140(s0)
    8444:	4681                	li	a3,0
    8446:	85a2                	mv	a1,s0
    8448:	cb9d                	beqz	a5,847e <tcp_input+0x9aa>
    844a:	4c08                	lw	a0,24(s0)
    844c:	9782                	jalr	a5
    844e:	c509                	beqz	a0,8458 <tcp_input+0x984>
    8450:	000d2783          	lw	a5,0(s10)
    8454:	08f42223          	sw	a5,132(s0)
    8458:	000a4783          	lbu	a5,0(s4)
    845c:	0207f793          	andi	a5,a5,32
    8460:	cb89                	beqz	a5,8472 <tcp_input+0x99e>
    8462:	08c42783          	lw	a5,140(s0)
    8466:	4681                	li	a3,0
    8468:	4601                	li	a2,0
    846a:	85a2                	mv	a1,s0
    846c:	cf89                	beqz	a5,8486 <tcp_input+0x9b2>
    846e:	4c08                	lw	a0,24(s0)
    8470:	9782                	jalr	a5
    8472:	8522                	mv	a0,s0
    8474:	000ba023          	sw	zero,0(s7)
    8478:	dc3fb0ef          	jal	ra,423a <tcp_output>
    847c:	b371                	j	8208 <tcp_input+0x734>
    847e:	4501                	li	a0,0
    8480:	c44fb0ef          	jal	ra,38c4 <tcp_recv_null>
    8484:	b7e9                	j	844e <tcp_input+0x97a>
    8486:	4501                	li	a0,0
    8488:	c3cfb0ef          	jal	ra,38c4 <tcp_recv_null>
    848c:	b7dd                	j	8472 <tcp_input+0x99e>

0000848e <udp_input>:
udp_input():
    848e:	d73f72ef          	jal	t0,200 <__riscv_save_12>
    8492:	4140                	lw	s0,4(a0)
    8494:	2506                	lhu	s1,8(a0)
    8496:	892a                	mv	s2,a0
    8498:	301c                	lbu	a5,1(s0)
    849a:	2008                	lbu	a0,0(s0)
    849c:	1141                	addi	sp,sp,-16
    849e:	07a2                	slli	a5,a5,0x8
    84a0:	8d5d                	or	a0,a0,a5
    84a2:	8a2e                	mv	s4,a1
    84a4:	f9ff90ef          	jal	ra,2442 <ntohs>
    84a8:	8121                	srli	a0,a0,0x8
    84aa:	893d                	andi	a0,a0,15
    84ac:	0509                	addi	a0,a0,2
    84ae:	050a                	slli	a0,a0,0x2
    84b0:	02a4c263          	blt	s1,a0,84d4 <udp_input+0x46>
    84b4:	301c                	lbu	a5,1(s0)
    84b6:	2008                	lbu	a0,0(s0)
    84b8:	07a2                	slli	a5,a5,0x8
    84ba:	8d5d                	or	a0,a0,a5
    84bc:	f87f90ef          	jal	ra,2442 <ntohs>
    84c0:	00655593          	srli	a1,a0,0x6
    84c4:	03c5f593          	andi	a1,a1,60
    84c8:	40b005b3          	neg	a1,a1
    84cc:	854a                	mv	a0,s2
    84ce:	a23fa0ef          	jal	ra,2ef0 <pbuf_header>
    84d2:	c519                	beqz	a0,84e0 <udp_input+0x52>
    84d4:	854a                	mv	a0,s2
    84d6:	a89fa0ef          	jal	ra,2f5e <pbuf_free>
    84da:	0141                	addi	sp,sp,16
    84dc:	d61f706f          	j	23c <__riscv_restore_12>
    84e0:	00492a83          	lw	s5,4(s2)
    84e4:	01040c13          	addi	s8,s0,16
    84e8:	85d2                	mv	a1,s4
    84ea:	8562                	mv	a0,s8
    84ec:	9dffe0ef          	jal	ra,6eca <ip_addr_isbroadcast>
    84f0:	001ac783          	lbu	a5,1(s5)
    84f4:	8b2a                	mv	s6,a0
    84f6:	000ac503          	lbu	a0,0(s5)
    84fa:	07a2                	slli	a5,a5,0x8
    84fc:	8d5d                	or	a0,a0,a5
    84fe:	f45f90ef          	jal	ra,2442 <ntohs>
    8502:	003ac783          	lbu	a5,3(s5)
    8506:	8baa                	mv	s7,a0
    8508:	002ac503          	lbu	a0,2(s5)
    850c:	07a2                	slli	a5,a5,0x8
    850e:	8d5d                	or	a0,a0,a5
    8510:	f33f90ef          	jal	ra,2442 <ntohs>
    8514:	04400793          	li	a5,68
    8518:	86aa                	mv	a3,a0
    851a:	06f51d63          	bne	a0,a5,8594 <udp_input+0x106>
    851e:	04300793          	li	a5,67
    8522:	12fb9963          	bne	s7,a5,8654 <udp_input+0x1c6>
    8526:	020a2783          	lw	a5,32(s4)
    852a:	12078563          	beqz	a5,8654 <udp_input+0x1c6>
    852e:	43c4                	lw	s1,4(a5)
    8530:	12048263          	beqz	s1,8654 <udp_input+0x1c6>
    8534:	40d4                	lw	a3,4(s1)
    8536:	ce89                	beqz	a3,8550 <udp_input+0xc2>
    8538:	3458                	lbu	a4,13(s0)
    853a:	245c                	lbu	a5,12(s0)
    853c:	0722                	slli	a4,a4,0x8
    853e:	8f5d                	or	a4,a4,a5
    8540:	247c                	lbu	a5,14(s0)
    8542:	07c2                	slli	a5,a5,0x10
    8544:	8f5d                	or	a4,a4,a5
    8546:	347c                	lbu	a5,15(s0)
    8548:	07e2                	slli	a5,a5,0x18
    854a:	8fd9                	or	a5,a5,a4
    854c:	10f69463          	bne	a3,a5,8654 <udp_input+0x1c6>
    8550:	007ac783          	lbu	a5,7(s5)
    8554:	006ac703          	lbu	a4,6(s5)
    8558:	07a2                	slli	a5,a5,0x8
    855a:	8fd9                	or	a5,a5,a4
    855c:	cb99                	beqz	a5,8572 <udp_input+0xe4>
    855e:	00895703          	lhu	a4,8(s2)
    8562:	46c5                	li	a3,17
    8564:	8662                	mv	a2,s8
    8566:	00c40593          	addi	a1,s0,12
    856a:	854a                	mv	a0,s2
    856c:	b52fe0ef          	jal	ra,68be <inet_chksum_pseudo>
    8570:	f135                	bnez	a0,84d4 <udp_input+0x46>
    8572:	55e1                	li	a1,-8
    8574:	854a                	mv	a0,s2
    8576:	97bfa0ef          	jal	ra,2ef0 <pbuf_header>
    857a:	fd29                	bnez	a0,84d4 <udp_input+0x46>
    857c:	0e048c63          	beqz	s1,8674 <udp_input+0x1e6>
    8580:	4c9c                	lw	a5,24(s1)
    8582:	dba9                	beqz	a5,84d4 <udp_input+0x46>
    8584:	4cc8                	lw	a0,28(s1)
    8586:	875e                	mv	a4,s7
    8588:	00c40693          	addi	a3,s0,12
    858c:	864a                	mv	a2,s2
    858e:	85a6                	mv	a1,s1
    8590:	9782                	jalr	a5
    8592:	b7a1                	j	84da <udp_input+0x4c>
    8594:	9441a483          	lw	s1,-1724(gp) # 200001b4 <udp_pcbs>
    8598:	4d01                	li	s10,0
    859a:	4d81                	li	s11,0
    859c:	94418c93          	addi	s9,gp,-1724 # 200001b4 <udp_pcbs>
    85a0:	76c00613          	li	a2,1900
    85a4:	e489                	bnez	s1,85ae <udp_input+0x120>
    85a6:	0a0d0763          	beqz	s10,8654 <udp_input+0x1c6>
    85aa:	84ea                	mv	s1,s10
    85ac:	b755                	j	8550 <udp_input+0xc2>
    85ae:	28be                	lhu	a5,18(s1)
    85b0:	08d79c63          	bne	a5,a3,8648 <udp_input+0x1ba>
    85b4:	4098                	lw	a4,0(s1)
    85b6:	040b1563          	bnez	s6,8600 <udp_input+0x172>
    85ba:	e339                	bnez	a4,8600 <udp_input+0x172>
    85bc:	000d1663          	bnez	s10,85c8 <udp_input+0x13a>
    85c0:	289c                	lbu	a5,16(s1)
    85c2:	8b91                	andi	a5,a5,4
    85c4:	e391                	bnez	a5,85c8 <udp_input+0x13a>
    85c6:	8d26                	mv	s10,s1
    85c8:	28de                	lhu	a5,20(s1)
    85ca:	09779263          	bne	a5,s7,864e <udp_input+0x1c0>
    85ce:	40cc                	lw	a1,4(s1)
    85d0:	cd89                	beqz	a1,85ea <udp_input+0x15c>
    85d2:	3458                	lbu	a4,13(s0)
    85d4:	245c                	lbu	a5,12(s0)
    85d6:	0722                	slli	a4,a4,0x8
    85d8:	8f5d                	or	a4,a4,a5
    85da:	247c                	lbu	a5,14(s0)
    85dc:	07c2                	slli	a5,a5,0x10
    85de:	8f5d                	or	a4,a4,a5
    85e0:	347c                	lbu	a5,15(s0)
    85e2:	07e2                	slli	a5,a5,0x18
    85e4:	8fd9                	or	a5,a5,a4
    85e6:	06f59463          	bne	a1,a5,864e <udp_input+0x1c0>
    85ea:	f60d83e3          	beqz	s11,8550 <udp_input+0xc2>
    85ee:	44dc                	lw	a5,12(s1)
    85f0:	00fda623          	sw	a5,12(s11)
    85f4:	000ca783          	lw	a5,0(s9)
    85f8:	009ca023          	sw	s1,0(s9)
    85fc:	c4dc                	sw	a5,12(s1)
    85fe:	bf89                	j	8550 <udp_input+0xc2>
    8600:	381c                	lbu	a5,17(s0)
    8602:	01044983          	lbu	s3,16(s0)
    8606:	07a2                	slli	a5,a5,0x8
    8608:	0137e7b3          	or	a5,a5,s3
    860c:	01244983          	lbu	s3,18(s0)
    8610:	09c2                	slli	s3,s3,0x10
    8612:	00f9e7b3          	or	a5,s3,a5
    8616:	01344983          	lbu	s3,19(s0)
    861a:	09e2                	slli	s3,s3,0x18
    861c:	00f9e9b3          	or	s3,s3,a5
    8620:	f8e98ee3          	beq	s3,a4,85bc <udp_input+0x12e>
    8624:	f0000537          	lui	a0,0xf0000
    8628:	c636                	sw	a3,12(sp)
    862a:	e4bf90ef          	jal	ra,2474 <ntohl>
    862e:	00a9f9b3          	and	s3,s3,a0
    8632:	e0000537          	lui	a0,0xe0000
    8636:	e3ff90ef          	jal	ra,2474 <ntohl>
    863a:	46b2                	lw	a3,12(sp)
    863c:	76c00613          	li	a2,1900
    8640:	f6a98ee3          	beq	s3,a0,85bc <udp_input+0x12e>
    8644:	f60b1ce3          	bnez	s6,85bc <udp_input+0x12e>
    8648:	8da6                	mv	s11,s1
    864a:	44c4                	lw	s1,12(s1)
    864c:	bfa1                	j	85a4 <udp_input+0x116>
    864e:	fec69de3          	bne	a3,a2,8648 <udp_input+0x1ba>
    8652:	bdfd                	j	8550 <udp_input+0xc2>
    8654:	3818                	lbu	a4,17(s0)
    8656:	281c                	lbu	a5,16(s0)
    8658:	0722                	slli	a4,a4,0x8
    865a:	8f5d                	or	a4,a4,a5
    865c:	283c                	lbu	a5,18(s0)
    865e:	07c2                	slli	a5,a5,0x10
    8660:	8f5d                	or	a4,a4,a5
    8662:	383c                	lbu	a5,19(s0)
    8664:	07e2                	slli	a5,a5,0x18
    8666:	8fd9                	or	a5,a5,a4
    8668:	004a2703          	lw	a4,4(s4)
    866c:	e6f714e3          	bne	a4,a5,84d4 <udp_input+0x46>
    8670:	4481                	li	s1,0
    8672:	bdf9                	j	8550 <udp_input+0xc2>
    8674:	e60b10e3          	bnez	s6,84d4 <udp_input+0x46>
    8678:	381c                	lbu	a5,17(s0)
    867a:	2804                	lbu	s1,16(s0)
    867c:	f0000537          	lui	a0,0xf0000
    8680:	07a2                	slli	a5,a5,0x8
    8682:	8fc5                	or	a5,a5,s1
    8684:	2824                	lbu	s1,18(s0)
    8686:	04c2                	slli	s1,s1,0x10
    8688:	8fc5                	or	a5,a5,s1
    868a:	3824                	lbu	s1,19(s0)
    868c:	04e2                	slli	s1,s1,0x18
    868e:	8cdd                	or	s1,s1,a5
    8690:	de5f90ef          	jal	ra,2474 <ntohl>
    8694:	8ce9                	and	s1,s1,a0
    8696:	e0000537          	lui	a0,0xe0000
    869a:	ddbf90ef          	jal	ra,2474 <ntohl>
    869e:	e2a48be3          	beq	s1,a0,84d4 <udp_input+0x46>
    86a2:	301c                	lbu	a5,1(s0)
    86a4:	2008                	lbu	a0,0(s0)
    86a6:	07a2                	slli	a5,a5,0x8
    86a8:	8d5d                	or	a0,a0,a5
    86aa:	d99f90ef          	jal	ra,2442 <ntohs>
    86ae:	00855593          	srli	a1,a0,0x8
    86b2:	89bd                	andi	a1,a1,15
    86b4:	0589                	addi	a1,a1,2
    86b6:	058a                	slli	a1,a1,0x2
    86b8:	854a                	mv	a0,s2
    86ba:	837fa0ef          	jal	ra,2ef0 <pbuf_header>
    86be:	458d                	li	a1,3
    86c0:	854a                	mv	a0,s2
    86c2:	956fe0ef          	jal	ra,6818 <icmp_dest_unreach>
    86c6:	b539                	j	84d4 <udp_input+0x46>

000086c8 <udp_bind>:
udp_bind():
    86c8:	9441a883          	lw	a7,-1724(gp) # 200001b4 <udp_pcbs>
    86cc:	86aa                	mv	a3,a0
    86ce:	4301                	li	t1,0
    86d0:	87c6                	mv	a5,a7
    86d2:	94418813          	addi	a6,gp,-1724 # 200001b4 <udp_pcbs>
    86d6:	e79d                	bnez	a5,8704 <udp_bind+0x3c>
    86d8:	c999                	beqz	a1,86ee <udp_bind+0x26>
    86da:	3198                	lbu	a4,1(a1)
    86dc:	219c                	lbu	a5,0(a1)
    86de:	0722                	slli	a4,a4,0x8
    86e0:	8f5d                	or	a4,a4,a5
    86e2:	21bc                	lbu	a5,2(a1)
    86e4:	07c2                	slli	a5,a5,0x10
    86e6:	8f5d                	or	a4,a4,a5
    86e8:	31bc                	lbu	a5,3(a1)
    86ea:	07e2                	slli	a5,a5,0x18
    86ec:	8fd9                	or	a5,a5,a4
    86ee:	c29c                	sw	a5,0(a3)
    86f0:	c625                	beqz	a2,8758 <udp_bind+0x90>
    86f2:	aab2                	sh	a2,18(a3)
    86f4:	4501                	li	a0,0
    86f6:	00031663          	bnez	t1,8702 <udp_bind+0x3a>
    86fa:	0116a623          	sw	a7,12(a3)
    86fe:	00d82023          	sw	a3,0(a6)
    8702:	8082                	ret
    8704:	02d78b63          	beq	a5,a3,873a <udp_bind+0x72>
    8708:	2bba                	lhu	a4,18(a5)
    870a:	02c71663          	bne	a4,a2,8736 <udp_bind+0x6e>
    870e:	0007ae03          	lw	t3,0(a5)
    8712:	000e1463          	bnez	t3,871a <udp_bind+0x52>
    8716:	5555                	li	a0,-11
    8718:	8082                	ret
    871a:	ddf5                	beqz	a1,8716 <udp_bind+0x4e>
    871c:	3188                	lbu	a0,1(a1)
    871e:	2198                	lbu	a4,0(a1)
    8720:	0522                	slli	a0,a0,0x8
    8722:	8d59                	or	a0,a0,a4
    8724:	21b8                	lbu	a4,2(a1)
    8726:	0742                	slli	a4,a4,0x10
    8728:	8d59                	or	a0,a0,a4
    872a:	31b8                	lbu	a4,3(a1)
    872c:	0762                	slli	a4,a4,0x18
    872e:	8f49                	or	a4,a4,a0
    8730:	d37d                	beqz	a4,8716 <udp_bind+0x4e>
    8732:	feee02e3          	beq	t3,a4,8716 <udp_bind+0x4e>
    8736:	47dc                	lw	a5,12(a5)
    8738:	bf79                	j	86d6 <udp_bind+0xe>
    873a:	4305                	li	t1,1
    873c:	bfed                	j	8736 <udp_bind+0x6e>
    873e:	2bae                	lhu	a1,18(a5)
    8740:	00c59a63          	bne	a1,a2,8754 <udp_bind+0x8c>
    8744:	0605                	addi	a2,a2,1
    8746:	0642                	slli	a2,a2,0x10
    8748:	8241                	srli	a2,a2,0x10
    874a:	87c6                	mv	a5,a7
    874c:	d3dd                	beqz	a5,86f2 <udp_bind+0x2a>
    874e:	fee618e3          	bne	a2,a4,873e <udp_bind+0x76>
    8752:	b7d1                	j	8716 <udp_bind+0x4e>
    8754:	47dc                	lw	a5,12(a5)
    8756:	bfdd                	j	874c <udp_bind+0x84>
    8758:	6721                	lui	a4,0x8
    875a:	87c6                	mv	a5,a7
    875c:	6605                	lui	a2,0x1
    875e:	177d                	addi	a4,a4,-1
    8760:	b7f5                	j	874c <udp_bind+0x84>

00008762 <udp_sendto_if>:
udp_sendto_if():
    8762:	ab5f72ef          	jal	t0,216 <__riscv_save_4>
    8766:	293e                	lhu	a5,18(a0)
    8768:	892a                	mv	s2,a0
    876a:	89ae                	mv	s3,a1
    876c:	8ab2                	mv	s5,a2
    876e:	8b36                	mv	s6,a3
    8770:	8a3a                	mv	s4,a4
    8772:	c7ad                	beqz	a5,87dc <udp_sendto_if+0x7a>
    8774:	45a1                	li	a1,8
    8776:	854e                	mv	a0,s3
    8778:	f78fa0ef          	jal	ra,2ef0 <pbuf_header>
    877c:	84ce                	mv	s1,s3
    877e:	cd01                	beqz	a0,8796 <udp_sendto_if+0x34>
    8780:	4601                	li	a2,0
    8782:	45a1                	li	a1,8
    8784:	4505                	li	a0,1
    8786:	827fa0ef          	jal	ra,2fac <pbuf_alloc>
    878a:	84aa                	mv	s1,a0
    878c:	547d                	li	s0,-1
    878e:	cd29                	beqz	a0,87e8 <udp_sendto_if+0x86>
    8790:	85ce                	mv	a1,s3
    8792:	9e9fa0ef          	jal	ra,317a <pbuf_chain>
    8796:	01295503          	lhu	a0,18(s2)
    879a:	40c0                	lw	s0,4(s1)
    879c:	c99f90ef          	jal	ra,2434 <htons>
    87a0:	a008                	sb	a0,0(s0)
    87a2:	8121                	srli	a0,a0,0x8
    87a4:	b008                	sb	a0,1(s0)
    87a6:	855a                	mv	a0,s6
    87a8:	c8df90ef          	jal	ra,2434 <htons>
    87ac:	00092783          	lw	a5,0(s2)
    87b0:	a028                	sb	a0,2(s0)
    87b2:	8121                	srli	a0,a0,0x8
    87b4:	b028                	sb	a0,3(s0)
    87b6:	00040323          	sb	zero,6(s0)
    87ba:	000403a3          	sb	zero,7(s0)
    87be:	004a0b13          	addi	s6,s4,4
    87c2:	c795                	beqz	a5,87ee <udp_sendto_if+0x8c>
    87c4:	004a2703          	lw	a4,4(s4)
    87c8:	8b4a                	mv	s6,s2
    87ca:	02e78263          	beq	a5,a4,87ee <udp_sendto_if+0x8c>
    87ce:	545d                	li	s0,-9
    87d0:	01348c63          	beq	s1,s3,87e8 <udp_sendto_if+0x86>
    87d4:	8526                	mv	a0,s1
    87d6:	f88fa0ef          	jal	ra,2f5e <pbuf_free>
    87da:	a039                	j	87e8 <udp_sendto_if+0x86>
    87dc:	4601                	li	a2,0
    87de:	85aa                	mv	a1,a0
    87e0:	ee9ff0ef          	jal	ra,86c8 <udp_bind>
    87e4:	842a                	mv	s0,a0
    87e6:	d559                	beqz	a0,8774 <udp_sendto_if+0x12>
    87e8:	8522                	mv	a0,s0
    87ea:	a61f706f          	j	24a <__riscv_restore_4>
    87ee:	248a                	lhu	a0,8(s1)
    87f0:	c45f90ef          	jal	ra,2434 <htons>
    87f4:	a048                	sb	a0,4(s0)
    87f6:	8121                	srli	a0,a0,0x8
    87f8:	b048                	sb	a0,5(s0)
    87fa:	01094783          	lbu	a5,16(s2)
    87fe:	8b85                	andi	a5,a5,1
    8800:	ef81                	bnez	a5,8818 <udp_sendto_if+0xb6>
    8802:	249a                	lhu	a4,8(s1)
    8804:	46c5                	li	a3,17
    8806:	8656                	mv	a2,s5
    8808:	85da                	mv	a1,s6
    880a:	8526                	mv	a0,s1
    880c:	8b2fe0ef          	jal	ra,68be <inet_chksum_pseudo>
    8810:	c10d                	beqz	a0,8832 <udp_sendto_if+0xd0>
    8812:	a068                	sb	a0,6(s0)
    8814:	8121                	srli	a0,a0,0x8
    8816:	b068                	sb	a0,7(s0)
    8818:	00a94703          	lbu	a4,10(s2)
    881c:	00b94683          	lbu	a3,11(s2)
    8820:	8852                	mv	a6,s4
    8822:	47c5                	li	a5,17
    8824:	8656                	mv	a2,s5
    8826:	85da                	mv	a1,s6
    8828:	8526                	mv	a0,s1
    882a:	d0efe0ef          	jal	ra,6d38 <ip_output_if>
    882e:	842a                	mv	s0,a0
    8830:	b745                	j	87d0 <udp_sendto_if+0x6e>
    8832:	57fd                	li	a5,-1
    8834:	a07c                	sb	a5,6(s0)
    8836:	b07c                	sb	a5,7(s0)
    8838:	b7c5                	j	8818 <udp_sendto_if+0xb6>

0000883a <udp_sendto>:
udp_sendto():
    883a:	9f7f72ef          	jal	t0,230 <__riscv_save_0>
    883e:	1141                	addi	sp,sp,-16
    8840:	842a                	mv	s0,a0
    8842:	8532                	mv	a0,a2
    8844:	c62e                	sw	a1,12(sp)
    8846:	c436                	sw	a3,8(sp)
    8848:	c232                	sw	a2,4(sp)
    884a:	9eafe0ef          	jal	ra,6a34 <ip_route>
    884e:	c919                	beqz	a0,8864 <udp_sendto+0x2a>
    8850:	46a2                	lw	a3,8(sp)
    8852:	4612                	lw	a2,4(sp)
    8854:	45b2                	lw	a1,12(sp)
    8856:	872a                	mv	a4,a0
    8858:	8522                	mv	a0,s0
    885a:	f09ff0ef          	jal	ra,8762 <udp_sendto_if>
    885e:	0141                	addi	sp,sp,16
    8860:	9f5f706f          	j	254 <__riscv_restore_0>
    8864:	5571                	li	a0,-4
    8866:	bfe5                	j	885e <udp_sendto+0x24>

00008868 <udp_send>:
udp_send():
    8868:	9c9f72ef          	jal	t0,230 <__riscv_save_0>
    886c:	2956                	lhu	a3,20(a0)
    886e:	00450613          	addi	a2,a0,4 # e0000004 <_eusrstack+0xbffe0004>
    8872:	fc9ff0ef          	jal	ra,883a <udp_sendto>
    8876:	9dff706f          	j	254 <__riscv_restore_0>

0000887a <udp_connect>:
udp_connect():
    887a:	9b7f72ef          	jal	t0,230 <__riscv_save_0>
    887e:	293e                	lhu	a5,18(a0)
    8880:	842a                	mv	s0,a0
    8882:	84ae                	mv	s1,a1
    8884:	8932                	mv	s2,a2
    8886:	cbb1                	beqz	a5,88da <udp_connect+0x60>
    8888:	4781                	li	a5,0
    888a:	c899                	beqz	s1,88a0 <udp_connect+0x26>
    888c:	3098                	lbu	a4,1(s1)
    888e:	209c                	lbu	a5,0(s1)
    8890:	0722                	slli	a4,a4,0x8
    8892:	8f5d                	or	a4,a4,a5
    8894:	20bc                	lbu	a5,2(s1)
    8896:	07c2                	slli	a5,a5,0x10
    8898:	8f5d                	or	a4,a4,a5
    889a:	30bc                	lbu	a5,3(s1)
    889c:	07e2                	slli	a5,a5,0x18
    889e:	8fd9                	or	a5,a5,a4
    88a0:	2818                	lbu	a4,16(s0)
    88a2:	c05c                	sw	a5,4(s0)
    88a4:	01241a23          	sh	s2,20(s0)
    88a8:	00476713          	ori	a4,a4,4
    88ac:	a818                	sb	a4,16(s0)
    88ae:	4018                	lw	a4,0(s0)
    88b0:	ef05                	bnez	a4,88e8 <udp_connect+0x6e>
    88b2:	cf85                	beqz	a5,88ea <udp_connect+0x70>
    88b4:	00440513          	addi	a0,s0,4
    88b8:	97cfe0ef          	jal	ra,6a34 <ip_route>
    88bc:	87aa                	mv	a5,a0
    88be:	5571                	li	a0,-4
    88c0:	c395                	beqz	a5,88e4 <udp_connect+0x6a>
    88c2:	43dc                	lw	a5,4(a5)
    88c4:	c01c                	sw	a5,0(s0)
    88c6:	9441a683          	lw	a3,-1724(gp) # 200001b4 <udp_pcbs>
    88ca:	94418793          	addi	a5,gp,-1724 # 200001b4 <udp_pcbs>
    88ce:	8736                	mv	a4,a3
    88d0:	e305                	bnez	a4,88f0 <udp_connect+0x76>
    88d2:	c454                	sw	a3,12(s0)
    88d4:	c380                	sw	s0,0(a5)
    88d6:	4501                	li	a0,0
    88d8:	a031                	j	88e4 <udp_connect+0x6a>
    88da:	4601                	li	a2,0
    88dc:	85aa                	mv	a1,a0
    88de:	debff0ef          	jal	ra,86c8 <udp_bind>
    88e2:	d15d                	beqz	a0,8888 <udp_connect+0xe>
    88e4:	971f706f          	j	254 <__riscv_restore_0>
    88e8:	fff9                	bnez	a5,88c6 <udp_connect+0x4c>
    88ea:	00042023          	sw	zero,0(s0)
    88ee:	bfe1                	j	88c6 <udp_connect+0x4c>
    88f0:	fe8703e3          	beq	a4,s0,88d6 <udp_connect+0x5c>
    88f4:	4758                	lw	a4,12(a4)
    88f6:	bfe9                	j	88d0 <udp_connect+0x56>

000088f8 <udp_recv>:
udp_recv():
    88f8:	cd0c                	sw	a1,24(a0)
    88fa:	cd50                	sw	a2,28(a0)
    88fc:	8082                	ret

000088fe <udp_new>:
udp_new():
    88fe:	933f72ef          	jal	t0,230 <__riscv_save_0>
    8902:	4505                	li	a0,1
    8904:	c6cfa0ef          	jal	ra,2d70 <memp_malloc>
    8908:	842a                	mv	s0,a0
    890a:	c909                	beqz	a0,891c <udp_new+0x1e>
    890c:	02000613          	li	a2,32
    8910:	4581                	li	a1,0
    8912:	94ff70ef          	jal	ra,260 <memset>
    8916:	f8000793          	li	a5,-128
    891a:	b43c                	sb	a5,11(s0)
    891c:	8522                	mv	a0,s0
    891e:	937f706f          	j	254 <__riscv_restore_0>

00008922 <dhcp_set_state>:
dhcp_set_state():
    8922:	293c                	lbu	a5,18(a0)
    8924:	00b78563          	beq	a5,a1,892e <dhcp_set_state+0xc>
    8928:	a92c                	sb	a1,18(a0)
    892a:	000509a3          	sb	zero,19(a0)
    892e:	8082                	ret

00008930 <dhcp_option>:
dhcp_option():
    8930:	2d5e                	lhu	a5,28(a0)
    8932:	4d18                	lw	a4,24(a0)
    8934:	00f706b3          	add	a3,a4,a5
    8938:	0eb68823          	sb	a1,240(a3)
    893c:	00278693          	addi	a3,a5,2
    8940:	0785                	addi	a5,a5,1
    8942:	07c2                	slli	a5,a5,0x10
    8944:	83c1                	srli	a5,a5,0x10
    8946:	ad56                	sh	a3,28(a0)
    8948:	97ba                	add	a5,a5,a4
    894a:	0ec78823          	sb	a2,240(a5)
    894e:	8082                	ret

00008950 <dhcp_option_byte>:
dhcp_option_byte():
    8950:	2d5a                	lhu	a4,28(a0)
    8952:	4d1c                	lw	a5,24(a0)
    8954:	00170693          	addi	a3,a4,1 # 8001 <tcp_input+0x52d>
    8958:	ad56                	sh	a3,28(a0)
    895a:	97ba                	add	a5,a5,a4
    895c:	0eb78823          	sb	a1,240(a5)
    8960:	8082                	ret

00008962 <dhcp_option_long>:
dhcp_option_long():
    8962:	2d5e                	lhu	a5,28(a0)
    8964:	4d18                	lw	a4,24(a0)
    8966:	0185d613          	srli	a2,a1,0x18
    896a:	00f706b3          	add	a3,a4,a5
    896e:	0ec68823          	sb	a2,240(a3)
    8972:	00178693          	addi	a3,a5,1
    8976:	06c2                	slli	a3,a3,0x10
    8978:	82c1                	srli	a3,a3,0x10
    897a:	96ba                	add	a3,a3,a4
    897c:	0105d613          	srli	a2,a1,0x10
    8980:	0ec68823          	sb	a2,240(a3)
    8984:	00278693          	addi	a3,a5,2
    8988:	06c2                	slli	a3,a3,0x10
    898a:	82c1                	srli	a3,a3,0x10
    898c:	96ba                	add	a3,a3,a4
    898e:	0085d613          	srli	a2,a1,0x8
    8992:	0ec68823          	sb	a2,240(a3)
    8996:	00478693          	addi	a3,a5,4
    899a:	078d                	addi	a5,a5,3
    899c:	07c2                	slli	a5,a5,0x10
    899e:	83c1                	srli	a5,a5,0x10
    89a0:	ad56                	sh	a3,28(a0)
    89a2:	97ba                	add	a5,a5,a4
    89a4:	0eb78823          	sb	a1,240(a5)
    89a8:	8082                	ret

000089aa <dhcp_option_trailer>:
dhcp_option_trailer():
    89aa:	c115                	beqz	a0,89ce <dhcp_option_trailer+0x24>
    89ac:	2d5e                	lhu	a5,28(a0)
    89ae:	4d18                	lw	a4,24(a0)
    89b0:	04300613          	li	a2,67
    89b4:	00178693          	addi	a3,a5,1
    89b8:	ad56                	sh	a3,28(a0)
    89ba:	97ba                	add	a5,a5,a4
    89bc:	56fd                	li	a3,-1
    89be:	0ed78823          	sb	a3,240(a5)
    89c2:	2d5e                	lhu	a5,28(a0)
    89c4:	00f67663          	bgeu	a2,a5,89d0 <dhcp_option_trailer+0x26>
    89c8:	0037f693          	andi	a3,a5,3
    89cc:	e291                	bnez	a3,89d0 <dhcp_option_trailer+0x26>
    89ce:	8082                	ret
    89d0:	00178693          	addi	a3,a5,1
    89d4:	ad56                	sh	a3,28(a0)
    89d6:	97ba                	add	a5,a5,a4
    89d8:	0e078823          	sb	zero,240(a5)
    89dc:	b7dd                	j	89c2 <dhcp_option_trailer+0x18>

000089de <dhcp_create_request>:
dhcp_create_request():
    89de:	16050c63          	beqz	a0,8b56 <dhcp_create_request+0x178>
    89e2:	84ff72ef          	jal	t0,230 <__riscv_save_0>
    89e6:	02052903          	lw	s2,32(a0)
    89ea:	57dd                	li	a5,-9
    89ec:	16090263          	beqz	s2,8b50 <dhcp_create_request+0x172>
    89f0:	84aa                	mv	s1,a0
    89f2:	4601                	li	a2,0
    89f4:	13400593          	li	a1,308
    89f8:	4501                	li	a0,0
    89fa:	db2fa0ef          	jal	ra,2fac <pbuf_alloc>
    89fe:	00a92a23          	sw	a0,20(s2)
    8a02:	872a                	mv	a4,a0
    8a04:	57fd                	li	a5,-1
    8a06:	14050563          	beqz	a0,8b50 <dhcp_create_request+0x172>
    8a0a:	01394683          	lbu	a3,19(s2)
    8a0e:	83818793          	addi	a5,gp,-1992 # 200000a8 <xid.6638>
    8a12:	e681                	bnez	a3,8a1a <dhcp_create_request+0x3c>
    8a14:	4394                	lw	a3,0(a5)
    8a16:	0685                	addi	a3,a3,1
    8a18:	c394                	sw	a3,0(a5)
    8a1a:	4340                	lw	s0,4(a4)
    8a1c:	4388                	lw	a0,0(a5)
    8a1e:	4785                	li	a5,1
    8a20:	00892c23          	sw	s0,24(s2)
    8a24:	00a92023          	sw	a0,0(s2)
    8a28:	a01c                	sb	a5,0(s0)
    8a2a:	b01c                	sb	a5,1(s0)
    8a2c:	4799                	li	a5,6
    8a2e:	a03c                	sb	a5,2(s0)
    8a30:	000401a3          	sb	zero,3(s0)
    8a34:	a1df90ef          	jal	ra,2450 <htonl>
    8a38:	00855793          	srli	a5,a0,0x8
    8a3c:	a048                	sb	a0,4(s0)
    8a3e:	b05c                	sb	a5,5(s0)
    8a40:	01055793          	srli	a5,a0,0x10
    8a44:	8161                	srli	a0,a0,0x18
    8a46:	a07c                	sb	a5,6(s0)
    8a48:	b068                	sb	a0,7(s0)
    8a4a:	01892403          	lw	s0,24(s2)
    8a4e:	4729                	li	a4,10
    8a50:	00040423          	sb	zero,8(s0)
    8a54:	000404a3          	sb	zero,9(s0)
    8a58:	00040523          	sb	zero,10(s0)
    8a5c:	000405a3          	sb	zero,11(s0)
    8a60:	00040623          	sb	zero,12(s0)
    8a64:	000406a3          	sb	zero,13(s0)
    8a68:	00040723          	sb	zero,14(s0)
    8a6c:	000407a3          	sb	zero,15(s0)
    8a70:	01294783          	lbu	a5,18(s2)
    8a74:	00e78863          	beq	a5,a4,8a84 <dhcp_create_request+0xa6>
    8a78:	17f1                	addi	a5,a5,-4
    8a7a:	0ff7f793          	andi	a5,a5,255
    8a7e:	4705                	li	a4,1
    8a80:	00f76a63          	bltu	a4,a5,8a94 <dhcp_create_request+0xb6>
    8a84:	20dc                	lbu	a5,4(s1)
    8a86:	a45c                	sb	a5,12(s0)
    8a88:	30dc                	lbu	a5,5(s1)
    8a8a:	b45c                	sb	a5,13(s0)
    8a8c:	20fc                	lbu	a5,6(s1)
    8a8e:	a47c                	sb	a5,14(s0)
    8a90:	30fc                	lbu	a5,7(s1)
    8a92:	b47c                	sb	a5,15(s0)
    8a94:	00040823          	sb	zero,16(s0)
    8a98:	000408a3          	sb	zero,17(s0)
    8a9c:	00040923          	sb	zero,18(s0)
    8aa0:	000409a3          	sb	zero,19(s0)
    8aa4:	00040a23          	sb	zero,20(s0)
    8aa8:	00040aa3          	sb	zero,21(s0)
    8aac:	00040b23          	sb	zero,22(s0)
    8ab0:	00040ba3          	sb	zero,23(s0)
    8ab4:	00040c23          	sb	zero,24(s0)
    8ab8:	00040ca3          	sb	zero,25(s0)
    8abc:	00040d23          	sb	zero,26(s0)
    8ac0:	00040da3          	sb	zero,27(s0)
    8ac4:	02a4c583          	lbu	a1,42(s1)
    8ac8:	4781                	li	a5,0
    8aca:	4641                	li	a2,16
    8acc:	01079713          	slli	a4,a5,0x10
    8ad0:	8341                	srli	a4,a4,0x10
    8ad2:	4681                	li	a3,0
    8ad4:	00b77663          	bgeu	a4,a1,8ae0 <dhcp_create_request+0x102>
    8ad8:	00f48733          	add	a4,s1,a5
    8adc:	02b74683          	lbu	a3,43(a4)
    8ae0:	00f40733          	add	a4,s0,a5
    8ae4:	af54                	sb	a3,28(a4)
    8ae6:	0785                	addi	a5,a5,1
    8ae8:	fec792e3          	bne	a5,a2,8acc <dhcp_create_request+0xee>
    8aec:	02c40713          	addi	a4,s0,44
    8af0:	06c40793          	addi	a5,s0,108
    8af4:	00070023          	sb	zero,0(a4)
    8af8:	0705                	addi	a4,a4,1
    8afa:	fee79de3          	bne	a5,a4,8af4 <dhcp_create_request+0x116>
    8afe:	0ec40713          	addi	a4,s0,236
    8b02:	00078023          	sb	zero,0(a5)
    8b06:	0785                	addi	a5,a5,1
    8b08:	fee79de3          	bne	a5,a4,8b02 <dhcp_create_request+0x124>
    8b0c:	63825537          	lui	a0,0x63825
    8b10:	36350513          	addi	a0,a0,867 # 63825363 <_eusrstack+0x43805363>
    8b14:	93df90ef          	jal	ra,2450 <htonl>
    8b18:	00855793          	srli	a5,a0,0x8
    8b1c:	0ea40623          	sb	a0,236(s0)
    8b20:	0ef406a3          	sb	a5,237(s0)
    8b24:	01892603          	lw	a2,24(s2)
    8b28:	01055793          	srli	a5,a0,0x10
    8b2c:	8161                	srli	a0,a0,0x18
    8b2e:	0ef40723          	sb	a5,238(s0)
    8b32:	0ea407a3          	sb	a0,239(s0)
    8b36:	00091e23          	sh	zero,28(s2)
    8b3a:	4781                	li	a5,0
    8b3c:	04400713          	li	a4,68
    8b40:	00f606b3          	add	a3,a2,a5
    8b44:	0ef68823          	sb	a5,240(a3)
    8b48:	0785                	addi	a5,a5,1
    8b4a:	fee79be3          	bne	a5,a4,8b40 <dhcp_create_request+0x162>
    8b4e:	4781                	li	a5,0
    8b50:	853e                	mv	a0,a5
    8b52:	f02f706f          	j	254 <__riscv_restore_0>
    8b56:	57d9                	li	a5,-10
    8b58:	853e                	mv	a0,a5
    8b5a:	8082                	ret

00008b5c <dhcp_delete_request>:
dhcp_delete_request():
    8b5c:	cd19                	beqz	a0,8b7a <dhcp_delete_request+0x1e>
    8b5e:	ed2f72ef          	jal	t0,230 <__riscv_save_0>
    8b62:	5100                	lw	s0,32(a0)
    8b64:	c809                	beqz	s0,8b76 <dhcp_delete_request+0x1a>
    8b66:	4848                	lw	a0,20(s0)
    8b68:	c119                	beqz	a0,8b6e <dhcp_delete_request+0x12>
    8b6a:	bf4fa0ef          	jal	ra,2f5e <pbuf_free>
    8b6e:	00042a23          	sw	zero,20(s0)
    8b72:	00042c23          	sw	zero,24(s0)
    8b76:	edef706f          	j	254 <__riscv_restore_0>
    8b7a:	8082                	ret

00008b7c <dhcp_arp_reply>:
dhcp_arp_reply():
    8b7c:	18050163          	beqz	a0,8cfe <dhcp_arp_reply+0x182>
    8b80:	eb0f72ef          	jal	t0,230 <__riscv_save_0>
    8b84:	5100                	lw	s0,32(a0)
    8b86:	16040a63          	beqz	s0,8cfa <dhcp_arp_reply+0x17e>
    8b8a:	2838                	lbu	a4,18(s0)
    8b8c:	47a1                	li	a5,8
    8b8e:	16f71663          	bne	a4,a5,8cfa <dhcp_arp_reply+0x17e>
    8b92:	3198                	lbu	a4,1(a1)
    8b94:	219c                	lbu	a5,0(a1)
    8b96:	0722                	slli	a4,a4,0x8
    8b98:	8f5d                	or	a4,a4,a5
    8b9a:	21bc                	lbu	a5,2(a1)
    8b9c:	07c2                	slli	a5,a5,0x10
    8b9e:	8f5d                	or	a4,a4,a5
    8ba0:	31bc                	lbu	a5,3(a1)
    8ba2:	07e2                	slli	a5,a5,0x18
    8ba4:	8fd9                	or	a5,a5,a4
    8ba6:	5418                	lw	a4,40(s0)
    8ba8:	14e79963          	bne	a5,a4,8cfa <dhcp_arp_reply+0x17e>
    8bac:	84aa                	mv	s1,a0
    8bae:	45b1                	li	a1,12
    8bb0:	8522                	mv	a0,s0
    8bb2:	d71ff0ef          	jal	ra,8922 <dhcp_set_state>
    8bb6:	8526                	mv	a0,s1
    8bb8:	e27ff0ef          	jal	ra,89de <dhcp_create_request>
    8bbc:	12051a63          	bnez	a0,8cf0 <dhcp_arp_reply+0x174>
    8bc0:	4605                	li	a2,1
    8bc2:	03500593          	li	a1,53
    8bc6:	8522                	mv	a0,s0
    8bc8:	d69ff0ef          	jal	ra,8930 <dhcp_option>
    8bcc:	4591                	li	a1,4
    8bce:	8522                	mv	a0,s0
    8bd0:	d81ff0ef          	jal	ra,8950 <dhcp_option_byte>
    8bd4:	4611                	li	a2,4
    8bd6:	03200593          	li	a1,50
    8bda:	8522                	mv	a0,s0
    8bdc:	d55ff0ef          	jal	ra,8930 <dhcp_option>
    8be0:	5408                	lw	a0,40(s0)
    8be2:	893f90ef          	jal	ra,2474 <ntohl>
    8be6:	85aa                	mv	a1,a0
    8be8:	8522                	mv	a0,s0
    8bea:	d79ff0ef          	jal	ra,8962 <dhcp_option_long>
    8bee:	4611                	li	a2,4
    8bf0:	03600593          	li	a1,54
    8bf4:	8522                	mv	a0,s0
    8bf6:	d3bff0ef          	jal	ra,8930 <dhcp_option>
    8bfa:	5048                	lw	a0,36(s0)
    8bfc:	879f90ef          	jal	ra,2474 <ntohl>
    8c00:	85aa                	mv	a1,a0
    8c02:	8522                	mv	a0,s0
    8c04:	d5fff0ef          	jal	ra,8962 <dhcp_option_long>
    8c08:	461d                	li	a2,7
    8c0a:	03d00593          	li	a1,61
    8c0e:	8522                	mv	a0,s0
    8c10:	d21ff0ef          	jal	ra,8930 <dhcp_option>
    8c14:	2c5e                	lhu	a5,28(s0)
    8c16:	4c18                	lw	a4,24(s0)
    8c18:	4605                	li	a2,1
    8c1a:	8522                	mv	a0,s0
    8c1c:	00f706b3          	add	a3,a4,a5
    8c20:	0ec68823          	sb	a2,240(a3)
    8c24:	00278613          	addi	a2,a5,2
    8c28:	0642                	slli	a2,a2,0x10
    8c2a:	8241                	srli	a2,a2,0x10
    8c2c:	ac52                	sh	a2,28(s0)
    8c2e:	00178693          	addi	a3,a5,1
    8c32:	02b4c583          	lbu	a1,43(s1)
    8c36:	06c2                	slli	a3,a3,0x10
    8c38:	82c1                	srli	a3,a3,0x10
    8c3a:	96ba                	add	a3,a3,a4
    8c3c:	0eb68823          	sb	a1,240(a3)
    8c40:	00378693          	addi	a3,a5,3
    8c44:	06c2                	slli	a3,a3,0x10
    8c46:	82c1                	srli	a3,a3,0x10
    8c48:	ac56                	sh	a3,28(s0)
    8c4a:	02c4c583          	lbu	a1,44(s1)
    8c4e:	963a                	add	a2,a2,a4
    8c50:	96ba                	add	a3,a3,a4
    8c52:	0eb60823          	sb	a1,240(a2) # 10f0 <uart_tx+0x12e>
    8c56:	00478613          	addi	a2,a5,4
    8c5a:	0642                	slli	a2,a2,0x10
    8c5c:	8241                	srli	a2,a2,0x10
    8c5e:	ac52                	sh	a2,28(s0)
    8c60:	02d4c583          	lbu	a1,45(s1)
    8c64:	963a                	add	a2,a2,a4
    8c66:	0eb68823          	sb	a1,240(a3)
    8c6a:	00578693          	addi	a3,a5,5
    8c6e:	06c2                	slli	a3,a3,0x10
    8c70:	82c1                	srli	a3,a3,0x10
    8c72:	ac56                	sh	a3,28(s0)
    8c74:	02e4c583          	lbu	a1,46(s1)
    8c78:	96ba                	add	a3,a3,a4
    8c7a:	0eb60823          	sb	a1,240(a2)
    8c7e:	00678613          	addi	a2,a5,6
    8c82:	0642                	slli	a2,a2,0x10
    8c84:	8241                	srli	a2,a2,0x10
    8c86:	ac52                	sh	a2,28(s0)
    8c88:	02f4c583          	lbu	a1,47(s1)
    8c8c:	079d                	addi	a5,a5,7
    8c8e:	9732                	add	a4,a4,a2
    8c90:	0eb68823          	sb	a1,240(a3)
    8c94:	ac5e                	sh	a5,28(s0)
    8c96:	0304c783          	lbu	a5,48(s1)
    8c9a:	0ef70823          	sb	a5,240(a4)
    8c9e:	d0dff0ef          	jal	ra,89aa <dhcp_option_trailer>
    8ca2:	2c4e                	lhu	a1,28(s0)
    8ca4:	4848                	lw	a0,20(s0)
    8ca6:	0f058593          	addi	a1,a1,240
    8caa:	05c2                	slli	a1,a1,0x10
    8cac:	81c1                	srli	a1,a1,0x10
    8cae:	c3cfa0ef          	jal	ra,30ea <pbuf_realloc>
    8cb2:	02844703          	lbu	a4,40(s0)
    8cb6:	4c1c                	lw	a5,24(s0)
    8cb8:	484c                	lw	a1,20(s0)
    8cba:	4048                	lw	a0,4(s0)
    8cbc:	a7d8                	sb	a4,12(a5)
    8cbe:	02944703          	lbu	a4,41(s0)
    8cc2:	0044a903          	lw	s2,4(s1)
    8cc6:	b7d8                	sb	a4,13(a5)
    8cc8:	02a44703          	lbu	a4,42(s0)
    8ccc:	04300693          	li	a3,67
    8cd0:	85c18613          	addi	a2,gp,-1956 # 200000cc <ip_addr_broadcast>
    8cd4:	a7f8                	sb	a4,14(a5)
    8cd6:	02b44703          	lbu	a4,43(s0)
    8cda:	b7f8                	sb	a4,15(a5)
    8cdc:	0004a223          	sw	zero,4(s1)
    8ce0:	8726                	mv	a4,s1
    8ce2:	a81ff0ef          	jal	ra,8762 <udp_sendto_if>
    8ce6:	8526                	mv	a0,s1
    8ce8:	0124a223          	sw	s2,4(s1)
    8cec:	e71ff0ef          	jal	ra,8b5c <dhcp_delete_request>
    8cf0:	383c                	lbu	a5,19(s0)
    8cf2:	0785                	addi	a5,a5,1
    8cf4:	b83c                	sb	a5,19(s0)
    8cf6:	4785                	li	a5,1
    8cf8:	ac7e                	sh	a5,30(s0)
    8cfa:	d5af706f          	j	254 <__riscv_restore_0>
    8cfe:	8082                	ret

00008d00 <memcpy>:
memcpy():
    8d00:	00a5c7b3          	xor	a5,a1,a0
    8d04:	8b8d                	andi	a5,a5,3
    8d06:	00c50733          	add	a4,a0,a2
    8d0a:	e781                	bnez	a5,8d12 <memcpy+0x12>
    8d0c:	478d                	li	a5,3
    8d0e:	00c7ee63          	bltu	a5,a2,8d2a <memcpy+0x2a>
    8d12:	87aa                	mv	a5,a0
    8d14:	0ae57063          	bgeu	a0,a4,8db4 <memcpy+0xb4>
    8d18:	0005c683          	lbu	a3,0(a1)
    8d1c:	0785                	addi	a5,a5,1
    8d1e:	0585                	addi	a1,a1,1
    8d20:	fed78fa3          	sb	a3,-1(a5)
    8d24:	fee7eae3          	bltu	a5,a4,8d18 <memcpy+0x18>
    8d28:	8082                	ret
    8d2a:	00357693          	andi	a3,a0,3
    8d2e:	87aa                	mv	a5,a0
    8d30:	ca91                	beqz	a3,8d44 <memcpy+0x44>
    8d32:	0005c683          	lbu	a3,0(a1)
    8d36:	0785                	addi	a5,a5,1
    8d38:	0585                	addi	a1,a1,1
    8d3a:	fed78fa3          	sb	a3,-1(a5)
    8d3e:	0037f693          	andi	a3,a5,3
    8d42:	b7fd                	j	8d30 <memcpy+0x30>
    8d44:	ffc77693          	andi	a3,a4,-4
    8d48:	fe068613          	addi	a2,a3,-32
    8d4c:	06c7f063          	bgeu	a5,a2,8dac <memcpy+0xac>
    8d50:	0005a383          	lw	t2,0(a1)
    8d54:	0045a283          	lw	t0,4(a1)
    8d58:	0085af83          	lw	t6,8(a1)
    8d5c:	00c5af03          	lw	t5,12(a1)
    8d60:	0105ae83          	lw	t4,16(a1)
    8d64:	0145ae03          	lw	t3,20(a1)
    8d68:	0185a303          	lw	t1,24(a1)
    8d6c:	01c5a883          	lw	a7,28(a1)
    8d70:	02458593          	addi	a1,a1,36
    8d74:	0077a023          	sw	t2,0(a5)
    8d78:	ffc5a803          	lw	a6,-4(a1)
    8d7c:	0057a223          	sw	t0,4(a5)
    8d80:	01f7a423          	sw	t6,8(a5)
    8d84:	01e7a623          	sw	t5,12(a5)
    8d88:	01d7a823          	sw	t4,16(a5)
    8d8c:	01c7aa23          	sw	t3,20(a5)
    8d90:	0067ac23          	sw	t1,24(a5)
    8d94:	0117ae23          	sw	a7,28(a5)
    8d98:	02478793          	addi	a5,a5,36
    8d9c:	ff07ae23          	sw	a6,-4(a5)
    8da0:	b775                	j	8d4c <memcpy+0x4c>
    8da2:	4190                	lw	a2,0(a1)
    8da4:	0791                	addi	a5,a5,4
    8da6:	0591                	addi	a1,a1,4
    8da8:	fec7ae23          	sw	a2,-4(a5)
    8dac:	fed7ebe3          	bltu	a5,a3,8da2 <memcpy+0xa2>
    8db0:	f6e7e4e3          	bltu	a5,a4,8d18 <memcpy+0x18>
    8db4:	8082                	ret

00008db6 <iprintf>:
printf():
    8db6:	7139                	addi	sp,sp,-64
    8db8:	da3e                	sw	a5,52(sp)
    8dba:	d22e                	sw	a1,36(sp)
    8dbc:	d432                	sw	a2,40(sp)
    8dbe:	d636                	sw	a3,44(sp)
    8dc0:	d83a                	sw	a4,48(sp)
    8dc2:	dc42                	sw	a6,56(sp)
    8dc4:	de46                	sw	a7,60(sp)
    8dc6:	83c18793          	addi	a5,gp,-1988 # 200000ac <_impure_ptr>
    8dca:	cc22                	sw	s0,24(sp)
    8dcc:	4380                	lw	s0,0(a5)
    8dce:	ca26                	sw	s1,20(sp)
    8dd0:	ce06                	sw	ra,28(sp)
    8dd2:	84aa                	mv	s1,a0
    8dd4:	c409                	beqz	s0,8dde <iprintf+0x28>
    8dd6:	4c1c                	lw	a5,24(s0)
    8dd8:	e399                	bnez	a5,8dde <iprintf+0x28>
    8dda:	8522                	mv	a0,s0
    8ddc:	2b2d                	jal	9316 <__sinit>
    8dde:	440c                	lw	a1,8(s0)
    8de0:	1054                	addi	a3,sp,36
    8de2:	8626                	mv	a2,s1
    8de4:	8522                	mv	a0,s0
    8de6:	c636                	sw	a3,12(sp)
    8de8:	18b000ef          	jal	ra,9772 <_vfiprintf_r>
    8dec:	40f2                	lw	ra,28(sp)
    8dee:	4462                	lw	s0,24(sp)
    8df0:	44d2                	lw	s1,20(sp)
    8df2:	6121                	addi	sp,sp,64
    8df4:	8082                	ret

00008df6 <_puts_r>:
_puts_r():
    8df6:	1101                	addi	sp,sp,-32
    8df8:	ca26                	sw	s1,20(sp)
    8dfa:	c84a                	sw	s2,16(sp)
    8dfc:	ce06                	sw	ra,28(sp)
    8dfe:	cc22                	sw	s0,24(sp)
    8e00:	c64e                	sw	s3,12(sp)
    8e02:	c452                	sw	s4,8(sp)
    8e04:	84aa                	mv	s1,a0
    8e06:	892e                	mv	s2,a1
    8e08:	c501                	beqz	a0,8e10 <_puts_r+0x1a>
    8e0a:	4d1c                	lw	a5,24(a0)
    8e0c:	e391                	bnez	a5,8e10 <_puts_r+0x1a>
    8e0e:	2321                	jal	9316 <__sinit>
    8e10:	4c9c                	lw	a5,24(s1)
    8e12:	4480                	lw	s0,8(s1)
    8e14:	e399                	bnez	a5,8e1a <_puts_r+0x24>
    8e16:	8526                	mv	a0,s1
    8e18:	29fd                	jal	9316 <__sinit>
    8e1a:	00001797          	auipc	a5,0x1
    8e1e:	3aa78793          	addi	a5,a5,938 # a1c4 <__sf_fake_stdin>
    8e22:	02f41c63          	bne	s0,a5,8e5a <_puts_r+0x64>
    8e26:	40c0                	lw	s0,4(s1)
    8e28:	00c45783          	lhu	a5,12(s0)
    8e2c:	8ba1                	andi	a5,a5,8
    8e2e:	c7b1                	beqz	a5,8e7a <_puts_r+0x84>
    8e30:	481c                	lw	a5,16(s0)
    8e32:	c7a1                	beqz	a5,8e7a <_puts_r+0x84>
    8e34:	59fd                	li	s3,-1
    8e36:	4a29                	li	s4,10
    8e38:	441c                	lw	a5,8(s0)
    8e3a:	00094583          	lbu	a1,0(s2)
    8e3e:	17fd                	addi	a5,a5,-1
    8e40:	e9b1                	bnez	a1,8e94 <_puts_r+0x9e>
    8e42:	c41c                	sw	a5,8(s0)
    8e44:	0607de63          	bgez	a5,8ec0 <_puts_r+0xca>
    8e48:	8622                	mv	a2,s0
    8e4a:	45a9                	li	a1,10
    8e4c:	8526                	mv	a0,s1
    8e4e:	2045                	jal	8eee <__swbuf_r>
    8e50:	57fd                	li	a5,-1
    8e52:	02f50863          	beq	a0,a5,8e82 <_puts_r+0x8c>
    8e56:	4529                	li	a0,10
    8e58:	a035                	j	8e84 <_puts_r+0x8e>
    8e5a:	00001797          	auipc	a5,0x1
    8e5e:	38a78793          	addi	a5,a5,906 # a1e4 <__sf_fake_stdout>
    8e62:	00f41463          	bne	s0,a5,8e6a <_puts_r+0x74>
    8e66:	4480                	lw	s0,8(s1)
    8e68:	b7c1                	j	8e28 <_puts_r+0x32>
    8e6a:	00001797          	auipc	a5,0x1
    8e6e:	33a78793          	addi	a5,a5,826 # a1a4 <__sf_fake_stderr>
    8e72:	faf41be3          	bne	s0,a5,8e28 <_puts_r+0x32>
    8e76:	44c0                	lw	s0,12(s1)
    8e78:	bf45                	j	8e28 <_puts_r+0x32>
    8e7a:	85a2                	mv	a1,s0
    8e7c:	8526                	mv	a0,s1
    8e7e:	2a05                	jal	8fae <__swsetup_r>
    8e80:	d955                	beqz	a0,8e34 <_puts_r+0x3e>
    8e82:	557d                	li	a0,-1
    8e84:	40f2                	lw	ra,28(sp)
    8e86:	4462                	lw	s0,24(sp)
    8e88:	44d2                	lw	s1,20(sp)
    8e8a:	4942                	lw	s2,16(sp)
    8e8c:	49b2                	lw	s3,12(sp)
    8e8e:	4a22                	lw	s4,8(sp)
    8e90:	6105                	addi	sp,sp,32
    8e92:	8082                	ret
    8e94:	c41c                	sw	a5,8(s0)
    8e96:	0905                	addi	s2,s2,1
    8e98:	0007d763          	bgez	a5,8ea6 <_puts_r+0xb0>
    8e9c:	4c18                	lw	a4,24(s0)
    8e9e:	00e7cb63          	blt	a5,a4,8eb4 <_puts_r+0xbe>
    8ea2:	01458963          	beq	a1,s4,8eb4 <_puts_r+0xbe>
    8ea6:	401c                	lw	a5,0(s0)
    8ea8:	00178713          	addi	a4,a5,1
    8eac:	c018                	sw	a4,0(s0)
    8eae:	00b78023          	sb	a1,0(a5)
    8eb2:	b759                	j	8e38 <_puts_r+0x42>
    8eb4:	8622                	mv	a2,s0
    8eb6:	8526                	mv	a0,s1
    8eb8:	281d                	jal	8eee <__swbuf_r>
    8eba:	f7351fe3          	bne	a0,s3,8e38 <_puts_r+0x42>
    8ebe:	b7d1                	j	8e82 <_puts_r+0x8c>
    8ec0:	401c                	lw	a5,0(s0)
    8ec2:	00178713          	addi	a4,a5,1
    8ec6:	c018                	sw	a4,0(s0)
    8ec8:	4729                	li	a4,10
    8eca:	00e78023          	sb	a4,0(a5)
    8ece:	b761                	j	8e56 <_puts_r+0x60>

00008ed0 <puts>:
puts():
    8ed0:	83c18793          	addi	a5,gp,-1988 # 200000ac <_impure_ptr>
    8ed4:	85aa                	mv	a1,a0
    8ed6:	4388                	lw	a0,0(a5)
    8ed8:	f1fff06f          	j	8df6 <_puts_r>

00008edc <strcpy>:
strcpy():
    8edc:	87aa                	mv	a5,a0
    8ede:	0005c703          	lbu	a4,0(a1)
    8ee2:	0785                	addi	a5,a5,1
    8ee4:	0585                	addi	a1,a1,1
    8ee6:	fee78fa3          	sb	a4,-1(a5)
    8eea:	fb75                	bnez	a4,8ede <strcpy+0x2>
    8eec:	8082                	ret

00008eee <__swbuf_r>:
__swbuf_r():
    8eee:	1101                	addi	sp,sp,-32
    8ef0:	cc22                	sw	s0,24(sp)
    8ef2:	ca26                	sw	s1,20(sp)
    8ef4:	c84a                	sw	s2,16(sp)
    8ef6:	ce06                	sw	ra,28(sp)
    8ef8:	c64e                	sw	s3,12(sp)
    8efa:	84aa                	mv	s1,a0
    8efc:	892e                	mv	s2,a1
    8efe:	8432                	mv	s0,a2
    8f00:	c501                	beqz	a0,8f08 <__swbuf_r+0x1a>
    8f02:	4d1c                	lw	a5,24(a0)
    8f04:	e391                	bnez	a5,8f08 <__swbuf_r+0x1a>
    8f06:	2901                	jal	9316 <__sinit>
    8f08:	00001797          	auipc	a5,0x1
    8f0c:	2bc78793          	addi	a5,a5,700 # a1c4 <__sf_fake_stdin>
    8f10:	06f41963          	bne	s0,a5,8f82 <__swbuf_r+0x94>
    8f14:	40c0                	lw	s0,4(s1)
    8f16:	4c1c                	lw	a5,24(s0)
    8f18:	c41c                	sw	a5,8(s0)
    8f1a:	00c45783          	lhu	a5,12(s0)
    8f1e:	8ba1                	andi	a5,a5,8
    8f20:	c3c9                	beqz	a5,8fa2 <__swbuf_r+0xb4>
    8f22:	481c                	lw	a5,16(s0)
    8f24:	cfbd                	beqz	a5,8fa2 <__swbuf_r+0xb4>
    8f26:	481c                	lw	a5,16(s0)
    8f28:	4008                	lw	a0,0(s0)
    8f2a:	0ff97993          	andi	s3,s2,255
    8f2e:	0ff97913          	andi	s2,s2,255
    8f32:	8d1d                	sub	a0,a0,a5
    8f34:	485c                	lw	a5,20(s0)
    8f36:	00f54663          	blt	a0,a5,8f42 <__swbuf_r+0x54>
    8f3a:	85a2                	mv	a1,s0
    8f3c:	8526                	mv	a0,s1
    8f3e:	2c65                	jal	91f6 <_fflush_r>
    8f40:	e52d                	bnez	a0,8faa <__swbuf_r+0xbc>
    8f42:	441c                	lw	a5,8(s0)
    8f44:	0505                	addi	a0,a0,1
    8f46:	17fd                	addi	a5,a5,-1
    8f48:	c41c                	sw	a5,8(s0)
    8f4a:	401c                	lw	a5,0(s0)
    8f4c:	00178713          	addi	a4,a5,1
    8f50:	c018                	sw	a4,0(s0)
    8f52:	01378023          	sb	s3,0(a5)
    8f56:	485c                	lw	a5,20(s0)
    8f58:	00a78963          	beq	a5,a0,8f6a <__swbuf_r+0x7c>
    8f5c:	00c45783          	lhu	a5,12(s0)
    8f60:	8b85                	andi	a5,a5,1
    8f62:	cb81                	beqz	a5,8f72 <__swbuf_r+0x84>
    8f64:	47a9                	li	a5,10
    8f66:	00f91663          	bne	s2,a5,8f72 <__swbuf_r+0x84>
    8f6a:	85a2                	mv	a1,s0
    8f6c:	8526                	mv	a0,s1
    8f6e:	2461                	jal	91f6 <_fflush_r>
    8f70:	ed0d                	bnez	a0,8faa <__swbuf_r+0xbc>
    8f72:	40f2                	lw	ra,28(sp)
    8f74:	4462                	lw	s0,24(sp)
    8f76:	854a                	mv	a0,s2
    8f78:	44d2                	lw	s1,20(sp)
    8f7a:	4942                	lw	s2,16(sp)
    8f7c:	49b2                	lw	s3,12(sp)
    8f7e:	6105                	addi	sp,sp,32
    8f80:	8082                	ret
    8f82:	00001797          	auipc	a5,0x1
    8f86:	26278793          	addi	a5,a5,610 # a1e4 <__sf_fake_stdout>
    8f8a:	00f41463          	bne	s0,a5,8f92 <__swbuf_r+0xa4>
    8f8e:	4480                	lw	s0,8(s1)
    8f90:	b759                	j	8f16 <__swbuf_r+0x28>
    8f92:	00001797          	auipc	a5,0x1
    8f96:	21278793          	addi	a5,a5,530 # a1a4 <__sf_fake_stderr>
    8f9a:	f6f41ee3          	bne	s0,a5,8f16 <__swbuf_r+0x28>
    8f9e:	44c0                	lw	s0,12(s1)
    8fa0:	bf9d                	j	8f16 <__swbuf_r+0x28>
    8fa2:	85a2                	mv	a1,s0
    8fa4:	8526                	mv	a0,s1
    8fa6:	2021                	jal	8fae <__swsetup_r>
    8fa8:	dd3d                	beqz	a0,8f26 <__swbuf_r+0x38>
    8faa:	597d                	li	s2,-1
    8fac:	b7d9                	j	8f72 <__swbuf_r+0x84>

00008fae <__swsetup_r>:
__swsetup_r():
    8fae:	1141                	addi	sp,sp,-16
    8fb0:	83c18793          	addi	a5,gp,-1988 # 200000ac <_impure_ptr>
    8fb4:	c226                	sw	s1,4(sp)
    8fb6:	4384                	lw	s1,0(a5)
    8fb8:	c422                	sw	s0,8(sp)
    8fba:	c04a                	sw	s2,0(sp)
    8fbc:	c606                	sw	ra,12(sp)
    8fbe:	892a                	mv	s2,a0
    8fc0:	842e                	mv	s0,a1
    8fc2:	c489                	beqz	s1,8fcc <__swsetup_r+0x1e>
    8fc4:	4c9c                	lw	a5,24(s1)
    8fc6:	e399                	bnez	a5,8fcc <__swsetup_r+0x1e>
    8fc8:	8526                	mv	a0,s1
    8fca:	26b1                	jal	9316 <__sinit>
    8fcc:	00001797          	auipc	a5,0x1
    8fd0:	1f878793          	addi	a5,a5,504 # a1c4 <__sf_fake_stdin>
    8fd4:	02f41c63          	bne	s0,a5,900c <__swsetup_r+0x5e>
    8fd8:	40c0                	lw	s0,4(s1)
    8fda:	00c41703          	lh	a4,12(s0)
    8fde:	01071793          	slli	a5,a4,0x10
    8fe2:	83c1                	srli	a5,a5,0x10
    8fe4:	0087f693          	andi	a3,a5,8
    8fe8:	eeb5                	bnez	a3,9064 <__swsetup_r+0xb6>
    8fea:	0107f693          	andi	a3,a5,16
    8fee:	ee9d                	bnez	a3,902c <__swsetup_r+0x7e>
    8ff0:	47a5                	li	a5,9
    8ff2:	00f92023          	sw	a5,0(s2)
    8ff6:	04076713          	ori	a4,a4,64
    8ffa:	00e41623          	sh	a4,12(s0)
    8ffe:	557d                	li	a0,-1
    9000:	40b2                	lw	ra,12(sp)
    9002:	4422                	lw	s0,8(sp)
    9004:	4492                	lw	s1,4(sp)
    9006:	4902                	lw	s2,0(sp)
    9008:	0141                	addi	sp,sp,16
    900a:	8082                	ret
    900c:	00001797          	auipc	a5,0x1
    9010:	1d878793          	addi	a5,a5,472 # a1e4 <__sf_fake_stdout>
    9014:	00f41463          	bne	s0,a5,901c <__swsetup_r+0x6e>
    9018:	4480                	lw	s0,8(s1)
    901a:	b7c1                	j	8fda <__swsetup_r+0x2c>
    901c:	00001797          	auipc	a5,0x1
    9020:	18878793          	addi	a5,a5,392 # a1a4 <__sf_fake_stderr>
    9024:	faf41be3          	bne	s0,a5,8fda <__swsetup_r+0x2c>
    9028:	44c0                	lw	s0,12(s1)
    902a:	bf45                	j	8fda <__swsetup_r+0x2c>
    902c:	8b91                	andi	a5,a5,4
    902e:	c78d                	beqz	a5,9058 <__swsetup_r+0xaa>
    9030:	584c                	lw	a1,52(s0)
    9032:	c989                	beqz	a1,9044 <__swsetup_r+0x96>
    9034:	04440793          	addi	a5,s0,68
    9038:	00f58463          	beq	a1,a5,9040 <__swsetup_r+0x92>
    903c:	854a                	mv	a0,s2
    903e:	23a9                	jal	9588 <_free_r>
    9040:	02042a23          	sw	zero,52(s0)
    9044:	00c45783          	lhu	a5,12(s0)
    9048:	00042223          	sw	zero,4(s0)
    904c:	fdb7f793          	andi	a5,a5,-37
    9050:	00f41623          	sh	a5,12(s0)
    9054:	481c                	lw	a5,16(s0)
    9056:	c01c                	sw	a5,0(s0)
    9058:	00c45783          	lhu	a5,12(s0)
    905c:	0087e793          	ori	a5,a5,8
    9060:	00f41623          	sh	a5,12(s0)
    9064:	481c                	lw	a5,16(s0)
    9066:	ef81                	bnez	a5,907e <__swsetup_r+0xd0>
    9068:	00c45783          	lhu	a5,12(s0)
    906c:	20000713          	li	a4,512
    9070:	2807f793          	andi	a5,a5,640
    9074:	00e78563          	beq	a5,a4,907e <__swsetup_r+0xd0>
    9078:	85a2                	mv	a1,s0
    907a:	854a                	mv	a0,s2
    907c:	21b5                	jal	94e8 <__smakebuf_r>
    907e:	00c45783          	lhu	a5,12(s0)
    9082:	0017f713          	andi	a4,a5,1
    9086:	c705                	beqz	a4,90ae <__swsetup_r+0x100>
    9088:	485c                	lw	a5,20(s0)
    908a:	00042423          	sw	zero,8(s0)
    908e:	40f007b3          	neg	a5,a5
    9092:	cc1c                	sw	a5,24(s0)
    9094:	481c                	lw	a5,16(s0)
    9096:	4501                	li	a0,0
    9098:	f7a5                	bnez	a5,9000 <__swsetup_r+0x52>
    909a:	00c41783          	lh	a5,12(s0)
    909e:	0807f713          	andi	a4,a5,128
    90a2:	df39                	beqz	a4,9000 <__swsetup_r+0x52>
    90a4:	0407e793          	ori	a5,a5,64
    90a8:	00f41623          	sh	a5,12(s0)
    90ac:	bf89                	j	8ffe <__swsetup_r+0x50>
    90ae:	8b89                	andi	a5,a5,2
    90b0:	4701                	li	a4,0
    90b2:	e391                	bnez	a5,90b6 <__swsetup_r+0x108>
    90b4:	4858                	lw	a4,20(s0)
    90b6:	c418                	sw	a4,8(s0)
    90b8:	bff1                	j	9094 <__swsetup_r+0xe6>

000090ba <__sflush_r>:
__sflush_r():
    90ba:	00c5d783          	lhu	a5,12(a1)
    90be:	1101                	addi	sp,sp,-32
    90c0:	cc22                	sw	s0,24(sp)
    90c2:	ca26                	sw	s1,20(sp)
    90c4:	ce06                	sw	ra,28(sp)
    90c6:	c84a                	sw	s2,16(sp)
    90c8:	c64e                	sw	s3,12(sp)
    90ca:	0087f713          	andi	a4,a5,8
    90ce:	84aa                	mv	s1,a0
    90d0:	842e                	mv	s0,a1
    90d2:	ef71                	bnez	a4,91ae <__sflush_r+0xf4>
    90d4:	41d8                	lw	a4,4(a1)
    90d6:	00e04d63          	bgtz	a4,90f0 <__sflush_r+0x36>
    90da:	41b8                	lw	a4,64(a1)
    90dc:	00e04a63          	bgtz	a4,90f0 <__sflush_r+0x36>
    90e0:	4501                	li	a0,0
    90e2:	40f2                	lw	ra,28(sp)
    90e4:	4462                	lw	s0,24(sp)
    90e6:	44d2                	lw	s1,20(sp)
    90e8:	4942                	lw	s2,16(sp)
    90ea:	49b2                	lw	s3,12(sp)
    90ec:	6105                	addi	sp,sp,32
    90ee:	8082                	ret
    90f0:	5458                	lw	a4,44(s0)
    90f2:	d77d                	beqz	a4,90e0 <__sflush_r+0x26>
    90f4:	0004a903          	lw	s2,0(s1)
    90f8:	01379693          	slli	a3,a5,0x13
    90fc:	0004a023          	sw	zero,0(s1)
    9100:	0606dd63          	bgez	a3,917a <__sflush_r+0xc0>
    9104:	4870                	lw	a2,84(s0)
    9106:	00c45783          	lhu	a5,12(s0)
    910a:	8b91                	andi	a5,a5,4
    910c:	c799                	beqz	a5,911a <__sflush_r+0x60>
    910e:	405c                	lw	a5,4(s0)
    9110:	8e1d                	sub	a2,a2,a5
    9112:	585c                	lw	a5,52(s0)
    9114:	c399                	beqz	a5,911a <__sflush_r+0x60>
    9116:	403c                	lw	a5,64(s0)
    9118:	8e1d                	sub	a2,a2,a5
    911a:	545c                	lw	a5,44(s0)
    911c:	500c                	lw	a1,32(s0)
    911e:	4681                	li	a3,0
    9120:	8526                	mv	a0,s1
    9122:	9782                	jalr	a5
    9124:	57fd                	li	a5,-1
    9126:	00c45703          	lhu	a4,12(s0)
    912a:	00f51d63          	bne	a0,a5,9144 <__sflush_r+0x8a>
    912e:	4094                	lw	a3,0(s1)
    9130:	47f5                	li	a5,29
    9132:	06d7e863          	bltu	a5,a3,91a2 <__sflush_r+0xe8>
    9136:	204007b7          	lui	a5,0x20400
    913a:	0785                	addi	a5,a5,1
    913c:	00d7d7b3          	srl	a5,a5,a3
    9140:	8b85                	andi	a5,a5,1
    9142:	c3a5                	beqz	a5,91a2 <__sflush_r+0xe8>
    9144:	481c                	lw	a5,16(s0)
    9146:	00042223          	sw	zero,4(s0)
    914a:	c01c                	sw	a5,0(s0)
    914c:	01371793          	slli	a5,a4,0x13
    9150:	0007d863          	bgez	a5,9160 <__sflush_r+0xa6>
    9154:	57fd                	li	a5,-1
    9156:	00f51463          	bne	a0,a5,915e <__sflush_r+0xa4>
    915a:	409c                	lw	a5,0(s1)
    915c:	e391                	bnez	a5,9160 <__sflush_r+0xa6>
    915e:	c868                	sw	a0,84(s0)
    9160:	584c                	lw	a1,52(s0)
    9162:	0124a023          	sw	s2,0(s1)
    9166:	ddad                	beqz	a1,90e0 <__sflush_r+0x26>
    9168:	04440793          	addi	a5,s0,68
    916c:	00f58463          	beq	a1,a5,9174 <__sflush_r+0xba>
    9170:	8526                	mv	a0,s1
    9172:	2919                	jal	9588 <_free_r>
    9174:	02042a23          	sw	zero,52(s0)
    9178:	b7a5                	j	90e0 <__sflush_r+0x26>
    917a:	500c                	lw	a1,32(s0)
    917c:	4601                	li	a2,0
    917e:	4685                	li	a3,1
    9180:	8526                	mv	a0,s1
    9182:	9702                	jalr	a4
    9184:	57fd                	li	a5,-1
    9186:	862a                	mv	a2,a0
    9188:	f6f51fe3          	bne	a0,a5,9106 <__sflush_r+0x4c>
    918c:	409c                	lw	a5,0(s1)
    918e:	dfa5                	beqz	a5,9106 <__sflush_r+0x4c>
    9190:	4775                	li	a4,29
    9192:	00e78563          	beq	a5,a4,919c <__sflush_r+0xe2>
    9196:	4759                	li	a4,22
    9198:	04e79463          	bne	a5,a4,91e0 <__sflush_r+0x126>
    919c:	0124a023          	sw	s2,0(s1)
    91a0:	b781                	j	90e0 <__sflush_r+0x26>
    91a2:	04076713          	ori	a4,a4,64
    91a6:	00e41623          	sh	a4,12(s0)
    91aa:	557d                	li	a0,-1
    91ac:	bf1d                	j	90e2 <__sflush_r+0x28>
    91ae:	0105a983          	lw	s3,16(a1)
    91b2:	f20987e3          	beqz	s3,90e0 <__sflush_r+0x26>
    91b6:	0005a903          	lw	s2,0(a1)
    91ba:	8b8d                	andi	a5,a5,3
    91bc:	0135a023          	sw	s3,0(a1)
    91c0:	41390933          	sub	s2,s2,s3
    91c4:	4701                	li	a4,0
    91c6:	e391                	bnez	a5,91ca <__sflush_r+0x110>
    91c8:	49d8                	lw	a4,20(a1)
    91ca:	c418                	sw	a4,8(s0)
    91cc:	f1205ae3          	blez	s2,90e0 <__sflush_r+0x26>
    91d0:	541c                	lw	a5,40(s0)
    91d2:	500c                	lw	a1,32(s0)
    91d4:	86ca                	mv	a3,s2
    91d6:	864e                	mv	a2,s3
    91d8:	8526                	mv	a0,s1
    91da:	9782                	jalr	a5
    91dc:	00a04963          	bgtz	a0,91ee <__sflush_r+0x134>
    91e0:	00c45783          	lhu	a5,12(s0)
    91e4:	0407e793          	ori	a5,a5,64
    91e8:	00f41623          	sh	a5,12(s0)
    91ec:	bf7d                	j	91aa <__sflush_r+0xf0>
    91ee:	99aa                	add	s3,s3,a0
    91f0:	40a90933          	sub	s2,s2,a0
    91f4:	bfe1                	j	91cc <__sflush_r+0x112>

000091f6 <_fflush_r>:
_fflush_r():
    91f6:	499c                	lw	a5,16(a1)
    91f8:	c3a5                	beqz	a5,9258 <_fflush_r+0x62>
    91fa:	1101                	addi	sp,sp,-32
    91fc:	cc22                	sw	s0,24(sp)
    91fe:	ce06                	sw	ra,28(sp)
    9200:	842a                	mv	s0,a0
    9202:	c511                	beqz	a0,920e <_fflush_r+0x18>
    9204:	4d1c                	lw	a5,24(a0)
    9206:	e781                	bnez	a5,920e <_fflush_r+0x18>
    9208:	c62e                	sw	a1,12(sp)
    920a:	2231                	jal	9316 <__sinit>
    920c:	45b2                	lw	a1,12(sp)
    920e:	00001797          	auipc	a5,0x1
    9212:	fb678793          	addi	a5,a5,-74 # a1c4 <__sf_fake_stdin>
    9216:	00f59c63          	bne	a1,a5,922e <_fflush_r+0x38>
    921a:	404c                	lw	a1,4(s0)
    921c:	00c59783          	lh	a5,12(a1)
    9220:	c79d                	beqz	a5,924e <_fflush_r+0x58>
    9222:	8522                	mv	a0,s0
    9224:	4462                	lw	s0,24(sp)
    9226:	40f2                	lw	ra,28(sp)
    9228:	6105                	addi	sp,sp,32
    922a:	e91ff06f          	j	90ba <__sflush_r>
    922e:	00001797          	auipc	a5,0x1
    9232:	fb678793          	addi	a5,a5,-74 # a1e4 <__sf_fake_stdout>
    9236:	00f59463          	bne	a1,a5,923e <_fflush_r+0x48>
    923a:	440c                	lw	a1,8(s0)
    923c:	b7c5                	j	921c <_fflush_r+0x26>
    923e:	00001797          	auipc	a5,0x1
    9242:	f6678793          	addi	a5,a5,-154 # a1a4 <__sf_fake_stderr>
    9246:	fcf59be3          	bne	a1,a5,921c <_fflush_r+0x26>
    924a:	444c                	lw	a1,12(s0)
    924c:	bfc1                	j	921c <_fflush_r+0x26>
    924e:	40f2                	lw	ra,28(sp)
    9250:	4462                	lw	s0,24(sp)
    9252:	4501                	li	a0,0
    9254:	6105                	addi	sp,sp,32
    9256:	8082                	ret
    9258:	4501                	li	a0,0
    925a:	8082                	ret

0000925c <std>:
std():
    925c:	1141                	addi	sp,sp,-16
    925e:	c422                	sw	s0,8(sp)
    9260:	c606                	sw	ra,12(sp)
    9262:	842a                	mv	s0,a0
    9264:	00b51623          	sh	a1,12(a0)
    9268:	00c51723          	sh	a2,14(a0)
    926c:	00052023          	sw	zero,0(a0)
    9270:	00052223          	sw	zero,4(a0)
    9274:	00052423          	sw	zero,8(a0)
    9278:	06052223          	sw	zero,100(a0)
    927c:	00052823          	sw	zero,16(a0)
    9280:	00052a23          	sw	zero,20(a0)
    9284:	00052c23          	sw	zero,24(a0)
    9288:	4621                	li	a2,8
    928a:	4581                	li	a1,0
    928c:	05c50513          	addi	a0,a0,92
    9290:	fd1f60ef          	jal	ra,260 <memset>
    9294:	00001797          	auipc	a5,0x1
    9298:	b5a78793          	addi	a5,a5,-1190 # 9dee <__sread>
    929c:	d05c                	sw	a5,36(s0)
    929e:	00001797          	auipc	a5,0x1
    92a2:	b8078793          	addi	a5,a5,-1152 # 9e1e <__swrite>
    92a6:	d41c                	sw	a5,40(s0)
    92a8:	00001797          	auipc	a5,0x1
    92ac:	bc478793          	addi	a5,a5,-1084 # 9e6c <__sseek>
    92b0:	d45c                	sw	a5,44(s0)
    92b2:	00001797          	auipc	a5,0x1
    92b6:	bf078793          	addi	a5,a5,-1040 # 9ea2 <__sclose>
    92ba:	d000                	sw	s0,32(s0)
    92bc:	d81c                	sw	a5,48(s0)
    92be:	40b2                	lw	ra,12(sp)
    92c0:	4422                	lw	s0,8(sp)
    92c2:	0141                	addi	sp,sp,16
    92c4:	8082                	ret

000092c6 <_cleanup_r>:
_cleanup_r():
    92c6:	00000597          	auipc	a1,0x0
    92ca:	f3058593          	addi	a1,a1,-208 # 91f6 <_fflush_r>
    92ce:	aa91                	j	9422 <_fwalk_reent>

000092d0 <__sfmoreglue>:
__sfmoreglue():
    92d0:	1141                	addi	sp,sp,-16
    92d2:	c226                	sw	s1,4(sp)
    92d4:	06800613          	li	a2,104
    92d8:	fff58493          	addi	s1,a1,-1
    92dc:	02c484b3          	mul	s1,s1,a2
    92e0:	c04a                	sw	s2,0(sp)
    92e2:	892e                	mv	s2,a1
    92e4:	c422                	sw	s0,8(sp)
    92e6:	c606                	sw	ra,12(sp)
    92e8:	07448593          	addi	a1,s1,116
    92ec:	2691                	jal	9630 <_malloc_r>
    92ee:	842a                	mv	s0,a0
    92f0:	cd01                	beqz	a0,9308 <__sfmoreglue+0x38>
    92f2:	00052023          	sw	zero,0(a0)
    92f6:	01252223          	sw	s2,4(a0)
    92fa:	0531                	addi	a0,a0,12
    92fc:	c408                	sw	a0,8(s0)
    92fe:	06848613          	addi	a2,s1,104
    9302:	4581                	li	a1,0
    9304:	f5df60ef          	jal	ra,260 <memset>
    9308:	8522                	mv	a0,s0
    930a:	40b2                	lw	ra,12(sp)
    930c:	4422                	lw	s0,8(sp)
    930e:	4492                	lw	s1,4(sp)
    9310:	4902                	lw	s2,0(sp)
    9312:	0141                	addi	sp,sp,16
    9314:	8082                	ret

00009316 <__sinit>:
__sinit():
    9316:	4d1c                	lw	a5,24(a0)
    9318:	e7a5                	bnez	a5,9380 <__sinit+0x6a>
    931a:	1141                	addi	sp,sp,-16
    931c:	c606                	sw	ra,12(sp)
    931e:	c422                	sw	s0,8(sp)
    9320:	00000797          	auipc	a5,0x0
    9324:	fa678793          	addi	a5,a5,-90 # 92c6 <_cleanup_r>
    9328:	d51c                	sw	a5,40(a0)
    932a:	86018793          	addi	a5,gp,-1952 # 200000d0 <_global_impure_ptr>
    932e:	439c                	lw	a5,0(a5)
    9330:	04052423          	sw	zero,72(a0)
    9334:	04052623          	sw	zero,76(a0)
    9338:	04052823          	sw	zero,80(a0)
    933c:	00f51463          	bne	a0,a5,9344 <__sinit+0x2e>
    9340:	4785                	li	a5,1
    9342:	cd1c                	sw	a5,24(a0)
    9344:	842a                	mv	s0,a0
    9346:	2835                	jal	9382 <__sfp>
    9348:	c048                	sw	a0,4(s0)
    934a:	8522                	mv	a0,s0
    934c:	281d                	jal	9382 <__sfp>
    934e:	c408                	sw	a0,8(s0)
    9350:	8522                	mv	a0,s0
    9352:	2805                	jal	9382 <__sfp>
    9354:	c448                	sw	a0,12(s0)
    9356:	4048                	lw	a0,4(s0)
    9358:	4601                	li	a2,0
    935a:	4591                	li	a1,4
    935c:	f01ff0ef          	jal	ra,925c <std>
    9360:	4408                	lw	a0,8(s0)
    9362:	4605                	li	a2,1
    9364:	45a5                	li	a1,9
    9366:	ef7ff0ef          	jal	ra,925c <std>
    936a:	4448                	lw	a0,12(s0)
    936c:	4609                	li	a2,2
    936e:	45c9                	li	a1,18
    9370:	eedff0ef          	jal	ra,925c <std>
    9374:	4785                	li	a5,1
    9376:	cc1c                	sw	a5,24(s0)
    9378:	40b2                	lw	ra,12(sp)
    937a:	4422                	lw	s0,8(sp)
    937c:	0141                	addi	sp,sp,16
    937e:	8082                	ret
    9380:	8082                	ret

00009382 <__sfp>:
__sfp():
    9382:	1141                	addi	sp,sp,-16
    9384:	86018793          	addi	a5,gp,-1952 # 200000d0 <_global_impure_ptr>
    9388:	c226                	sw	s1,4(sp)
    938a:	4384                	lw	s1,0(a5)
    938c:	c04a                	sw	s2,0(sp)
    938e:	c606                	sw	ra,12(sp)
    9390:	4c9c                	lw	a5,24(s1)
    9392:	c422                	sw	s0,8(sp)
    9394:	892a                	mv	s2,a0
    9396:	e781                	bnez	a5,939e <__sfp+0x1c>
    9398:	8526                	mv	a0,s1
    939a:	f7dff0ef          	jal	ra,9316 <__sinit>
    939e:	04848493          	addi	s1,s1,72
    93a2:	4480                	lw	s0,8(s1)
    93a4:	40dc                	lw	a5,4(s1)
    93a6:	17fd                	addi	a5,a5,-1
    93a8:	0007d663          	bgez	a5,93b4 <__sfp+0x32>
    93ac:	409c                	lw	a5,0(s1)
    93ae:	cfb9                	beqz	a5,940c <__sfp+0x8a>
    93b0:	4084                	lw	s1,0(s1)
    93b2:	bfc5                	j	93a2 <__sfp+0x20>
    93b4:	00c41703          	lh	a4,12(s0)
    93b8:	e739                	bnez	a4,9406 <__sfp+0x84>
    93ba:	77c1                	lui	a5,0xffff0
    93bc:	0785                	addi	a5,a5,1
    93be:	06042223          	sw	zero,100(s0)
    93c2:	00042023          	sw	zero,0(s0)
    93c6:	00042223          	sw	zero,4(s0)
    93ca:	00042423          	sw	zero,8(s0)
    93ce:	c45c                	sw	a5,12(s0)
    93d0:	00042823          	sw	zero,16(s0)
    93d4:	00042a23          	sw	zero,20(s0)
    93d8:	00042c23          	sw	zero,24(s0)
    93dc:	4621                	li	a2,8
    93de:	4581                	li	a1,0
    93e0:	05c40513          	addi	a0,s0,92
    93e4:	e7df60ef          	jal	ra,260 <memset>
    93e8:	02042a23          	sw	zero,52(s0)
    93ec:	02042c23          	sw	zero,56(s0)
    93f0:	04042423          	sw	zero,72(s0)
    93f4:	04042623          	sw	zero,76(s0)
    93f8:	8522                	mv	a0,s0
    93fa:	40b2                	lw	ra,12(sp)
    93fc:	4422                	lw	s0,8(sp)
    93fe:	4492                	lw	s1,4(sp)
    9400:	4902                	lw	s2,0(sp)
    9402:	0141                	addi	sp,sp,16
    9404:	8082                	ret
    9406:	06840413          	addi	s0,s0,104
    940a:	bf71                	j	93a6 <__sfp+0x24>
    940c:	4591                	li	a1,4
    940e:	854a                	mv	a0,s2
    9410:	ec1ff0ef          	jal	ra,92d0 <__sfmoreglue>
    9414:	c088                	sw	a0,0(s1)
    9416:	fd49                	bnez	a0,93b0 <__sfp+0x2e>
    9418:	47b1                	li	a5,12
    941a:	00f92023          	sw	a5,0(s2)
    941e:	4401                	li	s0,0
    9420:	bfe1                	j	93f8 <__sfp+0x76>

00009422 <_fwalk_reent>:
_fwalk_reent():
    9422:	7179                	addi	sp,sp,-48
    9424:	d422                	sw	s0,40(sp)
    9426:	d04a                	sw	s2,32(sp)
    9428:	cc52                	sw	s4,24(sp)
    942a:	ca56                	sw	s5,20(sp)
    942c:	c85a                	sw	s6,16(sp)
    942e:	c65e                	sw	s7,12(sp)
    9430:	d606                	sw	ra,44(sp)
    9432:	d226                	sw	s1,36(sp)
    9434:	ce4e                	sw	s3,28(sp)
    9436:	8a2a                	mv	s4,a0
    9438:	8aae                	mv	s5,a1
    943a:	04850413          	addi	s0,a0,72
    943e:	4901                	li	s2,0
    9440:	4b05                	li	s6,1
    9442:	5bfd                	li	s7,-1
    9444:	ec09                	bnez	s0,945e <_fwalk_reent+0x3c>
    9446:	50b2                	lw	ra,44(sp)
    9448:	5422                	lw	s0,40(sp)
    944a:	854a                	mv	a0,s2
    944c:	5492                	lw	s1,36(sp)
    944e:	5902                	lw	s2,32(sp)
    9450:	49f2                	lw	s3,28(sp)
    9452:	4a62                	lw	s4,24(sp)
    9454:	4ad2                	lw	s5,20(sp)
    9456:	4b42                	lw	s6,16(sp)
    9458:	4bb2                	lw	s7,12(sp)
    945a:	6145                	addi	sp,sp,48
    945c:	8082                	ret
    945e:	4404                	lw	s1,8(s0)
    9460:	00442983          	lw	s3,4(s0)
    9464:	19fd                	addi	s3,s3,-1
    9466:	0009d463          	bgez	s3,946e <_fwalk_reent+0x4c>
    946a:	4000                	lw	s0,0(s0)
    946c:	bfe1                	j	9444 <_fwalk_reent+0x22>
    946e:	00c4d783          	lhu	a5,12(s1)
    9472:	00fb7b63          	bgeu	s6,a5,9488 <_fwalk_reent+0x66>
    9476:	00e49783          	lh	a5,14(s1)
    947a:	01778763          	beq	a5,s7,9488 <_fwalk_reent+0x66>
    947e:	85a6                	mv	a1,s1
    9480:	8552                	mv	a0,s4
    9482:	9a82                	jalr	s5
    9484:	00a96933          	or	s2,s2,a0
    9488:	06848493          	addi	s1,s1,104
    948c:	bfe1                	j	9464 <_fwalk_reent+0x42>

0000948e <__swhatbuf_r>:
__swhatbuf_r():
    948e:	7119                	addi	sp,sp,-128
    9490:	daa6                	sw	s1,116(sp)
    9492:	84ae                	mv	s1,a1
    9494:	00e59583          	lh	a1,14(a1)
    9498:	dca2                	sw	s0,120(sp)
    949a:	de86                	sw	ra,124(sp)
    949c:	8432                	mv	s0,a2
    949e:	0005dc63          	bgez	a1,94b6 <__swhatbuf_r+0x28>
    94a2:	00c4d783          	lhu	a5,12(s1)
    94a6:	0006a023          	sw	zero,0(a3)
    94aa:	0807f793          	andi	a5,a5,128
    94ae:	e785                	bnez	a5,94d6 <__swhatbuf_r+0x48>
    94b0:	40000793          	li	a5,1024
    94b4:	a01d                	j	94da <__swhatbuf_r+0x4c>
    94b6:	0830                	addi	a2,sp,24
    94b8:	c636                	sw	a3,12(sp)
    94ba:	255000ef          	jal	ra,9f0e <_fstat_r>
    94be:	46b2                	lw	a3,12(sp)
    94c0:	fe0541e3          	bltz	a0,94a2 <__swhatbuf_r+0x14>
    94c4:	4772                	lw	a4,28(sp)
    94c6:	67bd                	lui	a5,0xf
    94c8:	8ff9                	and	a5,a5,a4
    94ca:	7779                	lui	a4,0xffffe
    94cc:	97ba                	add	a5,a5,a4
    94ce:	0017b793          	seqz	a5,a5
    94d2:	c29c                	sw	a5,0(a3)
    94d4:	bff1                	j	94b0 <__swhatbuf_r+0x22>
    94d6:	04000793          	li	a5,64
    94da:	c01c                	sw	a5,0(s0)
    94dc:	50f6                	lw	ra,124(sp)
    94de:	5466                	lw	s0,120(sp)
    94e0:	54d6                	lw	s1,116(sp)
    94e2:	4501                	li	a0,0
    94e4:	6109                	addi	sp,sp,128
    94e6:	8082                	ret

000094e8 <__smakebuf_r>:
__smakebuf_r():
    94e8:	00c5d783          	lhu	a5,12(a1)
    94ec:	1101                	addi	sp,sp,-32
    94ee:	cc22                	sw	s0,24(sp)
    94f0:	ce06                	sw	ra,28(sp)
    94f2:	ca26                	sw	s1,20(sp)
    94f4:	c84a                	sw	s2,16(sp)
    94f6:	8b89                	andi	a5,a5,2
    94f8:	842e                	mv	s0,a1
    94fa:	cf89                	beqz	a5,9514 <__smakebuf_r+0x2c>
    94fc:	04740793          	addi	a5,s0,71
    9500:	c01c                	sw	a5,0(s0)
    9502:	c81c                	sw	a5,16(s0)
    9504:	4785                	li	a5,1
    9506:	c85c                	sw	a5,20(s0)
    9508:	40f2                	lw	ra,28(sp)
    950a:	4462                	lw	s0,24(sp)
    950c:	44d2                	lw	s1,20(sp)
    950e:	4942                	lw	s2,16(sp)
    9510:	6105                	addi	sp,sp,32
    9512:	8082                	ret
    9514:	0074                	addi	a3,sp,12
    9516:	0030                	addi	a2,sp,8
    9518:	84aa                	mv	s1,a0
    951a:	f75ff0ef          	jal	ra,948e <__swhatbuf_r>
    951e:	45a2                	lw	a1,8(sp)
    9520:	892a                	mv	s2,a0
    9522:	8526                	mv	a0,s1
    9524:	2231                	jal	9630 <_malloc_r>
    9526:	ed01                	bnez	a0,953e <__smakebuf_r+0x56>
    9528:	00c41783          	lh	a5,12(s0)
    952c:	2007f713          	andi	a4,a5,512
    9530:	ff61                	bnez	a4,9508 <__smakebuf_r+0x20>
    9532:	9bf1                	andi	a5,a5,-4
    9534:	0027e793          	ori	a5,a5,2
    9538:	00f41623          	sh	a5,12(s0)
    953c:	b7c1                	j	94fc <__smakebuf_r+0x14>
    953e:	00000797          	auipc	a5,0x0
    9542:	d8878793          	addi	a5,a5,-632 # 92c6 <_cleanup_r>
    9546:	d49c                	sw	a5,40(s1)
    9548:	00c45783          	lhu	a5,12(s0)
    954c:	c008                	sw	a0,0(s0)
    954e:	c808                	sw	a0,16(s0)
    9550:	0807e793          	ori	a5,a5,128
    9554:	00f41623          	sh	a5,12(s0)
    9558:	47a2                	lw	a5,8(sp)
    955a:	c85c                	sw	a5,20(s0)
    955c:	47b2                	lw	a5,12(sp)
    955e:	cf91                	beqz	a5,957a <__smakebuf_r+0x92>
    9560:	00e41583          	lh	a1,14(s0)
    9564:	8526                	mv	a0,s1
    9566:	1db000ef          	jal	ra,9f40 <_isatty_r>
    956a:	c901                	beqz	a0,957a <__smakebuf_r+0x92>
    956c:	00c45783          	lhu	a5,12(s0)
    9570:	9bf1                	andi	a5,a5,-4
    9572:	0017e793          	ori	a5,a5,1
    9576:	00f41623          	sh	a5,12(s0)
    957a:	00c45783          	lhu	a5,12(s0)
    957e:	00f96933          	or	s2,s2,a5
    9582:	01241623          	sh	s2,12(s0)
    9586:	b749                	j	9508 <__smakebuf_r+0x20>

00009588 <_free_r>:
_free_r():
    9588:	c1dd                	beqz	a1,962e <_free_r+0xa6>
    958a:	ffc5a783          	lw	a5,-4(a1)
    958e:	1141                	addi	sp,sp,-16
    9590:	c422                	sw	s0,8(sp)
    9592:	c606                	sw	ra,12(sp)
    9594:	c226                	sw	s1,4(sp)
    9596:	ffc58413          	addi	s0,a1,-4
    959a:	0007d363          	bgez	a5,95a0 <_free_r+0x18>
    959e:	943e                	add	s0,s0,a5
    95a0:	84aa                	mv	s1,a0
    95a2:	21d000ef          	jal	ra,9fbe <__malloc_lock>
    95a6:	94818793          	addi	a5,gp,-1720 # 200001b8 <__malloc_free_list>
    95aa:	439c                	lw	a5,0(a5)
    95ac:	ef81                	bnez	a5,95c4 <_free_r+0x3c>
    95ae:	00042223          	sw	zero,4(s0)
    95b2:	9481a423          	sw	s0,-1720(gp) # 200001b8 <__malloc_free_list>
    95b6:	4422                	lw	s0,8(sp)
    95b8:	40b2                	lw	ra,12(sp)
    95ba:	8526                	mv	a0,s1
    95bc:	4492                	lw	s1,4(sp)
    95be:	0141                	addi	sp,sp,16
    95c0:	2010006f          	j	9fc0 <__malloc_unlock>
    95c4:	00f47e63          	bgeu	s0,a5,95e0 <_free_r+0x58>
    95c8:	4014                	lw	a3,0(s0)
    95ca:	00d40733          	add	a4,s0,a3
    95ce:	00e79663          	bne	a5,a4,95da <_free_r+0x52>
    95d2:	4398                	lw	a4,0(a5)
    95d4:	43dc                	lw	a5,4(a5)
    95d6:	9736                	add	a4,a4,a3
    95d8:	c018                	sw	a4,0(s0)
    95da:	c05c                	sw	a5,4(s0)
    95dc:	bfd9                	j	95b2 <_free_r+0x2a>
    95de:	87ba                	mv	a5,a4
    95e0:	43d8                	lw	a4,4(a5)
    95e2:	c319                	beqz	a4,95e8 <_free_r+0x60>
    95e4:	fee47de3          	bgeu	s0,a4,95de <_free_r+0x56>
    95e8:	4394                	lw	a3,0(a5)
    95ea:	00d78633          	add	a2,a5,a3
    95ee:	00861f63          	bne	a2,s0,960c <_free_r+0x84>
    95f2:	4010                	lw	a2,0(s0)
    95f4:	96b2                	add	a3,a3,a2
    95f6:	c394                	sw	a3,0(a5)
    95f8:	00d78633          	add	a2,a5,a3
    95fc:	fac71de3          	bne	a4,a2,95b6 <_free_r+0x2e>
    9600:	4310                	lw	a2,0(a4)
    9602:	4358                	lw	a4,4(a4)
    9604:	96b2                	add	a3,a3,a2
    9606:	c394                	sw	a3,0(a5)
    9608:	c3d8                	sw	a4,4(a5)
    960a:	b775                	j	95b6 <_free_r+0x2e>
    960c:	00c47563          	bgeu	s0,a2,9616 <_free_r+0x8e>
    9610:	47b1                	li	a5,12
    9612:	c09c                	sw	a5,0(s1)
    9614:	b74d                	j	95b6 <_free_r+0x2e>
    9616:	4010                	lw	a2,0(s0)
    9618:	00c406b3          	add	a3,s0,a2
    961c:	00d71663          	bne	a4,a3,9628 <_free_r+0xa0>
    9620:	4314                	lw	a3,0(a4)
    9622:	4358                	lw	a4,4(a4)
    9624:	96b2                	add	a3,a3,a2
    9626:	c014                	sw	a3,0(s0)
    9628:	c058                	sw	a4,4(s0)
    962a:	c3c0                	sw	s0,4(a5)
    962c:	b769                	j	95b6 <_free_r+0x2e>
    962e:	8082                	ret

00009630 <_malloc_r>:
_malloc_r():
    9630:	1101                	addi	sp,sp,-32
    9632:	ca26                	sw	s1,20(sp)
    9634:	00358493          	addi	s1,a1,3
    9638:	98f1                	andi	s1,s1,-4
    963a:	ce06                	sw	ra,28(sp)
    963c:	cc22                	sw	s0,24(sp)
    963e:	c84a                	sw	s2,16(sp)
    9640:	c64e                	sw	s3,12(sp)
    9642:	04a1                	addi	s1,s1,8
    9644:	47b1                	li	a5,12
    9646:	04f4f363          	bgeu	s1,a5,968c <_malloc_r+0x5c>
    964a:	44b1                	li	s1,12
    964c:	04b4e263          	bltu	s1,a1,9690 <_malloc_r+0x60>
    9650:	892a                	mv	s2,a0
    9652:	16d000ef          	jal	ra,9fbe <__malloc_lock>
    9656:	94818793          	addi	a5,gp,-1720 # 200001b8 <__malloc_free_list>
    965a:	4398                	lw	a4,0(a5)
    965c:	843a                	mv	s0,a4
    965e:	e039                	bnez	s0,96a4 <_malloc_r+0x74>
    9660:	94c18793          	addi	a5,gp,-1716 # 200001bc <__malloc_sbrk_start>
    9664:	439c                	lw	a5,0(a5)
    9666:	e791                	bnez	a5,9672 <_malloc_r+0x42>
    9668:	4581                	li	a1,0
    966a:	854a                	mv	a0,s2
    966c:	2f89                	jal	9dbe <_sbrk_r>
    966e:	94a1a623          	sw	a0,-1716(gp) # 200001bc <__malloc_sbrk_start>
    9672:	85a6                	mv	a1,s1
    9674:	854a                	mv	a0,s2
    9676:	27a1                	jal	9dbe <_sbrk_r>
    9678:	59fd                	li	s3,-1
    967a:	07351963          	bne	a0,s3,96ec <_malloc_r+0xbc>
    967e:	47b1                	li	a5,12
    9680:	00f92023          	sw	a5,0(s2)
    9684:	854a                	mv	a0,s2
    9686:	13b000ef          	jal	ra,9fc0 <__malloc_unlock>
    968a:	a029                	j	9694 <_malloc_r+0x64>
    968c:	fc04d0e3          	bgez	s1,964c <_malloc_r+0x1c>
    9690:	47b1                	li	a5,12
    9692:	c11c                	sw	a5,0(a0)
    9694:	4501                	li	a0,0
    9696:	40f2                	lw	ra,28(sp)
    9698:	4462                	lw	s0,24(sp)
    969a:	44d2                	lw	s1,20(sp)
    969c:	4942                	lw	s2,16(sp)
    969e:	49b2                	lw	s3,12(sp)
    96a0:	6105                	addi	sp,sp,32
    96a2:	8082                	ret
    96a4:	401c                	lw	a5,0(s0)
    96a6:	8f85                	sub	a5,a5,s1
    96a8:	0207cf63          	bltz	a5,96e6 <_malloc_r+0xb6>
    96ac:	46ad                	li	a3,11
    96ae:	00f6f663          	bgeu	a3,a5,96ba <_malloc_r+0x8a>
    96b2:	c01c                	sw	a5,0(s0)
    96b4:	943e                	add	s0,s0,a5
    96b6:	c004                	sw	s1,0(s0)
    96b8:	a031                	j	96c4 <_malloc_r+0x94>
    96ba:	405c                	lw	a5,4(s0)
    96bc:	02871363          	bne	a4,s0,96e2 <_malloc_r+0xb2>
    96c0:	94f1a423          	sw	a5,-1720(gp) # 200001b8 <__malloc_free_list>
    96c4:	854a                	mv	a0,s2
    96c6:	0fb000ef          	jal	ra,9fc0 <__malloc_unlock>
    96ca:	00b40513          	addi	a0,s0,11
    96ce:	00440793          	addi	a5,s0,4
    96d2:	9961                	andi	a0,a0,-8
    96d4:	40f50733          	sub	a4,a0,a5
    96d8:	df5d                	beqz	a4,9696 <_malloc_r+0x66>
    96da:	943a                	add	s0,s0,a4
    96dc:	8f89                	sub	a5,a5,a0
    96de:	c01c                	sw	a5,0(s0)
    96e0:	bf5d                	j	9696 <_malloc_r+0x66>
    96e2:	c35c                	sw	a5,4(a4)
    96e4:	b7c5                	j	96c4 <_malloc_r+0x94>
    96e6:	8722                	mv	a4,s0
    96e8:	4040                	lw	s0,4(s0)
    96ea:	bf95                	j	965e <_malloc_r+0x2e>
    96ec:	00350413          	addi	s0,a0,3
    96f0:	9871                	andi	s0,s0,-4
    96f2:	fc8502e3          	beq	a0,s0,96b6 <_malloc_r+0x86>
    96f6:	40a405b3          	sub	a1,s0,a0
    96fa:	854a                	mv	a0,s2
    96fc:	25c9                	jal	9dbe <_sbrk_r>
    96fe:	fb351ce3          	bne	a0,s3,96b6 <_malloc_r+0x86>
    9702:	bfb5                	j	967e <_malloc_r+0x4e>

00009704 <__sfputc_r>:
__sfputc_r():
    9704:	461c                	lw	a5,8(a2)
    9706:	17fd                	addi	a5,a5,-1
    9708:	c61c                	sw	a5,8(a2)
    970a:	0007da63          	bgez	a5,971e <__sfputc_r+0x1a>
    970e:	4e18                	lw	a4,24(a2)
    9710:	00e7c563          	blt	a5,a4,971a <__sfputc_r+0x16>
    9714:	47a9                	li	a5,10
    9716:	00f59463          	bne	a1,a5,971e <__sfputc_r+0x1a>
    971a:	fd4ff06f          	j	8eee <__swbuf_r>
    971e:	421c                	lw	a5,0(a2)
    9720:	852e                	mv	a0,a1
    9722:	00178713          	addi	a4,a5,1
    9726:	c218                	sw	a4,0(a2)
    9728:	00b78023          	sb	a1,0(a5)
    972c:	8082                	ret

0000972e <__sfputs_r>:
__sfputs_r():
    972e:	1101                	addi	sp,sp,-32
    9730:	cc22                	sw	s0,24(sp)
    9732:	ca26                	sw	s1,20(sp)
    9734:	c84a                	sw	s2,16(sp)
    9736:	c64e                	sw	s3,12(sp)
    9738:	c452                	sw	s4,8(sp)
    973a:	ce06                	sw	ra,28(sp)
    973c:	892a                	mv	s2,a0
    973e:	89ae                	mv	s3,a1
    9740:	8432                	mv	s0,a2
    9742:	00d604b3          	add	s1,a2,a3
    9746:	5a7d                	li	s4,-1
    9748:	00941463          	bne	s0,s1,9750 <__sfputs_r+0x22>
    974c:	4501                	li	a0,0
    974e:	a811                	j	9762 <__sfputs_r+0x34>
    9750:	00044583          	lbu	a1,0(s0)
    9754:	864e                	mv	a2,s3
    9756:	854a                	mv	a0,s2
    9758:	fadff0ef          	jal	ra,9704 <__sfputc_r>
    975c:	0405                	addi	s0,s0,1
    975e:	ff4515e3          	bne	a0,s4,9748 <__sfputs_r+0x1a>
    9762:	40f2                	lw	ra,28(sp)
    9764:	4462                	lw	s0,24(sp)
    9766:	44d2                	lw	s1,20(sp)
    9768:	4942                	lw	s2,16(sp)
    976a:	49b2                	lw	s3,12(sp)
    976c:	4a22                	lw	s4,8(sp)
    976e:	6105                	addi	sp,sp,32
    9770:	8082                	ret

00009772 <_vfiprintf_r>:
_vfiprintf_r():
    9772:	7135                	addi	sp,sp,-160
    9774:	cd22                	sw	s0,152(sp)
    9776:	cb26                	sw	s1,148(sp)
    9778:	c94a                	sw	s2,144(sp)
    977a:	c74e                	sw	s3,140(sp)
    977c:	cf06                	sw	ra,156(sp)
    977e:	c552                	sw	s4,136(sp)
    9780:	c356                	sw	s5,132(sp)
    9782:	c15a                	sw	s6,128(sp)
    9784:	dede                	sw	s7,124(sp)
    9786:	dce2                	sw	s8,120(sp)
    9788:	dae6                	sw	s9,116(sp)
    978a:	89aa                	mv	s3,a0
    978c:	84ae                	mv	s1,a1
    978e:	8932                	mv	s2,a2
    9790:	8436                	mv	s0,a3
    9792:	c509                	beqz	a0,979c <_vfiprintf_r+0x2a>
    9794:	4d1c                	lw	a5,24(a0)
    9796:	e399                	bnez	a5,979c <_vfiprintf_r+0x2a>
    9798:	b7fff0ef          	jal	ra,9316 <__sinit>
    979c:	00001797          	auipc	a5,0x1
    97a0:	a2878793          	addi	a5,a5,-1496 # a1c4 <__sf_fake_stdin>
    97a4:	0cf49c63          	bne	s1,a5,987c <_vfiprintf_r+0x10a>
    97a8:	0049a483          	lw	s1,4(s3)
    97ac:	00c4d783          	lhu	a5,12(s1)
    97b0:	8ba1                	andi	a5,a5,8
    97b2:	c7fd                	beqz	a5,98a0 <_vfiprintf_r+0x12e>
    97b4:	489c                	lw	a5,16(s1)
    97b6:	c7ed                	beqz	a5,98a0 <_vfiprintf_r+0x12e>
    97b8:	02000793          	li	a5,32
    97bc:	02f104a3          	sb	a5,41(sp)
    97c0:	03000793          	li	a5,48
    97c4:	d202                	sw	zero,36(sp)
    97c6:	02f10523          	sb	a5,42(sp)
    97ca:	c622                	sw	s0,12(sp)
    97cc:	02500b93          	li	s7,37
    97d0:	00001a97          	auipc	s5,0x1
    97d4:	a34a8a93          	addi	s5,s5,-1484 # a204 <__sf_fake_stdout+0x20>
    97d8:	4c05                	li	s8,1
    97da:	4b29                	li	s6,10
    97dc:	844a                	mv	s0,s2
    97de:	00044783          	lbu	a5,0(s0)
    97e2:	c399                	beqz	a5,97e8 <_vfiprintf_r+0x76>
    97e4:	0f779163          	bne	a5,s7,98c6 <_vfiprintf_r+0x154>
    97e8:	41240cb3          	sub	s9,s0,s2
    97ec:	000c8e63          	beqz	s9,9808 <_vfiprintf_r+0x96>
    97f0:	86e6                	mv	a3,s9
    97f2:	864a                	mv	a2,s2
    97f4:	85a6                	mv	a1,s1
    97f6:	854e                	mv	a0,s3
    97f8:	f37ff0ef          	jal	ra,972e <__sfputs_r>
    97fc:	57fd                	li	a5,-1
    97fe:	1ef50663          	beq	a0,a5,99ea <_vfiprintf_r+0x278>
    9802:	5692                	lw	a3,36(sp)
    9804:	96e6                	add	a3,a3,s9
    9806:	d236                	sw	a3,36(sp)
    9808:	00044783          	lbu	a5,0(s0)
    980c:	1c078f63          	beqz	a5,99ea <_vfiprintf_r+0x278>
    9810:	57fd                	li	a5,-1
    9812:	00140913          	addi	s2,s0,1
    9816:	c802                	sw	zero,16(sp)
    9818:	ce02                	sw	zero,28(sp)
    981a:	ca3e                	sw	a5,20(sp)
    981c:	cc02                	sw	zero,24(sp)
    981e:	040109a3          	sb	zero,83(sp)
    9822:	d482                	sw	zero,104(sp)
    9824:	00094583          	lbu	a1,0(s2)
    9828:	4615                	li	a2,5
    982a:	8556                	mv	a0,s5
    982c:	2fa5                	jal	9fa4 <memchr>
    982e:	00190413          	addi	s0,s2,1
    9832:	47c2                	lw	a5,16(sp)
    9834:	e959                	bnez	a0,98ca <_vfiprintf_r+0x158>
    9836:	0107f713          	andi	a4,a5,16
    983a:	c709                	beqz	a4,9844 <_vfiprintf_r+0xd2>
    983c:	02000713          	li	a4,32
    9840:	04e109a3          	sb	a4,83(sp)
    9844:	0087f713          	andi	a4,a5,8
    9848:	c709                	beqz	a4,9852 <_vfiprintf_r+0xe0>
    984a:	02b00713          	li	a4,43
    984e:	04e109a3          	sb	a4,83(sp)
    9852:	00094683          	lbu	a3,0(s2)
    9856:	02a00713          	li	a4,42
    985a:	08e68063          	beq	a3,a4,98da <_vfiprintf_r+0x168>
    985e:	47f2                	lw	a5,28(sp)
    9860:	844a                	mv	s0,s2
    9862:	4681                	li	a3,0
    9864:	4625                	li	a2,9
    9866:	00044703          	lbu	a4,0(s0)
    986a:	00140593          	addi	a1,s0,1
    986e:	fd070713          	addi	a4,a4,-48 # ffffdfd0 <_eusrstack+0xdffddfd0>
    9872:	0ae67963          	bgeu	a2,a4,9924 <_vfiprintf_r+0x1b2>
    9876:	cab5                	beqz	a3,98ea <_vfiprintf_r+0x178>
    9878:	ce3e                	sw	a5,28(sp)
    987a:	a885                	j	98ea <_vfiprintf_r+0x178>
    987c:	00001797          	auipc	a5,0x1
    9880:	96878793          	addi	a5,a5,-1688 # a1e4 <__sf_fake_stdout>
    9884:	00f49563          	bne	s1,a5,988e <_vfiprintf_r+0x11c>
    9888:	0089a483          	lw	s1,8(s3)
    988c:	b705                	j	97ac <_vfiprintf_r+0x3a>
    988e:	00001797          	auipc	a5,0x1
    9892:	91678793          	addi	a5,a5,-1770 # a1a4 <__sf_fake_stderr>
    9896:	f0f49be3          	bne	s1,a5,97ac <_vfiprintf_r+0x3a>
    989a:	00c9a483          	lw	s1,12(s3)
    989e:	b739                	j	97ac <_vfiprintf_r+0x3a>
    98a0:	85a6                	mv	a1,s1
    98a2:	854e                	mv	a0,s3
    98a4:	f0aff0ef          	jal	ra,8fae <__swsetup_r>
    98a8:	d901                	beqz	a0,97b8 <_vfiprintf_r+0x46>
    98aa:	557d                	li	a0,-1
    98ac:	40fa                	lw	ra,156(sp)
    98ae:	446a                	lw	s0,152(sp)
    98b0:	44da                	lw	s1,148(sp)
    98b2:	494a                	lw	s2,144(sp)
    98b4:	49ba                	lw	s3,140(sp)
    98b6:	4a2a                	lw	s4,136(sp)
    98b8:	4a9a                	lw	s5,132(sp)
    98ba:	4b0a                	lw	s6,128(sp)
    98bc:	5bf6                	lw	s7,124(sp)
    98be:	5c66                	lw	s8,120(sp)
    98c0:	5cd6                	lw	s9,116(sp)
    98c2:	610d                	addi	sp,sp,160
    98c4:	8082                	ret
    98c6:	0405                	addi	s0,s0,1
    98c8:	bf19                	j	97de <_vfiprintf_r+0x6c>
    98ca:	41550533          	sub	a0,a0,s5
    98ce:	00ac1533          	sll	a0,s8,a0
    98d2:	8fc9                	or	a5,a5,a0
    98d4:	c83e                	sw	a5,16(sp)
    98d6:	8922                	mv	s2,s0
    98d8:	b7b1                	j	9824 <_vfiprintf_r+0xb2>
    98da:	4732                	lw	a4,12(sp)
    98dc:	00470693          	addi	a3,a4,4
    98e0:	4318                	lw	a4,0(a4)
    98e2:	c636                	sw	a3,12(sp)
    98e4:	02074963          	bltz	a4,9916 <_vfiprintf_r+0x1a4>
    98e8:	ce3a                	sw	a4,28(sp)
    98ea:	00044703          	lbu	a4,0(s0)
    98ee:	02e00793          	li	a5,46
    98f2:	04f71f63          	bne	a4,a5,9950 <_vfiprintf_r+0x1de>
    98f6:	00144703          	lbu	a4,1(s0)
    98fa:	02a00793          	li	a5,42
    98fe:	02f71b63          	bne	a4,a5,9934 <_vfiprintf_r+0x1c2>
    9902:	47b2                	lw	a5,12(sp)
    9904:	0409                	addi	s0,s0,2
    9906:	00478713          	addi	a4,a5,4
    990a:	439c                	lw	a5,0(a5)
    990c:	c63a                	sw	a4,12(sp)
    990e:	0207c163          	bltz	a5,9930 <_vfiprintf_r+0x1be>
    9912:	ca3e                	sw	a5,20(sp)
    9914:	a835                	j	9950 <_vfiprintf_r+0x1de>
    9916:	40e00733          	neg	a4,a4
    991a:	0027e793          	ori	a5,a5,2
    991e:	ce3a                	sw	a4,28(sp)
    9920:	c83e                	sw	a5,16(sp)
    9922:	b7e1                	j	98ea <_vfiprintf_r+0x178>
    9924:	036787b3          	mul	a5,a5,s6
    9928:	4685                	li	a3,1
    992a:	842e                	mv	s0,a1
    992c:	97ba                	add	a5,a5,a4
    992e:	bf25                	j	9866 <_vfiprintf_r+0xf4>
    9930:	57fd                	li	a5,-1
    9932:	b7c5                	j	9912 <_vfiprintf_r+0x1a0>
    9934:	0405                	addi	s0,s0,1
    9936:	ca02                	sw	zero,20(sp)
    9938:	4681                	li	a3,0
    993a:	4781                	li	a5,0
    993c:	4625                	li	a2,9
    993e:	00044703          	lbu	a4,0(s0)
    9942:	00140593          	addi	a1,s0,1
    9946:	fd070713          	addi	a4,a4,-48
    994a:	06e67663          	bgeu	a2,a4,99b6 <_vfiprintf_r+0x244>
    994e:	f2f1                	bnez	a3,9912 <_vfiprintf_r+0x1a0>
    9950:	00044583          	lbu	a1,0(s0)
    9954:	460d                	li	a2,3
    9956:	00001517          	auipc	a0,0x1
    995a:	8b650513          	addi	a0,a0,-1866 # a20c <__sf_fake_stdout+0x28>
    995e:	2599                	jal	9fa4 <memchr>
    9960:	cd11                	beqz	a0,997c <_vfiprintf_r+0x20a>
    9962:	00001797          	auipc	a5,0x1
    9966:	8aa78793          	addi	a5,a5,-1878 # a20c <__sf_fake_stdout+0x28>
    996a:	8d1d                	sub	a0,a0,a5
    996c:	04000793          	li	a5,64
    9970:	00a797b3          	sll	a5,a5,a0
    9974:	4542                	lw	a0,16(sp)
    9976:	0405                	addi	s0,s0,1
    9978:	8d5d                	or	a0,a0,a5
    997a:	c82a                	sw	a0,16(sp)
    997c:	00044583          	lbu	a1,0(s0)
    9980:	4619                	li	a2,6
    9982:	00001517          	auipc	a0,0x1
    9986:	88e50513          	addi	a0,a0,-1906 # a210 <__sf_fake_stdout+0x2c>
    998a:	00140913          	addi	s2,s0,1
    998e:	02b10423          	sb	a1,40(sp)
    9992:	2d09                	jal	9fa4 <memchr>
    9994:	c13d                	beqz	a0,99fa <_vfiprintf_r+0x288>
    9996:	ffff6797          	auipc	a5,0xffff6
    999a:	66a78793          	addi	a5,a5,1642 # 0 <_sinit>
    999e:	e795                	bnez	a5,99ca <_vfiprintf_r+0x258>
    99a0:	4742                	lw	a4,16(sp)
    99a2:	47b2                	lw	a5,12(sp)
    99a4:	10077713          	andi	a4,a4,256
    99a8:	cf09                	beqz	a4,99c2 <_vfiprintf_r+0x250>
    99aa:	0791                	addi	a5,a5,4
    99ac:	c63e                	sw	a5,12(sp)
    99ae:	5792                	lw	a5,36(sp)
    99b0:	97d2                	add	a5,a5,s4
    99b2:	d23e                	sw	a5,36(sp)
    99b4:	b525                	j	97dc <_vfiprintf_r+0x6a>
    99b6:	036787b3          	mul	a5,a5,s6
    99ba:	4685                	li	a3,1
    99bc:	842e                	mv	s0,a1
    99be:	97ba                	add	a5,a5,a4
    99c0:	bfbd                	j	993e <_vfiprintf_r+0x1cc>
    99c2:	079d                	addi	a5,a5,7
    99c4:	9be1                	andi	a5,a5,-8
    99c6:	07a1                	addi	a5,a5,8
    99c8:	b7d5                	j	99ac <_vfiprintf_r+0x23a>
    99ca:	0078                	addi	a4,sp,12
    99cc:	00000697          	auipc	a3,0x0
    99d0:	d6268693          	addi	a3,a3,-670 # 972e <__sfputs_r>
    99d4:	8626                	mv	a2,s1
    99d6:	080c                	addi	a1,sp,16
    99d8:	854e                	mv	a0,s3
    99da:	00000097          	auipc	ra,0x0
    99de:	000000e7          	jalr	zero # 0 <_sinit>
    99e2:	57fd                	li	a5,-1
    99e4:	8a2a                	mv	s4,a0
    99e6:	fcf514e3          	bne	a0,a5,99ae <_vfiprintf_r+0x23c>
    99ea:	00c4d783          	lhu	a5,12(s1)
    99ee:	0407f793          	andi	a5,a5,64
    99f2:	ea079ce3          	bnez	a5,98aa <_vfiprintf_r+0x138>
    99f6:	5512                	lw	a0,36(sp)
    99f8:	bd55                	j	98ac <_vfiprintf_r+0x13a>
    99fa:	0078                	addi	a4,sp,12
    99fc:	00000697          	auipc	a3,0x0
    9a00:	d3268693          	addi	a3,a3,-718 # 972e <__sfputs_r>
    9a04:	8626                	mv	a2,s1
    9a06:	080c                	addi	a1,sp,16
    9a08:	854e                	mv	a0,s3
    9a0a:	2a01                	jal	9b1a <_printf_i>
    9a0c:	bfd9                	j	99e2 <_vfiprintf_r+0x270>

00009a0e <_printf_common>:
_printf_common():
    9a0e:	7179                	addi	sp,sp,-48
    9a10:	ca56                	sw	s5,20(sp)
    9a12:	499c                	lw	a5,16(a1)
    9a14:	8aba                	mv	s5,a4
    9a16:	4598                	lw	a4,8(a1)
    9a18:	d422                	sw	s0,40(sp)
    9a1a:	d226                	sw	s1,36(sp)
    9a1c:	ce4e                	sw	s3,28(sp)
    9a1e:	cc52                	sw	s4,24(sp)
    9a20:	d606                	sw	ra,44(sp)
    9a22:	d04a                	sw	s2,32(sp)
    9a24:	c85a                	sw	s6,16(sp)
    9a26:	c65e                	sw	s7,12(sp)
    9a28:	89aa                	mv	s3,a0
    9a2a:	842e                	mv	s0,a1
    9a2c:	84b2                	mv	s1,a2
    9a2e:	8a36                	mv	s4,a3
    9a30:	00e7d363          	bge	a5,a4,9a36 <_printf_common+0x28>
    9a34:	87ba                	mv	a5,a4
    9a36:	c09c                	sw	a5,0(s1)
    9a38:	04344703          	lbu	a4,67(s0)
    9a3c:	c319                	beqz	a4,9a42 <_printf_common+0x34>
    9a3e:	0785                	addi	a5,a5,1
    9a40:	c09c                	sw	a5,0(s1)
    9a42:	401c                	lw	a5,0(s0)
    9a44:	0207f793          	andi	a5,a5,32
    9a48:	c781                	beqz	a5,9a50 <_printf_common+0x42>
    9a4a:	409c                	lw	a5,0(s1)
    9a4c:	0789                	addi	a5,a5,2
    9a4e:	c09c                	sw	a5,0(s1)
    9a50:	00042903          	lw	s2,0(s0)
    9a54:	00697913          	andi	s2,s2,6
    9a58:	00091a63          	bnez	s2,9a6c <_printf_common+0x5e>
    9a5c:	01940b13          	addi	s6,s0,25
    9a60:	5bfd                	li	s7,-1
    9a62:	445c                	lw	a5,12(s0)
    9a64:	4098                	lw	a4,0(s1)
    9a66:	8f99                	sub	a5,a5,a4
    9a68:	04f94c63          	blt	s2,a5,9ac0 <_printf_common+0xb2>
    9a6c:	401c                	lw	a5,0(s0)
    9a6e:	04344683          	lbu	a3,67(s0)
    9a72:	0207f793          	andi	a5,a5,32
    9a76:	00d036b3          	snez	a3,a3
    9a7a:	eba5                	bnez	a5,9aea <_printf_common+0xdc>
    9a7c:	04340613          	addi	a2,s0,67
    9a80:	85d2                	mv	a1,s4
    9a82:	854e                	mv	a0,s3
    9a84:	9a82                	jalr	s5
    9a86:	57fd                	li	a5,-1
    9a88:	04f50363          	beq	a0,a5,9ace <_printf_common+0xc0>
    9a8c:	401c                	lw	a5,0(s0)
    9a8e:	4611                	li	a2,4
    9a90:	4098                	lw	a4,0(s1)
    9a92:	8b99                	andi	a5,a5,6
    9a94:	4454                	lw	a3,12(s0)
    9a96:	4481                	li	s1,0
    9a98:	00c79763          	bne	a5,a2,9aa6 <_printf_common+0x98>
    9a9c:	40e684b3          	sub	s1,a3,a4
    9aa0:	0004d363          	bgez	s1,9aa6 <_printf_common+0x98>
    9aa4:	4481                	li	s1,0
    9aa6:	441c                	lw	a5,8(s0)
    9aa8:	4818                	lw	a4,16(s0)
    9aaa:	00f75463          	bge	a4,a5,9ab2 <_printf_common+0xa4>
    9aae:	8f99                	sub	a5,a5,a4
    9ab0:	94be                	add	s1,s1,a5
    9ab2:	4901                	li	s2,0
    9ab4:	0469                	addi	s0,s0,26
    9ab6:	5b7d                	li	s6,-1
    9ab8:	05249863          	bne	s1,s2,9b08 <_printf_common+0xfa>
    9abc:	4501                	li	a0,0
    9abe:	a809                	j	9ad0 <_printf_common+0xc2>
    9ac0:	4685                	li	a3,1
    9ac2:	865a                	mv	a2,s6
    9ac4:	85d2                	mv	a1,s4
    9ac6:	854e                	mv	a0,s3
    9ac8:	9a82                	jalr	s5
    9aca:	01751e63          	bne	a0,s7,9ae6 <_printf_common+0xd8>
    9ace:	557d                	li	a0,-1
    9ad0:	50b2                	lw	ra,44(sp)
    9ad2:	5422                	lw	s0,40(sp)
    9ad4:	5492                	lw	s1,36(sp)
    9ad6:	5902                	lw	s2,32(sp)
    9ad8:	49f2                	lw	s3,28(sp)
    9ada:	4a62                	lw	s4,24(sp)
    9adc:	4ad2                	lw	s5,20(sp)
    9ade:	4b42                	lw	s6,16(sp)
    9ae0:	4bb2                	lw	s7,12(sp)
    9ae2:	6145                	addi	sp,sp,48
    9ae4:	8082                	ret
    9ae6:	0905                	addi	s2,s2,1
    9ae8:	bfad                	j	9a62 <_printf_common+0x54>
    9aea:	00d40733          	add	a4,s0,a3
    9aee:	03000613          	li	a2,48
    9af2:	04c701a3          	sb	a2,67(a4)
    9af6:	04544703          	lbu	a4,69(s0)
    9afa:	00168793          	addi	a5,a3,1
    9afe:	97a2                	add	a5,a5,s0
    9b00:	0689                	addi	a3,a3,2
    9b02:	04e781a3          	sb	a4,67(a5)
    9b06:	bf9d                	j	9a7c <_printf_common+0x6e>
    9b08:	4685                	li	a3,1
    9b0a:	8622                	mv	a2,s0
    9b0c:	85d2                	mv	a1,s4
    9b0e:	854e                	mv	a0,s3
    9b10:	9a82                	jalr	s5
    9b12:	fb650ee3          	beq	a0,s6,9ace <_printf_common+0xc0>
    9b16:	0905                	addi	s2,s2,1
    9b18:	b745                	j	9ab8 <_printf_common+0xaa>

00009b1a <_printf_i>:
_printf_i():
    9b1a:	7179                	addi	sp,sp,-48
    9b1c:	d422                	sw	s0,40(sp)
    9b1e:	d226                	sw	s1,36(sp)
    9b20:	d04a                	sw	s2,32(sp)
    9b22:	ce4e                	sw	s3,28(sp)
    9b24:	d606                	sw	ra,44(sp)
    9b26:	cc52                	sw	s4,24(sp)
    9b28:	ca56                	sw	s5,20(sp)
    9b2a:	c85a                	sw	s6,16(sp)
    9b2c:	89b6                	mv	s3,a3
    9b2e:	0185c683          	lbu	a3,24(a1)
    9b32:	06e00793          	li	a5,110
    9b36:	8932                	mv	s2,a2
    9b38:	84aa                	mv	s1,a0
    9b3a:	842e                	mv	s0,a1
    9b3c:	04358613          	addi	a2,a1,67
    9b40:	1ef68163          	beq	a3,a5,9d22 <_printf_i+0x208>
    9b44:	06d7e263          	bltu	a5,a3,9ba8 <_printf_i+0x8e>
    9b48:	06300793          	li	a5,99
    9b4c:	0af68263          	beq	a3,a5,9bf0 <_printf_i+0xd6>
    9b50:	00d7ed63          	bltu	a5,a3,9b6a <_printf_i+0x50>
    9b54:	1e068b63          	beqz	a3,9d4a <_printf_i+0x230>
    9b58:	05800793          	li	a5,88
    9b5c:	16f68763          	beq	a3,a5,9cca <_printf_i+0x1b0>
    9b60:	04240a93          	addi	s5,s0,66
    9b64:	04d40123          	sb	a3,66(s0)
    9b68:	a869                	j	9c02 <_printf_i+0xe8>
    9b6a:	06400793          	li	a5,100
    9b6e:	00f68663          	beq	a3,a5,9b7a <_printf_i+0x60>
    9b72:	06900793          	li	a5,105
    9b76:	fef695e3          	bne	a3,a5,9b60 <_printf_i+0x46>
    9b7a:	401c                	lw	a5,0(s0)
    9b7c:	4308                	lw	a0,0(a4)
    9b7e:	0807f693          	andi	a3,a5,128
    9b82:	00450593          	addi	a1,a0,4
    9b86:	c2c1                	beqz	a3,9c06 <_printf_i+0xec>
    9b88:	411c                	lw	a5,0(a0)
    9b8a:	c30c                	sw	a1,0(a4)
    9b8c:	0007d863          	bgez	a5,9b9c <_printf_i+0x82>
    9b90:	02d00713          	li	a4,45
    9b94:	40f007b3          	neg	a5,a5
    9b98:	04e401a3          	sb	a4,67(s0)
    9b9c:	00000697          	auipc	a3,0x0
    9ba0:	67c68693          	addi	a3,a3,1660 # a218 <__sf_fake_stdout+0x34>
    9ba4:	4729                	li	a4,10
    9ba6:	a065                	j	9c4e <_printf_i+0x134>
    9ba8:	07300793          	li	a5,115
    9bac:	1af68363          	beq	a3,a5,9d52 <_printf_i+0x238>
    9bb0:	00d7ef63          	bltu	a5,a3,9bce <_printf_i+0xb4>
    9bb4:	06f00793          	li	a5,111
    9bb8:	04f68f63          	beq	a3,a5,9c16 <_printf_i+0xfc>
    9bbc:	07000793          	li	a5,112
    9bc0:	faf690e3          	bne	a3,a5,9b60 <_printf_i+0x46>
    9bc4:	419c                	lw	a5,0(a1)
    9bc6:	0207e793          	ori	a5,a5,32
    9bca:	c19c                	sw	a5,0(a1)
    9bcc:	a809                	j	9bde <_printf_i+0xc4>
    9bce:	07500793          	li	a5,117
    9bd2:	04f68263          	beq	a3,a5,9c16 <_printf_i+0xfc>
    9bd6:	07800793          	li	a5,120
    9bda:	f8f693e3          	bne	a3,a5,9b60 <_printf_i+0x46>
    9bde:	07800793          	li	a5,120
    9be2:	04f402a3          	sb	a5,69(s0)
    9be6:	00000697          	auipc	a3,0x0
    9bea:	64668693          	addi	a3,a3,1606 # a22c <__sf_fake_stdout+0x48>
    9bee:	a0e5                	j	9cd6 <_printf_i+0x1bc>
    9bf0:	431c                	lw	a5,0(a4)
    9bf2:	04258a93          	addi	s5,a1,66
    9bf6:	00478693          	addi	a3,a5,4
    9bfa:	439c                	lw	a5,0(a5)
    9bfc:	c314                	sw	a3,0(a4)
    9bfe:	04f58123          	sb	a5,66(a1)
    9c02:	4785                	li	a5,1
    9c04:	a2b5                	j	9d70 <_printf_i+0x256>
    9c06:	0407f693          	andi	a3,a5,64
    9c0a:	411c                	lw	a5,0(a0)
    9c0c:	c30c                	sw	a1,0(a4)
    9c0e:	debd                	beqz	a3,9b8c <_printf_i+0x72>
    9c10:	07c2                	slli	a5,a5,0x10
    9c12:	87c1                	srai	a5,a5,0x10
    9c14:	bfa5                	j	9b8c <_printf_i+0x72>
    9c16:	400c                	lw	a1,0(s0)
    9c18:	431c                	lw	a5,0(a4)
    9c1a:	0805f813          	andi	a6,a1,128
    9c1e:	00478513          	addi	a0,a5,4
    9c22:	00080563          	beqz	a6,9c2c <_printf_i+0x112>
    9c26:	c308                	sw	a0,0(a4)
    9c28:	439c                	lw	a5,0(a5)
    9c2a:	a039                	j	9c38 <_printf_i+0x11e>
    9c2c:	0405f593          	andi	a1,a1,64
    9c30:	c308                	sw	a0,0(a4)
    9c32:	d9fd                	beqz	a1,9c28 <_printf_i+0x10e>
    9c34:	0007d783          	lhu	a5,0(a5)
    9c38:	06f00713          	li	a4,111
    9c3c:	0ce68b63          	beq	a3,a4,9d12 <_printf_i+0x1f8>
    9c40:	00000697          	auipc	a3,0x0
    9c44:	5d868693          	addi	a3,a3,1496 # a218 <__sf_fake_stdout+0x34>
    9c48:	4729                	li	a4,10
    9c4a:	040401a3          	sb	zero,67(s0)
    9c4e:	404c                	lw	a1,4(s0)
    9c50:	c40c                	sw	a1,8(s0)
    9c52:	0005c563          	bltz	a1,9c5c <_printf_i+0x142>
    9c56:	4008                	lw	a0,0(s0)
    9c58:	996d                	andi	a0,a0,-5
    9c5a:	c008                	sw	a0,0(s0)
    9c5c:	e399                	bnez	a5,9c62 <_printf_i+0x148>
    9c5e:	8ab2                	mv	s5,a2
    9c60:	cd91                	beqz	a1,9c7c <_printf_i+0x162>
    9c62:	8ab2                	mv	s5,a2
    9c64:	02e7f5b3          	remu	a1,a5,a4
    9c68:	1afd                	addi	s5,s5,-1
    9c6a:	95b6                	add	a1,a1,a3
    9c6c:	0005c583          	lbu	a1,0(a1)
    9c70:	00ba8023          	sb	a1,0(s5)
    9c74:	02e7d5b3          	divu	a1,a5,a4
    9c78:	0ae7f363          	bgeu	a5,a4,9d1e <_printf_i+0x204>
    9c7c:	47a1                	li	a5,8
    9c7e:	00f71e63          	bne	a4,a5,9c9a <_printf_i+0x180>
    9c82:	401c                	lw	a5,0(s0)
    9c84:	8b85                	andi	a5,a5,1
    9c86:	cb91                	beqz	a5,9c9a <_printf_i+0x180>
    9c88:	4058                	lw	a4,4(s0)
    9c8a:	481c                	lw	a5,16(s0)
    9c8c:	00e7c763          	blt	a5,a4,9c9a <_printf_i+0x180>
    9c90:	03000793          	li	a5,48
    9c94:	fefa8fa3          	sb	a5,-1(s5)
    9c98:	1afd                	addi	s5,s5,-1
    9c9a:	41560633          	sub	a2,a2,s5
    9c9e:	c810                	sw	a2,16(s0)
    9ca0:	874e                	mv	a4,s3
    9ca2:	86ca                	mv	a3,s2
    9ca4:	0070                	addi	a2,sp,12
    9ca6:	85a2                	mv	a1,s0
    9ca8:	8526                	mv	a0,s1
    9caa:	d65ff0ef          	jal	ra,9a0e <_printf_common>
    9cae:	5a7d                	li	s4,-1
    9cb0:	0d451463          	bne	a0,s4,9d78 <_printf_i+0x25e>
    9cb4:	557d                	li	a0,-1
    9cb6:	50b2                	lw	ra,44(sp)
    9cb8:	5422                	lw	s0,40(sp)
    9cba:	5492                	lw	s1,36(sp)
    9cbc:	5902                	lw	s2,32(sp)
    9cbe:	49f2                	lw	s3,28(sp)
    9cc0:	4a62                	lw	s4,24(sp)
    9cc2:	4ad2                	lw	s5,20(sp)
    9cc4:	4b42                	lw	s6,16(sp)
    9cc6:	6145                	addi	sp,sp,48
    9cc8:	8082                	ret
    9cca:	04d582a3          	sb	a3,69(a1)
    9cce:	00000697          	auipc	a3,0x0
    9cd2:	54a68693          	addi	a3,a3,1354 # a218 <__sf_fake_stdout+0x34>
    9cd6:	400c                	lw	a1,0(s0)
    9cd8:	4308                	lw	a0,0(a4)
    9cda:	0805f813          	andi	a6,a1,128
    9cde:	411c                	lw	a5,0(a0)
    9ce0:	0511                	addi	a0,a0,4
    9ce2:	02080063          	beqz	a6,9d02 <_printf_i+0x1e8>
    9ce6:	c308                	sw	a0,0(a4)
    9ce8:	0015f713          	andi	a4,a1,1
    9cec:	c701                	beqz	a4,9cf4 <_printf_i+0x1da>
    9cee:	0205e593          	ori	a1,a1,32
    9cf2:	c00c                	sw	a1,0(s0)
    9cf4:	4741                	li	a4,16
    9cf6:	fbb1                	bnez	a5,9c4a <_printf_i+0x130>
    9cf8:	400c                	lw	a1,0(s0)
    9cfa:	fdf5f593          	andi	a1,a1,-33
    9cfe:	c00c                	sw	a1,0(s0)
    9d00:	b7a9                	j	9c4a <_printf_i+0x130>
    9d02:	0405f813          	andi	a6,a1,64
    9d06:	c308                	sw	a0,0(a4)
    9d08:	fe0800e3          	beqz	a6,9ce8 <_printf_i+0x1ce>
    9d0c:	07c2                	slli	a5,a5,0x10
    9d0e:	83c1                	srli	a5,a5,0x10
    9d10:	bfe1                	j	9ce8 <_printf_i+0x1ce>
    9d12:	00000697          	auipc	a3,0x0
    9d16:	50668693          	addi	a3,a3,1286 # a218 <__sf_fake_stdout+0x34>
    9d1a:	4721                	li	a4,8
    9d1c:	b73d                	j	9c4a <_printf_i+0x130>
    9d1e:	87ae                	mv	a5,a1
    9d20:	b791                	j	9c64 <_printf_i+0x14a>
    9d22:	4194                	lw	a3,0(a1)
    9d24:	431c                	lw	a5,0(a4)
    9d26:	49cc                	lw	a1,20(a1)
    9d28:	0806f813          	andi	a6,a3,128
    9d2c:	00478513          	addi	a0,a5,4
    9d30:	00080663          	beqz	a6,9d3c <_printf_i+0x222>
    9d34:	c308                	sw	a0,0(a4)
    9d36:	439c                	lw	a5,0(a5)
    9d38:	c38c                	sw	a1,0(a5)
    9d3a:	a801                	j	9d4a <_printf_i+0x230>
    9d3c:	c308                	sw	a0,0(a4)
    9d3e:	0406f693          	andi	a3,a3,64
    9d42:	439c                	lw	a5,0(a5)
    9d44:	daf5                	beqz	a3,9d38 <_printf_i+0x21e>
    9d46:	00b79023          	sh	a1,0(a5)
    9d4a:	00042823          	sw	zero,16(s0)
    9d4e:	8ab2                	mv	s5,a2
    9d50:	bf81                	j	9ca0 <_printf_i+0x186>
    9d52:	431c                	lw	a5,0(a4)
    9d54:	41d0                	lw	a2,4(a1)
    9d56:	4581                	li	a1,0
    9d58:	00478693          	addi	a3,a5,4
    9d5c:	c314                	sw	a3,0(a4)
    9d5e:	0007aa83          	lw	s5,0(a5)
    9d62:	8556                	mv	a0,s5
    9d64:	2481                	jal	9fa4 <memchr>
    9d66:	c501                	beqz	a0,9d6e <_printf_i+0x254>
    9d68:	41550533          	sub	a0,a0,s5
    9d6c:	c048                	sw	a0,4(s0)
    9d6e:	405c                	lw	a5,4(s0)
    9d70:	c81c                	sw	a5,16(s0)
    9d72:	040401a3          	sb	zero,67(s0)
    9d76:	b72d                	j	9ca0 <_printf_i+0x186>
    9d78:	4814                	lw	a3,16(s0)
    9d7a:	8656                	mv	a2,s5
    9d7c:	85ca                	mv	a1,s2
    9d7e:	8526                	mv	a0,s1
    9d80:	9982                	jalr	s3
    9d82:	f34509e3          	beq	a0,s4,9cb4 <_printf_i+0x19a>
    9d86:	401c                	lw	a5,0(s0)
    9d88:	8b89                	andi	a5,a5,2
    9d8a:	e78d                	bnez	a5,9db4 <_printf_i+0x29a>
    9d8c:	47b2                	lw	a5,12(sp)
    9d8e:	4448                	lw	a0,12(s0)
    9d90:	f2f553e3          	bge	a0,a5,9cb6 <_printf_i+0x19c>
    9d94:	853e                	mv	a0,a5
    9d96:	b705                	j	9cb6 <_printf_i+0x19c>
    9d98:	4685                	li	a3,1
    9d9a:	8656                	mv	a2,s5
    9d9c:	85ca                	mv	a1,s2
    9d9e:	8526                	mv	a0,s1
    9da0:	9982                	jalr	s3
    9da2:	f16509e3          	beq	a0,s6,9cb4 <_printf_i+0x19a>
    9da6:	0a05                	addi	s4,s4,1
    9da8:	445c                	lw	a5,12(s0)
    9daa:	4732                	lw	a4,12(sp)
    9dac:	8f99                	sub	a5,a5,a4
    9dae:	fefa45e3          	blt	s4,a5,9d98 <_printf_i+0x27e>
    9db2:	bfe9                	j	9d8c <_printf_i+0x272>
    9db4:	4a01                	li	s4,0
    9db6:	01940a93          	addi	s5,s0,25
    9dba:	5b7d                	li	s6,-1
    9dbc:	b7f5                	j	9da8 <_printf_i+0x28e>

00009dbe <_sbrk_r>:
_sbrk_r():
    9dbe:	1141                	addi	sp,sp,-16
    9dc0:	c422                	sw	s0,8(sp)
    9dc2:	842a                	mv	s0,a0
    9dc4:	852e                	mv	a0,a1
    9dc6:	20014797          	auipc	a5,0x20014
    9dca:	1007a323          	sw	zero,262(a5) # 2001decc <errno>
    9dce:	c606                	sw	ra,12(sp)
    9dd0:	2c9d                	jal	a046 <_sbrk>
    9dd2:	57fd                	li	a5,-1
    9dd4:	00f51963          	bne	a0,a5,9de6 <_sbrk_r+0x28>
    9dd8:	20014797          	auipc	a5,0x20014
    9ddc:	0f478793          	addi	a5,a5,244 # 2001decc <errno>
    9de0:	439c                	lw	a5,0(a5)
    9de2:	c391                	beqz	a5,9de6 <_sbrk_r+0x28>
    9de4:	c01c                	sw	a5,0(s0)
    9de6:	40b2                	lw	ra,12(sp)
    9de8:	4422                	lw	s0,8(sp)
    9dea:	0141                	addi	sp,sp,16
    9dec:	8082                	ret

00009dee <__sread>:
__sread():
    9dee:	1141                	addi	sp,sp,-16
    9df0:	c422                	sw	s0,8(sp)
    9df2:	842e                	mv	s0,a1
    9df4:	00e59583          	lh	a1,14(a1)
    9df8:	c606                	sw	ra,12(sp)
    9dfa:	22e1                	jal	9fc2 <_read_r>
    9dfc:	00054963          	bltz	a0,9e0e <__sread+0x20>
    9e00:	487c                	lw	a5,84(s0)
    9e02:	97aa                	add	a5,a5,a0
    9e04:	c87c                	sw	a5,84(s0)
    9e06:	40b2                	lw	ra,12(sp)
    9e08:	4422                	lw	s0,8(sp)
    9e0a:	0141                	addi	sp,sp,16
    9e0c:	8082                	ret
    9e0e:	00c45783          	lhu	a5,12(s0)
    9e12:	777d                	lui	a4,0xfffff
    9e14:	177d                	addi	a4,a4,-1
    9e16:	8ff9                	and	a5,a5,a4
    9e18:	00f41623          	sh	a5,12(s0)
    9e1c:	b7ed                	j	9e06 <__sread+0x18>

00009e1e <__swrite>:
__swrite():
    9e1e:	00c5d783          	lhu	a5,12(a1)
    9e22:	1101                	addi	sp,sp,-32
    9e24:	cc22                	sw	s0,24(sp)
    9e26:	ca26                	sw	s1,20(sp)
    9e28:	c84a                	sw	s2,16(sp)
    9e2a:	c64e                	sw	s3,12(sp)
    9e2c:	ce06                	sw	ra,28(sp)
    9e2e:	1007f793          	andi	a5,a5,256
    9e32:	84aa                	mv	s1,a0
    9e34:	842e                	mv	s0,a1
    9e36:	8932                	mv	s2,a2
    9e38:	89b6                	mv	s3,a3
    9e3a:	c791                	beqz	a5,9e46 <__swrite+0x28>
    9e3c:	00e59583          	lh	a1,14(a1)
    9e40:	4689                	li	a3,2
    9e42:	4601                	li	a2,0
    9e44:	2235                	jal	9f70 <_lseek_r>
    9e46:	00c45783          	lhu	a5,12(s0)
    9e4a:	777d                	lui	a4,0xfffff
    9e4c:	177d                	addi	a4,a4,-1
    9e4e:	8ff9                	and	a5,a5,a4
    9e50:	00f41623          	sh	a5,12(s0)
    9e54:	00e41583          	lh	a1,14(s0)
    9e58:	4462                	lw	s0,24(sp)
    9e5a:	40f2                	lw	ra,28(sp)
    9e5c:	86ce                	mv	a3,s3
    9e5e:	864a                	mv	a2,s2
    9e60:	49b2                	lw	s3,12(sp)
    9e62:	4942                	lw	s2,16(sp)
    9e64:	8526                	mv	a0,s1
    9e66:	44d2                	lw	s1,20(sp)
    9e68:	6105                	addi	sp,sp,32
    9e6a:	a83d                	j	9ea8 <_write_r>

00009e6c <__sseek>:
__sseek():
    9e6c:	1141                	addi	sp,sp,-16
    9e6e:	c422                	sw	s0,8(sp)
    9e70:	842e                	mv	s0,a1
    9e72:	00e59583          	lh	a1,14(a1)
    9e76:	c606                	sw	ra,12(sp)
    9e78:	28e5                	jal	9f70 <_lseek_r>
    9e7a:	57fd                	li	a5,-1
    9e7c:	00c45703          	lhu	a4,12(s0)
    9e80:	00f51b63          	bne	a0,a5,9e96 <__sseek+0x2a>
    9e84:	77fd                	lui	a5,0xfffff
    9e86:	17fd                	addi	a5,a5,-1
    9e88:	8ff9                	and	a5,a5,a4
    9e8a:	00f41623          	sh	a5,12(s0)
    9e8e:	40b2                	lw	ra,12(sp)
    9e90:	4422                	lw	s0,8(sp)
    9e92:	0141                	addi	sp,sp,16
    9e94:	8082                	ret
    9e96:	6785                	lui	a5,0x1
    9e98:	8fd9                	or	a5,a5,a4
    9e9a:	00f41623          	sh	a5,12(s0)
    9e9e:	c868                	sw	a0,84(s0)
    9ea0:	b7fd                	j	9e8e <__sseek+0x22>

00009ea2 <__sclose>:
__sclose():
    9ea2:	00e59583          	lh	a1,14(a1)
    9ea6:	a825                	j	9ede <_close_r>

00009ea8 <_write_r>:
_write_r():
    9ea8:	1141                	addi	sp,sp,-16
    9eaa:	c422                	sw	s0,8(sp)
    9eac:	842a                	mv	s0,a0
    9eae:	852e                	mv	a0,a1
    9eb0:	85b2                	mv	a1,a2
    9eb2:	8636                	mv	a2,a3
    9eb4:	20014797          	auipc	a5,0x20014
    9eb8:	0007ac23          	sw	zero,24(a5) # 2001decc <errno>
    9ebc:	c606                	sw	ra,12(sp)
    9ebe:	874f80ef          	jal	ra,1f32 <_write>
    9ec2:	57fd                	li	a5,-1
    9ec4:	00f51963          	bne	a0,a5,9ed6 <_write_r+0x2e>
    9ec8:	20014797          	auipc	a5,0x20014
    9ecc:	00478793          	addi	a5,a5,4 # 2001decc <errno>
    9ed0:	439c                	lw	a5,0(a5)
    9ed2:	c391                	beqz	a5,9ed6 <_write_r+0x2e>
    9ed4:	c01c                	sw	a5,0(s0)
    9ed6:	40b2                	lw	ra,12(sp)
    9ed8:	4422                	lw	s0,8(sp)
    9eda:	0141                	addi	sp,sp,16
    9edc:	8082                	ret

00009ede <_close_r>:
_close_r():
    9ede:	1141                	addi	sp,sp,-16
    9ee0:	c422                	sw	s0,8(sp)
    9ee2:	842a                	mv	s0,a0
    9ee4:	852e                	mv	a0,a1
    9ee6:	20014797          	auipc	a5,0x20014
    9eea:	fe07a323          	sw	zero,-26(a5) # 2001decc <errno>
    9eee:	c606                	sw	ra,12(sp)
    9ef0:	2219                	jal	9ff6 <_close>
    9ef2:	57fd                	li	a5,-1
    9ef4:	00f51963          	bne	a0,a5,9f06 <_close_r+0x28>
    9ef8:	20014797          	auipc	a5,0x20014
    9efc:	fd478793          	addi	a5,a5,-44 # 2001decc <errno>
    9f00:	439c                	lw	a5,0(a5)
    9f02:	c391                	beqz	a5,9f06 <_close_r+0x28>
    9f04:	c01c                	sw	a5,0(s0)
    9f06:	40b2                	lw	ra,12(sp)
    9f08:	4422                	lw	s0,8(sp)
    9f0a:	0141                	addi	sp,sp,16
    9f0c:	8082                	ret

00009f0e <_fstat_r>:
_fstat_r():
    9f0e:	1141                	addi	sp,sp,-16
    9f10:	c422                	sw	s0,8(sp)
    9f12:	842a                	mv	s0,a0
    9f14:	852e                	mv	a0,a1
    9f16:	85b2                	mv	a1,a2
    9f18:	20014797          	auipc	a5,0x20014
    9f1c:	fa07aa23          	sw	zero,-76(a5) # 2001decc <errno>
    9f20:	c606                	sw	ra,12(sp)
    9f22:	20d5                	jal	a006 <_fstat>
    9f24:	57fd                	li	a5,-1
    9f26:	00f51963          	bne	a0,a5,9f38 <_fstat_r+0x2a>
    9f2a:	20014797          	auipc	a5,0x20014
    9f2e:	fa278793          	addi	a5,a5,-94 # 2001decc <errno>
    9f32:	439c                	lw	a5,0(a5)
    9f34:	c391                	beqz	a5,9f38 <_fstat_r+0x2a>
    9f36:	c01c                	sw	a5,0(s0)
    9f38:	40b2                	lw	ra,12(sp)
    9f3a:	4422                	lw	s0,8(sp)
    9f3c:	0141                	addi	sp,sp,16
    9f3e:	8082                	ret

00009f40 <_isatty_r>:
_isatty_r():
    9f40:	1141                	addi	sp,sp,-16
    9f42:	c422                	sw	s0,8(sp)
    9f44:	842a                	mv	s0,a0
    9f46:	852e                	mv	a0,a1
    9f48:	20014797          	auipc	a5,0x20014
    9f4c:	f807a223          	sw	zero,-124(a5) # 2001decc <errno>
    9f50:	c606                	sw	ra,12(sp)
    9f52:	20d1                	jal	a016 <_isatty>
    9f54:	57fd                	li	a5,-1
    9f56:	00f51963          	bne	a0,a5,9f68 <_isatty_r+0x28>
    9f5a:	20014797          	auipc	a5,0x20014
    9f5e:	f7278793          	addi	a5,a5,-142 # 2001decc <errno>
    9f62:	439c                	lw	a5,0(a5)
    9f64:	c391                	beqz	a5,9f68 <_isatty_r+0x28>
    9f66:	c01c                	sw	a5,0(s0)
    9f68:	40b2                	lw	ra,12(sp)
    9f6a:	4422                	lw	s0,8(sp)
    9f6c:	0141                	addi	sp,sp,16
    9f6e:	8082                	ret

00009f70 <_lseek_r>:
_lseek_r():
    9f70:	1141                	addi	sp,sp,-16
    9f72:	c422                	sw	s0,8(sp)
    9f74:	842a                	mv	s0,a0
    9f76:	852e                	mv	a0,a1
    9f78:	85b2                	mv	a1,a2
    9f7a:	8636                	mv	a2,a3
    9f7c:	20014797          	auipc	a5,0x20014
    9f80:	f407a823          	sw	zero,-176(a5) # 2001decc <errno>
    9f84:	c606                	sw	ra,12(sp)
    9f86:	2045                	jal	a026 <_lseek>
    9f88:	57fd                	li	a5,-1
    9f8a:	00f51963          	bne	a0,a5,9f9c <_lseek_r+0x2c>
    9f8e:	20014797          	auipc	a5,0x20014
    9f92:	f3e78793          	addi	a5,a5,-194 # 2001decc <errno>
    9f96:	439c                	lw	a5,0(a5)
    9f98:	c391                	beqz	a5,9f9c <_lseek_r+0x2c>
    9f9a:	c01c                	sw	a5,0(s0)
    9f9c:	40b2                	lw	ra,12(sp)
    9f9e:	4422                	lw	s0,8(sp)
    9fa0:	0141                	addi	sp,sp,16
    9fa2:	8082                	ret

00009fa4 <memchr>:
memchr():
    9fa4:	0ff5f593          	andi	a1,a1,255
    9fa8:	962a                	add	a2,a2,a0
    9faa:	00c51463          	bne	a0,a2,9fb2 <memchr+0xe>
    9fae:	4501                	li	a0,0
    9fb0:	8082                	ret
    9fb2:	00054783          	lbu	a5,0(a0)
    9fb6:	feb78de3          	beq	a5,a1,9fb0 <memchr+0xc>
    9fba:	0505                	addi	a0,a0,1
    9fbc:	b7fd                	j	9faa <memchr+0x6>

00009fbe <__malloc_lock>:
__malloc_lock():
    9fbe:	8082                	ret

00009fc0 <__malloc_unlock>:
__malloc_unlock():
    9fc0:	8082                	ret

00009fc2 <_read_r>:
_read_r():
    9fc2:	1141                	addi	sp,sp,-16
    9fc4:	c422                	sw	s0,8(sp)
    9fc6:	842a                	mv	s0,a0
    9fc8:	852e                	mv	a0,a1
    9fca:	85b2                	mv	a1,a2
    9fcc:	8636                	mv	a2,a3
    9fce:	20014797          	auipc	a5,0x20014
    9fd2:	ee07af23          	sw	zero,-258(a5) # 2001decc <errno>
    9fd6:	c606                	sw	ra,12(sp)
    9fd8:	28b9                	jal	a036 <_read>
    9fda:	57fd                	li	a5,-1
    9fdc:	00f51963          	bne	a0,a5,9fee <_read_r+0x2c>
    9fe0:	20014797          	auipc	a5,0x20014
    9fe4:	eec78793          	addi	a5,a5,-276 # 2001decc <errno>
    9fe8:	439c                	lw	a5,0(a5)
    9fea:	c391                	beqz	a5,9fee <_read_r+0x2c>
    9fec:	c01c                	sw	a5,0(s0)
    9fee:	40b2                	lw	ra,12(sp)
    9ff0:	4422                	lw	s0,8(sp)
    9ff2:	0141                	addi	sp,sp,16
    9ff4:	8082                	ret

00009ff6 <_close>:
_close():
    9ff6:	05800793          	li	a5,88
    9ffa:	20014717          	auipc	a4,0x20014
    9ffe:	ecf72923          	sw	a5,-302(a4) # 2001decc <errno>
    a002:	557d                	li	a0,-1
    a004:	8082                	ret

0000a006 <_fstat>:
_fstat():
    a006:	05800793          	li	a5,88
    a00a:	20014717          	auipc	a4,0x20014
    a00e:	ecf72123          	sw	a5,-318(a4) # 2001decc <errno>
    a012:	557d                	li	a0,-1
    a014:	8082                	ret

0000a016 <_isatty>:
_isatty():
    a016:	05800793          	li	a5,88
    a01a:	20014717          	auipc	a4,0x20014
    a01e:	eaf72923          	sw	a5,-334(a4) # 2001decc <errno>
    a022:	4501                	li	a0,0
    a024:	8082                	ret

0000a026 <_lseek>:
_lseek():
    a026:	05800793          	li	a5,88
    a02a:	20014717          	auipc	a4,0x20014
    a02e:	eaf72123          	sw	a5,-350(a4) # 2001decc <errno>
    a032:	557d                	li	a0,-1
    a034:	8082                	ret

0000a036 <_read>:
_read():
    a036:	05800793          	li	a5,88
    a03a:	20014717          	auipc	a4,0x20014
    a03e:	e8f72923          	sw	a5,-366(a4) # 2001decc <errno>
    a042:	557d                	li	a0,-1
    a044:	8082                	ret

0000a046 <_sbrk>:
_sbrk():
    a046:	95018793          	addi	a5,gp,-1712 # 200001c0 <heap_end.1518>
    a04a:	439c                	lw	a5,0(a5)
    a04c:	c791                	beqz	a5,a058 <_sbrk+0x12>
    a04e:	953e                	add	a0,a0,a5
    a050:	94a1a823          	sw	a0,-1712(gp) # 200001c0 <heap_end.1518>
    a054:	853e                	mv	a0,a5
    a056:	8082                	ret
    a058:	20014797          	auipc	a5,0x20014
    a05c:	e7878793          	addi	a5,a5,-392 # 2001ded0 <_ebss>
    a060:	953e                	add	a0,a0,a5
    a062:	94a1a823          	sw	a0,-1712(gp) # 200001c0 <heap_end.1518>
    a066:	853e                	mv	a0,a5
    a068:	8082                	ret
    a06a:	0000                	unimp
    a06c:	6148                	flw	fa0,4(a0)
    a06e:	6472                	flw	fs0,28(sp)
    a070:	6146                	flw	ft2,80(sp)
    a072:	6c75                	lui	s8,0x1d
    a074:	5f74                	lw	a3,124(a4)
    a076:	6148                	flw	fa0,4(a0)
    a078:	646e                	flw	fs0,216(sp)
    a07a:	656c                	flw	fa1,76(a0)
    a07c:	0d72                	slli	s10,s10,0x1c
    a07e:	0000                	unimp
    a080:	656d                	lui	a0,0x1b
    a082:	6370                	flw	fa2,68(a4)
    a084:	2020                	lbu	s0,2(s0)
    a086:	253a                	lhu	a4,10(a0)
    a088:	3830                	lbu	a2,19(s0)
    a08a:	0d78                	addi	a4,sp,668
    a08c:	000a                	c.slli	zero,0x2
    a08e:	0000                	unimp
    a090:	636d                	lui	t1,0x1b
    a092:	7561                	lui	a0,0xffff8
    a094:	253a6573          	csrrsi	a0,0x253,20
    a098:	3830                	lbu	a2,19(s0)
    a09a:	0d78                	addi	a4,sp,668
    a09c:	000a                	c.slli	zero,0x2
    a09e:	0000                	unimp
    a0a0:	746d                	lui	s0,0xffffb
    a0a2:	6176                	flw	ft2,92(sp)
    a0a4:	206c                	lbu	a1,6(s0)
    a0a6:	253a                	lhu	a4,10(a0)
    a0a8:	3830                	lbu	a2,19(s0)
    a0aa:	0d78                	addi	a4,sp,668
    a0ac:	000a                	c.slli	zero,0x2
    a0ae:	0000                	unimp
    a0b0:	105c                	addi	a5,sp,36
    a0b2:	0000                	unimp
    a0b4:	1076                	c.slli	zero,0x3d
    a0b6:	0000                	unimp
    a0b8:	108e                	slli	ra,ra,0x23
    a0ba:	0000                	unimp
    a0bc:	10a6                	slli	ra,ra,0x29
    a0be:	0000                	unimp
    a0c0:	10c8                	addi	a0,sp,100
    a0c2:	0000                	unimp
    a0c4:	10ea                	slli	ra,ra,0x3a
    a0c6:	0000                	unimp
    a0c8:	110c                	addi	a1,sp,160
    a0ca:	0000                	unimp
    a0cc:	11ee                	slli	gp,gp,0x3b
    a0ce:	0000                	unimp
    a0d0:	11f4                	addi	a3,sp,236
    a0d2:	0000                	unimp
    a0d4:	11fa                	slli	gp,gp,0x3e
    a0d6:	0000                	unimp
    a0d8:	1200                	addi	s0,sp,288
    a0da:	0000                	unimp
    a0dc:	1206                	slli	tp,tp,0x21
    a0de:	0000                	unimp
    a0e0:	120c                	addi	a1,sp,288
    a0e2:	0000                	unimp
    a0e4:	1212                	slli	tp,tp,0x24
	...

0000a0e8 <MemNum>:
    a0e8:	0004 0008 0008 0008 000a 0005 0005 0006     ................

0000a0f8 <MemSize>:
    a0f8:	0100 0030 0100 0040 0060 0040 0040 0398     ..0...@.`.@.@...
    a108:	6863 3233 3376 3730 0000 0000 382e 0000     ch32v307.....8..
    a118:	3874 0000 388e 0000 389e 0000 389e 0000     t8...8...8...8..
    a128:	388a 0000 388a 0000 38ac 0000               .8...8...8..

0000a134 <tcp_backoff>:
    a134:	0101 0101 0101 0101 0101 0101 0101 0101     ................
    a144:	0101 0101                                   ....

0000a148 <ErrTable>:
    a148:	1100 1312 1514 1716 1918 1b1a 1d1c 1f1e     ................
    a158:	766f 7265 6c66 776f 000d 0000 6f6e 7220     overflow....no r
    a168:	756f 6574 7420 206f 6564 7473 6e69 7461     oute to destinat
    a178:	6f69 206e 7265 6f72 0d72 0000 80ca 0000     ion error.......
    a188:	81ca 0000 82b4 0000 82bc 0000 8362 0000     ............b...
    a198:	82b4 0000 83a8 0000 83e4 0000               ............

0000a1a4 <__sf_fake_stderr>:
	...

0000a1c4 <__sf_fake_stdin>:
	...

0000a1e4 <__sf_fake_stdout>:
	...
    a204:	2d23 2b30 0020 0000 6c68 004c 6665 4567     #-0+ ...hlL.efgE
    a214:	4746 0000 3130 3332 3534 3736 3938 4241     FG..0123456789AB
    a224:	4443 4645 0000 0000 3130 3332 3534 3736     CDEF....01234567
    a234:	3938 6261 6463 6665 0000 0000               89abcdef....
